
zephyr.elf:     file format elf32-littlearm


Disassembly of section rom_start:

00000000 <_vector_start>:
   0:	20002bc0 	.word	0x20002bc0
   4:	00003545 	.word	0x00003545
   8:	0000a1c1 	.word	0x0000a1c1
   c:	00003531 	.word	0x00003531
  10:	00003531 	.word	0x00003531
  14:	00003531 	.word	0x00003531
  18:	00003531 	.word	0x00003531
	...
  2c:	0000334d 	.word	0x0000334d
  30:	00003531 	.word	0x00003531
  34:	00000000 	.word	0x00000000
  38:	000032f9 	.word	0x000032f9
  3c:	00003531 	.word	0x00003531

00000040 <_irq_vector_table>:
  40:	000032b1 000032b1 000032b1 000032b1     .2...2...2...2..
  50:	000032b1 000032b1 000032b1 000032b1     .2...2...2...2..
  60:	000032b1 000032b1 000032b1 000032b1     .2...2...2...2..
  70:	000032b1 000032b1 000032b1 000032b1     .2...2...2...2..
  80:	000032b1 000032b1 000032b1 000032b1     .2...2...2...2..
  90:	000032b1 000032b1 000032b1 000032b1     .2...2...2...2..
  a0:	000032b1 000032b1 000032b1 000032b1     .2...2...2...2..
  b0:	000032b1 000032b1 000032b1 000032b1     .2...2...2...2..
  c0:	000032b1 000032b1 000032b1 000032b1     .2...2...2...2..
  d0:	000032b1 000032b1 000032b1 000032b1     .2...2...2...2..
  e0:	000032b1 000032b1 000032b1 000032b1     .2...2...2...2..
  f0:	000032b1 000032b1 000032b1 000032b1     .2...2...2...2..

Disassembly of section text:

00000100 <__aeabi_drsub>:
     100:	f081 4100 	eor.w	r1, r1, #2147483648	; 0x80000000
     104:	e002      	b.n	10c <__adddf3>
     106:	bf00      	nop

00000108 <__aeabi_dsub>:
     108:	f083 4300 	eor.w	r3, r3, #2147483648	; 0x80000000

0000010c <__adddf3>:
     10c:	b530      	push	{r4, r5, lr}
     10e:	ea4f 0441 	mov.w	r4, r1, lsl #1
     112:	ea4f 0543 	mov.w	r5, r3, lsl #1
     116:	ea94 0f05 	teq	r4, r5
     11a:	bf08      	it	eq
     11c:	ea90 0f02 	teqeq	r0, r2
     120:	bf1f      	itttt	ne
     122:	ea54 0c00 	orrsne.w	ip, r4, r0
     126:	ea55 0c02 	orrsne.w	ip, r5, r2
     12a:	ea7f 5c64 	mvnsne.w	ip, r4, asr #21
     12e:	ea7f 5c65 	mvnsne.w	ip, r5, asr #21
     132:	f000 80e2 	beq.w	2fa <__data_size+0xca>
     136:	ea4f 5454 	mov.w	r4, r4, lsr #21
     13a:	ebd4 5555 	rsbs	r5, r4, r5, lsr #21
     13e:	bfb8      	it	lt
     140:	426d      	neglt	r5, r5
     142:	dd0c      	ble.n	15e <CONFIG_IDLE_STACK_SIZE+0x1e>
     144:	442c      	add	r4, r5
     146:	ea80 0202 	eor.w	r2, r0, r2
     14a:	ea81 0303 	eor.w	r3, r1, r3
     14e:	ea82 0000 	eor.w	r0, r2, r0
     152:	ea83 0101 	eor.w	r1, r3, r1
     156:	ea80 0202 	eor.w	r2, r0, r2
     15a:	ea81 0303 	eor.w	r3, r1, r3
     15e:	2d36      	cmp	r5, #54	; 0x36
     160:	bf88      	it	hi
     162:	bd30      	pophi	{r4, r5, pc}
     164:	f011 4f00 	tst.w	r1, #2147483648	; 0x80000000
     168:	ea4f 3101 	mov.w	r1, r1, lsl #12
     16c:	f44f 1c80 	mov.w	ip, #1048576	; 0x100000
     170:	ea4c 3111 	orr.w	r1, ip, r1, lsr #12
     174:	d002      	beq.n	17c <CONFIG_IDLE_STACK_SIZE+0x3c>
     176:	4240      	negs	r0, r0
     178:	eb61 0141 	sbc.w	r1, r1, r1, lsl #1
     17c:	f013 4f00 	tst.w	r3, #2147483648	; 0x80000000
     180:	ea4f 3303 	mov.w	r3, r3, lsl #12
     184:	ea4c 3313 	orr.w	r3, ip, r3, lsr #12
     188:	d002      	beq.n	190 <CONFIG_IDLE_STACK_SIZE+0x50>
     18a:	4252      	negs	r2, r2
     18c:	eb63 0343 	sbc.w	r3, r3, r3, lsl #1
     190:	ea94 0f05 	teq	r4, r5
     194:	f000 80a7 	beq.w	2e6 <__data_size+0xb6>
     198:	f1a4 0401 	sub.w	r4, r4, #1
     19c:	f1d5 0e20 	rsbs	lr, r5, #32
     1a0:	db0d      	blt.n	1be <CONFIG_IDLE_STACK_SIZE+0x7e>
     1a2:	fa02 fc0e 	lsl.w	ip, r2, lr
     1a6:	fa22 f205 	lsr.w	r2, r2, r5
     1aa:	1880      	adds	r0, r0, r2
     1ac:	f141 0100 	adc.w	r1, r1, #0
     1b0:	fa03 f20e 	lsl.w	r2, r3, lr
     1b4:	1880      	adds	r0, r0, r2
     1b6:	fa43 f305 	asr.w	r3, r3, r5
     1ba:	4159      	adcs	r1, r3
     1bc:	e00e      	b.n	1dc <CONFIG_IDLE_STACK_SIZE+0x9c>
     1be:	f1a5 0520 	sub.w	r5, r5, #32
     1c2:	f10e 0e20 	add.w	lr, lr, #32
     1c6:	2a01      	cmp	r2, #1
     1c8:	fa03 fc0e 	lsl.w	ip, r3, lr
     1cc:	bf28      	it	cs
     1ce:	f04c 0c02 	orrcs.w	ip, ip, #2
     1d2:	fa43 f305 	asr.w	r3, r3, r5
     1d6:	18c0      	adds	r0, r0, r3
     1d8:	eb51 71e3 	adcs.w	r1, r1, r3, asr #31
     1dc:	f001 4500 	and.w	r5, r1, #2147483648	; 0x80000000
     1e0:	d507      	bpl.n	1f2 <CONFIG_IDLE_STACK_SIZE+0xb2>
     1e2:	f04f 0e00 	mov.w	lr, #0
     1e6:	f1dc 0c00 	rsbs	ip, ip, #0
     1ea:	eb7e 0000 	sbcs.w	r0, lr, r0
     1ee:	eb6e 0101 	sbc.w	r1, lr, r1
     1f2:	f5b1 1f80 	cmp.w	r1, #1048576	; 0x100000
     1f6:	d31b      	bcc.n	230 <__data_size>
     1f8:	f5b1 1f00 	cmp.w	r1, #2097152	; 0x200000
     1fc:	d30c      	bcc.n	218 <CONFIG_CONSOLE_PUTCHAR_BUFSIZE+0x18>
     1fe:	0849      	lsrs	r1, r1, #1
     200:	ea5f 0030 	movs.w	r0, r0, rrx
     204:	ea4f 0c3c 	mov.w	ip, ip, rrx
     208:	f104 0401 	add.w	r4, r4, #1
     20c:	ea4f 5244 	mov.w	r2, r4, lsl #21
     210:	f512 0f80 	cmn.w	r2, #4194304	; 0x400000
     214:	f080 809a 	bcs.w	34c <__data_size+0x11c>
     218:	f1bc 4f00 	cmp.w	ip, #2147483648	; 0x80000000
     21c:	bf08      	it	eq
     21e:	ea5f 0c50 	movseq.w	ip, r0, lsr #1
     222:	f150 0000 	adcs.w	r0, r0, #0
     226:	eb41 5104 	adc.w	r1, r1, r4, lsl #20
     22a:	ea41 0105 	orr.w	r1, r1, r5
     22e:	bd30      	pop	{r4, r5, pc}
     230:	ea5f 0c4c 	movs.w	ip, ip, lsl #1
     234:	4140      	adcs	r0, r0
     236:	eb41 0101 	adc.w	r1, r1, r1
     23a:	3c01      	subs	r4, #1
     23c:	bf28      	it	cs
     23e:	f5b1 1f80 	cmpcs.w	r1, #1048576	; 0x100000
     242:	d2e9      	bcs.n	218 <CONFIG_CONSOLE_PUTCHAR_BUFSIZE+0x18>
     244:	f091 0f00 	teq	r1, #0
     248:	bf04      	itt	eq
     24a:	4601      	moveq	r1, r0
     24c:	2000      	moveq	r0, #0
     24e:	fab1 f381 	clz	r3, r1
     252:	bf08      	it	eq
     254:	3320      	addeq	r3, #32
     256:	f1a3 030b 	sub.w	r3, r3, #11
     25a:	f1b3 0220 	subs.w	r2, r3, #32
     25e:	da0c      	bge.n	27a <__data_size+0x4a>
     260:	320c      	adds	r2, #12
     262:	dd08      	ble.n	276 <__data_size+0x46>
     264:	f102 0c14 	add.w	ip, r2, #20
     268:	f1c2 020c 	rsb	r2, r2, #12
     26c:	fa01 f00c 	lsl.w	r0, r1, ip
     270:	fa21 f102 	lsr.w	r1, r1, r2
     274:	e00c      	b.n	290 <__data_size+0x60>
     276:	f102 0214 	add.w	r2, r2, #20
     27a:	bfd8      	it	le
     27c:	f1c2 0c20 	rsble	ip, r2, #32
     280:	fa01 f102 	lsl.w	r1, r1, r2
     284:	fa20 fc0c 	lsr.w	ip, r0, ip
     288:	bfdc      	itt	le
     28a:	ea41 010c 	orrle.w	r1, r1, ip
     28e:	4090      	lslle	r0, r2
     290:	1ae4      	subs	r4, r4, r3
     292:	bfa2      	ittt	ge
     294:	eb01 5104 	addge.w	r1, r1, r4, lsl #20
     298:	4329      	orrge	r1, r5
     29a:	bd30      	popge	{r4, r5, pc}
     29c:	ea6f 0404 	mvn.w	r4, r4
     2a0:	3c1f      	subs	r4, #31
     2a2:	da1c      	bge.n	2de <__data_size+0xae>
     2a4:	340c      	adds	r4, #12
     2a6:	dc0e      	bgt.n	2c6 <__data_size+0x96>
     2a8:	f104 0414 	add.w	r4, r4, #20
     2ac:	f1c4 0220 	rsb	r2, r4, #32
     2b0:	fa20 f004 	lsr.w	r0, r0, r4
     2b4:	fa01 f302 	lsl.w	r3, r1, r2
     2b8:	ea40 0003 	orr.w	r0, r0, r3
     2bc:	fa21 f304 	lsr.w	r3, r1, r4
     2c0:	ea45 0103 	orr.w	r1, r5, r3
     2c4:	bd30      	pop	{r4, r5, pc}
     2c6:	f1c4 040c 	rsb	r4, r4, #12
     2ca:	f1c4 0220 	rsb	r2, r4, #32
     2ce:	fa20 f002 	lsr.w	r0, r0, r2
     2d2:	fa01 f304 	lsl.w	r3, r1, r4
     2d6:	ea40 0003 	orr.w	r0, r0, r3
     2da:	4629      	mov	r1, r5
     2dc:	bd30      	pop	{r4, r5, pc}
     2de:	fa21 f004 	lsr.w	r0, r1, r4
     2e2:	4629      	mov	r1, r5
     2e4:	bd30      	pop	{r4, r5, pc}
     2e6:	f094 0f00 	teq	r4, #0
     2ea:	f483 1380 	eor.w	r3, r3, #1048576	; 0x100000
     2ee:	bf06      	itte	eq
     2f0:	f481 1180 	eoreq.w	r1, r1, #1048576	; 0x100000
     2f4:	3401      	addeq	r4, #1
     2f6:	3d01      	subne	r5, #1
     2f8:	e74e      	b.n	198 <CONFIG_IDLE_STACK_SIZE+0x58>
     2fa:	ea7f 5c64 	mvns.w	ip, r4, asr #21
     2fe:	bf18      	it	ne
     300:	ea7f 5c65 	mvnsne.w	ip, r5, asr #21
     304:	d029      	beq.n	35a <__data_size+0x12a>
     306:	ea94 0f05 	teq	r4, r5
     30a:	bf08      	it	eq
     30c:	ea90 0f02 	teqeq	r0, r2
     310:	d005      	beq.n	31e <__data_size+0xee>
     312:	ea54 0c00 	orrs.w	ip, r4, r0
     316:	bf04      	itt	eq
     318:	4619      	moveq	r1, r3
     31a:	4610      	moveq	r0, r2
     31c:	bd30      	pop	{r4, r5, pc}
     31e:	ea91 0f03 	teq	r1, r3
     322:	bf1e      	ittt	ne
     324:	2100      	movne	r1, #0
     326:	2000      	movne	r0, #0
     328:	bd30      	popne	{r4, r5, pc}
     32a:	ea5f 5c54 	movs.w	ip, r4, lsr #21
     32e:	d105      	bne.n	33c <__data_size+0x10c>
     330:	0040      	lsls	r0, r0, #1
     332:	4149      	adcs	r1, r1
     334:	bf28      	it	cs
     336:	f041 4100 	orrcs.w	r1, r1, #2147483648	; 0x80000000
     33a:	bd30      	pop	{r4, r5, pc}
     33c:	f514 0480 	adds.w	r4, r4, #4194304	; 0x400000
     340:	bf3c      	itt	cc
     342:	f501 1180 	addcc.w	r1, r1, #1048576	; 0x100000
     346:	bd30      	popcc	{r4, r5, pc}
     348:	f001 4500 	and.w	r5, r1, #2147483648	; 0x80000000
     34c:	f045 41fe 	orr.w	r1, r5, #2130706432	; 0x7f000000
     350:	f441 0170 	orr.w	r1, r1, #15728640	; 0xf00000
     354:	f04f 0000 	mov.w	r0, #0
     358:	bd30      	pop	{r4, r5, pc}
     35a:	ea7f 5c64 	mvns.w	ip, r4, asr #21
     35e:	bf1a      	itte	ne
     360:	4619      	movne	r1, r3
     362:	4610      	movne	r0, r2
     364:	ea7f 5c65 	mvnseq.w	ip, r5, asr #21
     368:	bf1c      	itt	ne
     36a:	460b      	movne	r3, r1
     36c:	4602      	movne	r2, r0
     36e:	ea50 3401 	orrs.w	r4, r0, r1, lsl #12
     372:	bf06      	itte	eq
     374:	ea52 3503 	orrseq.w	r5, r2, r3, lsl #12
     378:	ea91 0f03 	teqeq	r1, r3
     37c:	f441 2100 	orrne.w	r1, r1, #524288	; 0x80000
     380:	bd30      	pop	{r4, r5, pc}
     382:	bf00      	nop

00000384 <__aeabi_ui2d>:
     384:	f090 0f00 	teq	r0, #0
     388:	bf04      	itt	eq
     38a:	2100      	moveq	r1, #0
     38c:	4770      	bxeq	lr
     38e:	b530      	push	{r4, r5, lr}
     390:	f44f 6480 	mov.w	r4, #1024	; 0x400
     394:	f104 0432 	add.w	r4, r4, #50	; 0x32
     398:	f04f 0500 	mov.w	r5, #0
     39c:	f04f 0100 	mov.w	r1, #0
     3a0:	e750      	b.n	244 <__data_size+0x14>
     3a2:	bf00      	nop

000003a4 <__aeabi_i2d>:
     3a4:	f090 0f00 	teq	r0, #0
     3a8:	bf04      	itt	eq
     3aa:	2100      	moveq	r1, #0
     3ac:	4770      	bxeq	lr
     3ae:	b530      	push	{r4, r5, lr}
     3b0:	f44f 6480 	mov.w	r4, #1024	; 0x400
     3b4:	f104 0432 	add.w	r4, r4, #50	; 0x32
     3b8:	f010 4500 	ands.w	r5, r0, #2147483648	; 0x80000000
     3bc:	bf48      	it	mi
     3be:	4240      	negmi	r0, r0
     3c0:	f04f 0100 	mov.w	r1, #0
     3c4:	e73e      	b.n	244 <__data_size+0x14>
     3c6:	bf00      	nop

000003c8 <__aeabi_f2d>:
     3c8:	0042      	lsls	r2, r0, #1
     3ca:	ea4f 01e2 	mov.w	r1, r2, asr #3
     3ce:	ea4f 0131 	mov.w	r1, r1, rrx
     3d2:	ea4f 7002 	mov.w	r0, r2, lsl #28
     3d6:	bf1f      	itttt	ne
     3d8:	f012 437f 	andsne.w	r3, r2, #4278190080	; 0xff000000
     3dc:	f093 4f7f 	teqne	r3, #4278190080	; 0xff000000
     3e0:	f081 5160 	eorne.w	r1, r1, #939524096	; 0x38000000
     3e4:	4770      	bxne	lr
     3e6:	f032 427f 	bics.w	r2, r2, #4278190080	; 0xff000000
     3ea:	bf08      	it	eq
     3ec:	4770      	bxeq	lr
     3ee:	f093 4f7f 	teq	r3, #4278190080	; 0xff000000
     3f2:	bf04      	itt	eq
     3f4:	f441 2100 	orreq.w	r1, r1, #524288	; 0x80000
     3f8:	4770      	bxeq	lr
     3fa:	b530      	push	{r4, r5, lr}
     3fc:	f44f 7460 	mov.w	r4, #896	; 0x380
     400:	f001 4500 	and.w	r5, r1, #2147483648	; 0x80000000
     404:	f021 4100 	bic.w	r1, r1, #2147483648	; 0x80000000
     408:	e71c      	b.n	244 <__data_size+0x14>
     40a:	bf00      	nop

0000040c <__aeabi_ul2d>:
     40c:	ea50 0201 	orrs.w	r2, r0, r1
     410:	bf08      	it	eq
     412:	4770      	bxeq	lr
     414:	b530      	push	{r4, r5, lr}
     416:	f04f 0500 	mov.w	r5, #0
     41a:	e00a      	b.n	432 <__aeabi_l2d+0x16>

0000041c <__aeabi_l2d>:
     41c:	ea50 0201 	orrs.w	r2, r0, r1
     420:	bf08      	it	eq
     422:	4770      	bxeq	lr
     424:	b530      	push	{r4, r5, lr}
     426:	f011 4500 	ands.w	r5, r1, #2147483648	; 0x80000000
     42a:	d502      	bpl.n	432 <__aeabi_l2d+0x16>
     42c:	4240      	negs	r0, r0
     42e:	eb61 0141 	sbc.w	r1, r1, r1, lsl #1
     432:	f44f 6480 	mov.w	r4, #1024	; 0x400
     436:	f104 0432 	add.w	r4, r4, #50	; 0x32
     43a:	ea5f 5c91 	movs.w	ip, r1, lsr #22
     43e:	f43f aed8 	beq.w	1f2 <CONFIG_IDLE_STACK_SIZE+0xb2>
     442:	f04f 0203 	mov.w	r2, #3
     446:	ea5f 0cdc 	movs.w	ip, ip, lsr #3
     44a:	bf18      	it	ne
     44c:	3203      	addne	r2, #3
     44e:	ea5f 0cdc 	movs.w	ip, ip, lsr #3
     452:	bf18      	it	ne
     454:	3203      	addne	r2, #3
     456:	eb02 02dc 	add.w	r2, r2, ip, lsr #3
     45a:	f1c2 0320 	rsb	r3, r2, #32
     45e:	fa00 fc03 	lsl.w	ip, r0, r3
     462:	fa20 f002 	lsr.w	r0, r0, r2
     466:	fa01 fe03 	lsl.w	lr, r1, r3
     46a:	ea40 000e 	orr.w	r0, r0, lr
     46e:	fa21 f102 	lsr.w	r1, r1, r2
     472:	4414      	add	r4, r2
     474:	e6bd      	b.n	1f2 <CONFIG_IDLE_STACK_SIZE+0xb2>
     476:	bf00      	nop

00000478 <__aeabi_dmul>:
     478:	b570      	push	{r4, r5, r6, lr}
     47a:	f04f 0cff 	mov.w	ip, #255	; 0xff
     47e:	f44c 6ce0 	orr.w	ip, ip, #1792	; 0x700
     482:	ea1c 5411 	ands.w	r4, ip, r1, lsr #20
     486:	bf1d      	ittte	ne
     488:	ea1c 5513 	andsne.w	r5, ip, r3, lsr #20
     48c:	ea94 0f0c 	teqne	r4, ip
     490:	ea95 0f0c 	teqne	r5, ip
     494:	f000 f8de 	bleq	654 <CONFIG_NRF_MODEM_SHMEM_CTRL_SIZE+0x16c>
     498:	442c      	add	r4, r5
     49a:	ea81 0603 	eor.w	r6, r1, r3
     49e:	ea21 514c 	bic.w	r1, r1, ip, lsl #21
     4a2:	ea23 534c 	bic.w	r3, r3, ip, lsl #21
     4a6:	ea50 3501 	orrs.w	r5, r0, r1, lsl #12
     4aa:	bf18      	it	ne
     4ac:	ea52 3503 	orrsne.w	r5, r2, r3, lsl #12
     4b0:	f441 1180 	orr.w	r1, r1, #1048576	; 0x100000
     4b4:	f443 1380 	orr.w	r3, r3, #1048576	; 0x100000
     4b8:	d038      	beq.n	52c <CONFIG_NRF_MODEM_SHMEM_CTRL_SIZE+0x44>
     4ba:	fba0 ce02 	umull	ip, lr, r0, r2
     4be:	f04f 0500 	mov.w	r5, #0
     4c2:	fbe1 e502 	umlal	lr, r5, r1, r2
     4c6:	f006 4200 	and.w	r2, r6, #2147483648	; 0x80000000
     4ca:	fbe0 e503 	umlal	lr, r5, r0, r3
     4ce:	f04f 0600 	mov.w	r6, #0
     4d2:	fbe1 5603 	umlal	r5, r6, r1, r3
     4d6:	f09c 0f00 	teq	ip, #0
     4da:	bf18      	it	ne
     4dc:	f04e 0e01 	orrne.w	lr, lr, #1
     4e0:	f1a4 04ff 	sub.w	r4, r4, #255	; 0xff
     4e4:	f5b6 7f00 	cmp.w	r6, #512	; 0x200
     4e8:	f564 7440 	sbc.w	r4, r4, #768	; 0x300
     4ec:	d204      	bcs.n	4f8 <CONFIG_NRF_MODEM_SHMEM_CTRL_SIZE+0x10>
     4ee:	ea5f 0e4e 	movs.w	lr, lr, lsl #1
     4f2:	416d      	adcs	r5, r5
     4f4:	eb46 0606 	adc.w	r6, r6, r6
     4f8:	ea42 21c6 	orr.w	r1, r2, r6, lsl #11
     4fc:	ea41 5155 	orr.w	r1, r1, r5, lsr #21
     500:	ea4f 20c5 	mov.w	r0, r5, lsl #11
     504:	ea40 505e 	orr.w	r0, r0, lr, lsr #21
     508:	ea4f 2ece 	mov.w	lr, lr, lsl #11
     50c:	f1b4 0cfd 	subs.w	ip, r4, #253	; 0xfd
     510:	bf88      	it	hi
     512:	f5bc 6fe0 	cmphi.w	ip, #1792	; 0x700
     516:	d81e      	bhi.n	556 <CONFIG_NRF_MODEM_SHMEM_CTRL_SIZE+0x6e>
     518:	f1be 4f00 	cmp.w	lr, #2147483648	; 0x80000000
     51c:	bf08      	it	eq
     51e:	ea5f 0e50 	movseq.w	lr, r0, lsr #1
     522:	f150 0000 	adcs.w	r0, r0, #0
     526:	eb41 5104 	adc.w	r1, r1, r4, lsl #20
     52a:	bd70      	pop	{r4, r5, r6, pc}
     52c:	f006 4600 	and.w	r6, r6, #2147483648	; 0x80000000
     530:	ea46 0101 	orr.w	r1, r6, r1
     534:	ea40 0002 	orr.w	r0, r0, r2
     538:	ea81 0103 	eor.w	r1, r1, r3
     53c:	ebb4 045c 	subs.w	r4, r4, ip, lsr #1
     540:	bfc2      	ittt	gt
     542:	ebd4 050c 	rsbsgt	r5, r4, ip
     546:	ea41 5104 	orrgt.w	r1, r1, r4, lsl #20
     54a:	bd70      	popgt	{r4, r5, r6, pc}
     54c:	f441 1180 	orr.w	r1, r1, #1048576	; 0x100000
     550:	f04f 0e00 	mov.w	lr, #0
     554:	3c01      	subs	r4, #1
     556:	f300 80ab 	bgt.w	6b0 <CONFIG_NRF_MODEM_SHMEM_CTRL_SIZE+0x1c8>
     55a:	f114 0f36 	cmn.w	r4, #54	; 0x36
     55e:	bfde      	ittt	le
     560:	2000      	movle	r0, #0
     562:	f001 4100 	andle.w	r1, r1, #2147483648	; 0x80000000
     566:	bd70      	pople	{r4, r5, r6, pc}
     568:	f1c4 0400 	rsb	r4, r4, #0
     56c:	3c20      	subs	r4, #32
     56e:	da35      	bge.n	5dc <CONFIG_NRF_MODEM_SHMEM_CTRL_SIZE+0xf4>
     570:	340c      	adds	r4, #12
     572:	dc1b      	bgt.n	5ac <CONFIG_NRF_MODEM_SHMEM_CTRL_SIZE+0xc4>
     574:	f104 0414 	add.w	r4, r4, #20
     578:	f1c4 0520 	rsb	r5, r4, #32
     57c:	fa00 f305 	lsl.w	r3, r0, r5
     580:	fa20 f004 	lsr.w	r0, r0, r4
     584:	fa01 f205 	lsl.w	r2, r1, r5
     588:	ea40 0002 	orr.w	r0, r0, r2
     58c:	f001 4200 	and.w	r2, r1, #2147483648	; 0x80000000
     590:	f021 4100 	bic.w	r1, r1, #2147483648	; 0x80000000
     594:	eb10 70d3 	adds.w	r0, r0, r3, lsr #31
     598:	fa21 f604 	lsr.w	r6, r1, r4
     59c:	eb42 0106 	adc.w	r1, r2, r6
     5a0:	ea5e 0e43 	orrs.w	lr, lr, r3, lsl #1
     5a4:	bf08      	it	eq
     5a6:	ea20 70d3 	biceq.w	r0, r0, r3, lsr #31
     5aa:	bd70      	pop	{r4, r5, r6, pc}
     5ac:	f1c4 040c 	rsb	r4, r4, #12
     5b0:	f1c4 0520 	rsb	r5, r4, #32
     5b4:	fa00 f304 	lsl.w	r3, r0, r4
     5b8:	fa20 f005 	lsr.w	r0, r0, r5
     5bc:	fa01 f204 	lsl.w	r2, r1, r4
     5c0:	ea40 0002 	orr.w	r0, r0, r2
     5c4:	f001 4100 	and.w	r1, r1, #2147483648	; 0x80000000
     5c8:	eb10 70d3 	adds.w	r0, r0, r3, lsr #31
     5cc:	f141 0100 	adc.w	r1, r1, #0
     5d0:	ea5e 0e43 	orrs.w	lr, lr, r3, lsl #1
     5d4:	bf08      	it	eq
     5d6:	ea20 70d3 	biceq.w	r0, r0, r3, lsr #31
     5da:	bd70      	pop	{r4, r5, r6, pc}
     5dc:	f1c4 0520 	rsb	r5, r4, #32
     5e0:	fa00 f205 	lsl.w	r2, r0, r5
     5e4:	ea4e 0e02 	orr.w	lr, lr, r2
     5e8:	fa20 f304 	lsr.w	r3, r0, r4
     5ec:	fa01 f205 	lsl.w	r2, r1, r5
     5f0:	ea43 0302 	orr.w	r3, r3, r2
     5f4:	fa21 f004 	lsr.w	r0, r1, r4
     5f8:	f001 4100 	and.w	r1, r1, #2147483648	; 0x80000000
     5fc:	fa21 f204 	lsr.w	r2, r1, r4
     600:	ea20 0002 	bic.w	r0, r0, r2
     604:	eb00 70d3 	add.w	r0, r0, r3, lsr #31
     608:	ea5e 0e43 	orrs.w	lr, lr, r3, lsl #1
     60c:	bf08      	it	eq
     60e:	ea20 70d3 	biceq.w	r0, r0, r3, lsr #31
     612:	bd70      	pop	{r4, r5, r6, pc}
     614:	f094 0f00 	teq	r4, #0
     618:	d10f      	bne.n	63a <CONFIG_NRF_MODEM_SHMEM_CTRL_SIZE+0x152>
     61a:	f001 4600 	and.w	r6, r1, #2147483648	; 0x80000000
     61e:	0040      	lsls	r0, r0, #1
     620:	eb41 0101 	adc.w	r1, r1, r1
     624:	f411 1f80 	tst.w	r1, #1048576	; 0x100000
     628:	bf08      	it	eq
     62a:	3c01      	subeq	r4, #1
     62c:	d0f7      	beq.n	61e <CONFIG_NRF_MODEM_SHMEM_CTRL_SIZE+0x136>
     62e:	ea41 0106 	orr.w	r1, r1, r6
     632:	f095 0f00 	teq	r5, #0
     636:	bf18      	it	ne
     638:	4770      	bxne	lr
     63a:	f003 4600 	and.w	r6, r3, #2147483648	; 0x80000000
     63e:	0052      	lsls	r2, r2, #1
     640:	eb43 0303 	adc.w	r3, r3, r3
     644:	f413 1f80 	tst.w	r3, #1048576	; 0x100000
     648:	bf08      	it	eq
     64a:	3d01      	subeq	r5, #1
     64c:	d0f7      	beq.n	63e <CONFIG_NRF_MODEM_SHMEM_CTRL_SIZE+0x156>
     64e:	ea43 0306 	orr.w	r3, r3, r6
     652:	4770      	bx	lr
     654:	ea94 0f0c 	teq	r4, ip
     658:	ea0c 5513 	and.w	r5, ip, r3, lsr #20
     65c:	bf18      	it	ne
     65e:	ea95 0f0c 	teqne	r5, ip
     662:	d00c      	beq.n	67e <CONFIG_NRF_MODEM_SHMEM_CTRL_SIZE+0x196>
     664:	ea50 0641 	orrs.w	r6, r0, r1, lsl #1
     668:	bf18      	it	ne
     66a:	ea52 0643 	orrsne.w	r6, r2, r3, lsl #1
     66e:	d1d1      	bne.n	614 <CONFIG_NRF_MODEM_SHMEM_CTRL_SIZE+0x12c>
     670:	ea81 0103 	eor.w	r1, r1, r3
     674:	f001 4100 	and.w	r1, r1, #2147483648	; 0x80000000
     678:	f04f 0000 	mov.w	r0, #0
     67c:	bd70      	pop	{r4, r5, r6, pc}
     67e:	ea50 0641 	orrs.w	r6, r0, r1, lsl #1
     682:	bf06      	itte	eq
     684:	4610      	moveq	r0, r2
     686:	4619      	moveq	r1, r3
     688:	ea52 0643 	orrsne.w	r6, r2, r3, lsl #1
     68c:	d019      	beq.n	6c2 <CONFIG_NRF_MODEM_SHMEM_CTRL_SIZE+0x1da>
     68e:	ea94 0f0c 	teq	r4, ip
     692:	d102      	bne.n	69a <CONFIG_NRF_MODEM_SHMEM_CTRL_SIZE+0x1b2>
     694:	ea50 3601 	orrs.w	r6, r0, r1, lsl #12
     698:	d113      	bne.n	6c2 <CONFIG_NRF_MODEM_SHMEM_CTRL_SIZE+0x1da>
     69a:	ea95 0f0c 	teq	r5, ip
     69e:	d105      	bne.n	6ac <CONFIG_NRF_MODEM_SHMEM_CTRL_SIZE+0x1c4>
     6a0:	ea52 3603 	orrs.w	r6, r2, r3, lsl #12
     6a4:	bf1c      	itt	ne
     6a6:	4610      	movne	r0, r2
     6a8:	4619      	movne	r1, r3
     6aa:	d10a      	bne.n	6c2 <CONFIG_NRF_MODEM_SHMEM_CTRL_SIZE+0x1da>
     6ac:	ea81 0103 	eor.w	r1, r1, r3
     6b0:	f001 4100 	and.w	r1, r1, #2147483648	; 0x80000000
     6b4:	f041 41fe 	orr.w	r1, r1, #2130706432	; 0x7f000000
     6b8:	f441 0170 	orr.w	r1, r1, #15728640	; 0xf00000
     6bc:	f04f 0000 	mov.w	r0, #0
     6c0:	bd70      	pop	{r4, r5, r6, pc}
     6c2:	f041 41fe 	orr.w	r1, r1, #2130706432	; 0x7f000000
     6c6:	f441 0178 	orr.w	r1, r1, #16252928	; 0xf80000
     6ca:	bd70      	pop	{r4, r5, r6, pc}

000006cc <__aeabi_ddiv>:
     6cc:	b570      	push	{r4, r5, r6, lr}
     6ce:	f04f 0cff 	mov.w	ip, #255	; 0xff
     6d2:	f44c 6ce0 	orr.w	ip, ip, #1792	; 0x700
     6d6:	ea1c 5411 	ands.w	r4, ip, r1, lsr #20
     6da:	bf1d      	ittte	ne
     6dc:	ea1c 5513 	andsne.w	r5, ip, r3, lsr #20
     6e0:	ea94 0f0c 	teqne	r4, ip
     6e4:	ea95 0f0c 	teqne	r5, ip
     6e8:	f000 f8a7 	bleq	83a <CONFIG_ISR_STACK_SIZE+0x3a>
     6ec:	eba4 0405 	sub.w	r4, r4, r5
     6f0:	ea81 0e03 	eor.w	lr, r1, r3
     6f4:	ea52 3503 	orrs.w	r5, r2, r3, lsl #12
     6f8:	ea4f 3101 	mov.w	r1, r1, lsl #12
     6fc:	f000 8088 	beq.w	810 <CONFIG_ISR_STACK_SIZE+0x10>
     700:	ea4f 3303 	mov.w	r3, r3, lsl #12
     704:	f04f 5580 	mov.w	r5, #268435456	; 0x10000000
     708:	ea45 1313 	orr.w	r3, r5, r3, lsr #4
     70c:	ea43 6312 	orr.w	r3, r3, r2, lsr #24
     710:	ea4f 2202 	mov.w	r2, r2, lsl #8
     714:	ea45 1511 	orr.w	r5, r5, r1, lsr #4
     718:	ea45 6510 	orr.w	r5, r5, r0, lsr #24
     71c:	ea4f 2600 	mov.w	r6, r0, lsl #8
     720:	f00e 4100 	and.w	r1, lr, #2147483648	; 0x80000000
     724:	429d      	cmp	r5, r3
     726:	bf08      	it	eq
     728:	4296      	cmpeq	r6, r2
     72a:	f144 04fd 	adc.w	r4, r4, #253	; 0xfd
     72e:	f504 7440 	add.w	r4, r4, #768	; 0x300
     732:	d202      	bcs.n	73a <__aeabi_ddiv+0x6e>
     734:	085b      	lsrs	r3, r3, #1
     736:	ea4f 0232 	mov.w	r2, r2, rrx
     73a:	1ab6      	subs	r6, r6, r2
     73c:	eb65 0503 	sbc.w	r5, r5, r3
     740:	085b      	lsrs	r3, r3, #1
     742:	ea4f 0232 	mov.w	r2, r2, rrx
     746:	f44f 1080 	mov.w	r0, #1048576	; 0x100000
     74a:	f44f 2c00 	mov.w	ip, #524288	; 0x80000
     74e:	ebb6 0e02 	subs.w	lr, r6, r2
     752:	eb75 0e03 	sbcs.w	lr, r5, r3
     756:	bf22      	ittt	cs
     758:	1ab6      	subcs	r6, r6, r2
     75a:	4675      	movcs	r5, lr
     75c:	ea40 000c 	orrcs.w	r0, r0, ip
     760:	085b      	lsrs	r3, r3, #1
     762:	ea4f 0232 	mov.w	r2, r2, rrx
     766:	ebb6 0e02 	subs.w	lr, r6, r2
     76a:	eb75 0e03 	sbcs.w	lr, r5, r3
     76e:	bf22      	ittt	cs
     770:	1ab6      	subcs	r6, r6, r2
     772:	4675      	movcs	r5, lr
     774:	ea40 005c 	orrcs.w	r0, r0, ip, lsr #1
     778:	085b      	lsrs	r3, r3, #1
     77a:	ea4f 0232 	mov.w	r2, r2, rrx
     77e:	ebb6 0e02 	subs.w	lr, r6, r2
     782:	eb75 0e03 	sbcs.w	lr, r5, r3
     786:	bf22      	ittt	cs
     788:	1ab6      	subcs	r6, r6, r2
     78a:	4675      	movcs	r5, lr
     78c:	ea40 009c 	orrcs.w	r0, r0, ip, lsr #2
     790:	085b      	lsrs	r3, r3, #1
     792:	ea4f 0232 	mov.w	r2, r2, rrx
     796:	ebb6 0e02 	subs.w	lr, r6, r2
     79a:	eb75 0e03 	sbcs.w	lr, r5, r3
     79e:	bf22      	ittt	cs
     7a0:	1ab6      	subcs	r6, r6, r2
     7a2:	4675      	movcs	r5, lr
     7a4:	ea40 00dc 	orrcs.w	r0, r0, ip, lsr #3
     7a8:	ea55 0e06 	orrs.w	lr, r5, r6
     7ac:	d018      	beq.n	7e0 <__aeabi_ddiv+0x114>
     7ae:	ea4f 1505 	mov.w	r5, r5, lsl #4
     7b2:	ea45 7516 	orr.w	r5, r5, r6, lsr #28
     7b6:	ea4f 1606 	mov.w	r6, r6, lsl #4
     7ba:	ea4f 03c3 	mov.w	r3, r3, lsl #3
     7be:	ea43 7352 	orr.w	r3, r3, r2, lsr #29
     7c2:	ea4f 02c2 	mov.w	r2, r2, lsl #3
     7c6:	ea5f 1c1c 	movs.w	ip, ip, lsr #4
     7ca:	d1c0      	bne.n	74e <__aeabi_ddiv+0x82>
     7cc:	f411 1f80 	tst.w	r1, #1048576	; 0x100000
     7d0:	d10b      	bne.n	7ea <__aeabi_ddiv+0x11e>
     7d2:	ea41 0100 	orr.w	r1, r1, r0
     7d6:	f04f 0000 	mov.w	r0, #0
     7da:	f04f 4c00 	mov.w	ip, #2147483648	; 0x80000000
     7de:	e7b6      	b.n	74e <__aeabi_ddiv+0x82>
     7e0:	f411 1f80 	tst.w	r1, #1048576	; 0x100000
     7e4:	bf04      	itt	eq
     7e6:	4301      	orreq	r1, r0
     7e8:	2000      	moveq	r0, #0
     7ea:	f1b4 0cfd 	subs.w	ip, r4, #253	; 0xfd
     7ee:	bf88      	it	hi
     7f0:	f5bc 6fe0 	cmphi.w	ip, #1792	; 0x700
     7f4:	f63f aeaf 	bhi.w	556 <CONFIG_NRF_MODEM_SHMEM_CTRL_SIZE+0x6e>
     7f8:	ebb5 0c03 	subs.w	ip, r5, r3
     7fc:	bf04      	itt	eq
     7fe:	ebb6 0c02 	subseq.w	ip, r6, r2
     802:	ea5f 0c50 	movseq.w	ip, r0, lsr #1
     806:	f150 0000 	adcs.w	r0, r0, #0
     80a:	eb41 5104 	adc.w	r1, r1, r4, lsl #20
     80e:	bd70      	pop	{r4, r5, r6, pc}
     810:	f00e 4e00 	and.w	lr, lr, #2147483648	; 0x80000000
     814:	ea4e 3111 	orr.w	r1, lr, r1, lsr #12
     818:	eb14 045c 	adds.w	r4, r4, ip, lsr #1
     81c:	bfc2      	ittt	gt
     81e:	ebd4 050c 	rsbsgt	r5, r4, ip
     822:	ea41 5104 	orrgt.w	r1, r1, r4, lsl #20
     826:	bd70      	popgt	{r4, r5, r6, pc}
     828:	f441 1180 	orr.w	r1, r1, #1048576	; 0x100000
     82c:	f04f 0e00 	mov.w	lr, #0
     830:	3c01      	subs	r4, #1
     832:	e690      	b.n	556 <CONFIG_NRF_MODEM_SHMEM_CTRL_SIZE+0x6e>
     834:	ea45 0e06 	orr.w	lr, r5, r6
     838:	e68d      	b.n	556 <CONFIG_NRF_MODEM_SHMEM_CTRL_SIZE+0x6e>
     83a:	ea0c 5513 	and.w	r5, ip, r3, lsr #20
     83e:	ea94 0f0c 	teq	r4, ip
     842:	bf08      	it	eq
     844:	ea95 0f0c 	teqeq	r5, ip
     848:	f43f af3b 	beq.w	6c2 <CONFIG_NRF_MODEM_SHMEM_CTRL_SIZE+0x1da>
     84c:	ea94 0f0c 	teq	r4, ip
     850:	d10a      	bne.n	868 <CONFIG_ISR_STACK_SIZE+0x68>
     852:	ea50 3401 	orrs.w	r4, r0, r1, lsl #12
     856:	f47f af34 	bne.w	6c2 <CONFIG_NRF_MODEM_SHMEM_CTRL_SIZE+0x1da>
     85a:	ea95 0f0c 	teq	r5, ip
     85e:	f47f af25 	bne.w	6ac <CONFIG_NRF_MODEM_SHMEM_CTRL_SIZE+0x1c4>
     862:	4610      	mov	r0, r2
     864:	4619      	mov	r1, r3
     866:	e72c      	b.n	6c2 <CONFIG_NRF_MODEM_SHMEM_CTRL_SIZE+0x1da>
     868:	ea95 0f0c 	teq	r5, ip
     86c:	d106      	bne.n	87c <CONFIG_ISR_STACK_SIZE+0x7c>
     86e:	ea52 3503 	orrs.w	r5, r2, r3, lsl #12
     872:	f43f aefd 	beq.w	670 <CONFIG_NRF_MODEM_SHMEM_CTRL_SIZE+0x188>
     876:	4610      	mov	r0, r2
     878:	4619      	mov	r1, r3
     87a:	e722      	b.n	6c2 <CONFIG_NRF_MODEM_SHMEM_CTRL_SIZE+0x1da>
     87c:	ea50 0641 	orrs.w	r6, r0, r1, lsl #1
     880:	bf18      	it	ne
     882:	ea52 0643 	orrsne.w	r6, r2, r3, lsl #1
     886:	f47f aec5 	bne.w	614 <CONFIG_NRF_MODEM_SHMEM_CTRL_SIZE+0x12c>
     88a:	ea50 0441 	orrs.w	r4, r0, r1, lsl #1
     88e:	f47f af0d 	bne.w	6ac <CONFIG_NRF_MODEM_SHMEM_CTRL_SIZE+0x1c4>
     892:	ea52 0543 	orrs.w	r5, r2, r3, lsl #1
     896:	f47f aeeb 	bne.w	670 <CONFIG_NRF_MODEM_SHMEM_CTRL_SIZE+0x188>
     89a:	e712      	b.n	6c2 <CONFIG_NRF_MODEM_SHMEM_CTRL_SIZE+0x1da>

0000089c <__aeabi_d2iz>:
     89c:	ea4f 0241 	mov.w	r2, r1, lsl #1
     8a0:	f512 1200 	adds.w	r2, r2, #2097152	; 0x200000
     8a4:	d215      	bcs.n	8d2 <__aeabi_d2iz+0x36>
     8a6:	d511      	bpl.n	8cc <__aeabi_d2iz+0x30>
     8a8:	f46f 7378 	mvn.w	r3, #992	; 0x3e0
     8ac:	ebb3 5262 	subs.w	r2, r3, r2, asr #21
     8b0:	d912      	bls.n	8d8 <__aeabi_d2iz+0x3c>
     8b2:	ea4f 23c1 	mov.w	r3, r1, lsl #11
     8b6:	f043 4300 	orr.w	r3, r3, #2147483648	; 0x80000000
     8ba:	ea43 5350 	orr.w	r3, r3, r0, lsr #21
     8be:	f011 4f00 	tst.w	r1, #2147483648	; 0x80000000
     8c2:	fa23 f002 	lsr.w	r0, r3, r2
     8c6:	bf18      	it	ne
     8c8:	4240      	negne	r0, r0
     8ca:	4770      	bx	lr
     8cc:	f04f 0000 	mov.w	r0, #0
     8d0:	4770      	bx	lr
     8d2:	ea50 3001 	orrs.w	r0, r0, r1, lsl #12
     8d6:	d105      	bne.n	8e4 <__aeabi_d2iz+0x48>
     8d8:	f011 4000 	ands.w	r0, r1, #2147483648	; 0x80000000
     8dc:	bf08      	it	eq
     8de:	f06f 4000 	mvneq.w	r0, #2147483648	; 0x80000000
     8e2:	4770      	bx	lr
     8e4:	f04f 0000 	mov.w	r0, #0
     8e8:	4770      	bx	lr
     8ea:	bf00      	nop

000008ec <__aeabi_d2uiz>:
     8ec:	004a      	lsls	r2, r1, #1
     8ee:	d211      	bcs.n	914 <__aeabi_d2uiz+0x28>
     8f0:	f512 1200 	adds.w	r2, r2, #2097152	; 0x200000
     8f4:	d211      	bcs.n	91a <__aeabi_d2uiz+0x2e>
     8f6:	d50d      	bpl.n	914 <__aeabi_d2uiz+0x28>
     8f8:	f46f 7378 	mvn.w	r3, #992	; 0x3e0
     8fc:	ebb3 5262 	subs.w	r2, r3, r2, asr #21
     900:	d40e      	bmi.n	920 <__aeabi_d2uiz+0x34>
     902:	ea4f 23c1 	mov.w	r3, r1, lsl #11
     906:	f043 4300 	orr.w	r3, r3, #2147483648	; 0x80000000
     90a:	ea43 5350 	orr.w	r3, r3, r0, lsr #21
     90e:	fa23 f002 	lsr.w	r0, r3, r2
     912:	4770      	bx	lr
     914:	f04f 0000 	mov.w	r0, #0
     918:	4770      	bx	lr
     91a:	ea50 3001 	orrs.w	r0, r0, r1, lsl #12
     91e:	d102      	bne.n	926 <__aeabi_d2uiz+0x3a>
     920:	f04f 30ff 	mov.w	r0, #4294967295
     924:	4770      	bx	lr
     926:	f04f 0000 	mov.w	r0, #0
     92a:	4770      	bx	lr

0000092c <__aeabi_frsub>:
     92c:	f080 4000 	eor.w	r0, r0, #2147483648	; 0x80000000
     930:	e002      	b.n	938 <__addsf3>
     932:	bf00      	nop

00000934 <__aeabi_fsub>:
     934:	f081 4100 	eor.w	r1, r1, #2147483648	; 0x80000000

00000938 <__addsf3>:
     938:	0042      	lsls	r2, r0, #1
     93a:	bf1f      	itttt	ne
     93c:	ea5f 0341 	movsne.w	r3, r1, lsl #1
     940:	ea92 0f03 	teqne	r2, r3
     944:	ea7f 6c22 	mvnsne.w	ip, r2, asr #24
     948:	ea7f 6c23 	mvnsne.w	ip, r3, asr #24
     94c:	d06a      	beq.n	a24 <__addsf3+0xec>
     94e:	ea4f 6212 	mov.w	r2, r2, lsr #24
     952:	ebd2 6313 	rsbs	r3, r2, r3, lsr #24
     956:	bfc1      	itttt	gt
     958:	18d2      	addgt	r2, r2, r3
     95a:	4041      	eorgt	r1, r0
     95c:	4048      	eorgt	r0, r1
     95e:	4041      	eorgt	r1, r0
     960:	bfb8      	it	lt
     962:	425b      	neglt	r3, r3
     964:	2b19      	cmp	r3, #25
     966:	bf88      	it	hi
     968:	4770      	bxhi	lr
     96a:	f010 4f00 	tst.w	r0, #2147483648	; 0x80000000
     96e:	f440 0000 	orr.w	r0, r0, #8388608	; 0x800000
     972:	f020 407f 	bic.w	r0, r0, #4278190080	; 0xff000000
     976:	bf18      	it	ne
     978:	4240      	negne	r0, r0
     97a:	f011 4f00 	tst.w	r1, #2147483648	; 0x80000000
     97e:	f441 0100 	orr.w	r1, r1, #8388608	; 0x800000
     982:	f021 417f 	bic.w	r1, r1, #4278190080	; 0xff000000
     986:	bf18      	it	ne
     988:	4249      	negne	r1, r1
     98a:	ea92 0f03 	teq	r2, r3
     98e:	d03f      	beq.n	a10 <__addsf3+0xd8>
     990:	f1a2 0201 	sub.w	r2, r2, #1
     994:	fa41 fc03 	asr.w	ip, r1, r3
     998:	eb10 000c 	adds.w	r0, r0, ip
     99c:	f1c3 0320 	rsb	r3, r3, #32
     9a0:	fa01 f103 	lsl.w	r1, r1, r3
     9a4:	f000 4300 	and.w	r3, r0, #2147483648	; 0x80000000
     9a8:	d502      	bpl.n	9b0 <__addsf3+0x78>
     9aa:	4249      	negs	r1, r1
     9ac:	eb60 0040 	sbc.w	r0, r0, r0, lsl #1
     9b0:	f5b0 0f00 	cmp.w	r0, #8388608	; 0x800000
     9b4:	d313      	bcc.n	9de <__addsf3+0xa6>
     9b6:	f1b0 7f80 	cmp.w	r0, #16777216	; 0x1000000
     9ba:	d306      	bcc.n	9ca <__addsf3+0x92>
     9bc:	0840      	lsrs	r0, r0, #1
     9be:	ea4f 0131 	mov.w	r1, r1, rrx
     9c2:	f102 0201 	add.w	r2, r2, #1
     9c6:	2afe      	cmp	r2, #254	; 0xfe
     9c8:	d251      	bcs.n	a6e <__addsf3+0x136>
     9ca:	f1b1 4f00 	cmp.w	r1, #2147483648	; 0x80000000
     9ce:	eb40 50c2 	adc.w	r0, r0, r2, lsl #23
     9d2:	bf08      	it	eq
     9d4:	f020 0001 	biceq.w	r0, r0, #1
     9d8:	ea40 0003 	orr.w	r0, r0, r3
     9dc:	4770      	bx	lr
     9de:	0049      	lsls	r1, r1, #1
     9e0:	eb40 0000 	adc.w	r0, r0, r0
     9e4:	3a01      	subs	r2, #1
     9e6:	bf28      	it	cs
     9e8:	f5b0 0f00 	cmpcs.w	r0, #8388608	; 0x800000
     9ec:	d2ed      	bcs.n	9ca <__addsf3+0x92>
     9ee:	fab0 fc80 	clz	ip, r0
     9f2:	f1ac 0c08 	sub.w	ip, ip, #8
     9f6:	ebb2 020c 	subs.w	r2, r2, ip
     9fa:	fa00 f00c 	lsl.w	r0, r0, ip
     9fe:	bfaa      	itet	ge
     a00:	eb00 50c2 	addge.w	r0, r0, r2, lsl #23
     a04:	4252      	neglt	r2, r2
     a06:	4318      	orrge	r0, r3
     a08:	bfbc      	itt	lt
     a0a:	40d0      	lsrlt	r0, r2
     a0c:	4318      	orrlt	r0, r3
     a0e:	4770      	bx	lr
     a10:	f092 0f00 	teq	r2, #0
     a14:	f481 0100 	eor.w	r1, r1, #8388608	; 0x800000
     a18:	bf06      	itte	eq
     a1a:	f480 0000 	eoreq.w	r0, r0, #8388608	; 0x800000
     a1e:	3201      	addeq	r2, #1
     a20:	3b01      	subne	r3, #1
     a22:	e7b5      	b.n	990 <__addsf3+0x58>
     a24:	ea4f 0341 	mov.w	r3, r1, lsl #1
     a28:	ea7f 6c22 	mvns.w	ip, r2, asr #24
     a2c:	bf18      	it	ne
     a2e:	ea7f 6c23 	mvnsne.w	ip, r3, asr #24
     a32:	d021      	beq.n	a78 <__addsf3+0x140>
     a34:	ea92 0f03 	teq	r2, r3
     a38:	d004      	beq.n	a44 <__addsf3+0x10c>
     a3a:	f092 0f00 	teq	r2, #0
     a3e:	bf08      	it	eq
     a40:	4608      	moveq	r0, r1
     a42:	4770      	bx	lr
     a44:	ea90 0f01 	teq	r0, r1
     a48:	bf1c      	itt	ne
     a4a:	2000      	movne	r0, #0
     a4c:	4770      	bxne	lr
     a4e:	f012 4f7f 	tst.w	r2, #4278190080	; 0xff000000
     a52:	d104      	bne.n	a5e <__addsf3+0x126>
     a54:	0040      	lsls	r0, r0, #1
     a56:	bf28      	it	cs
     a58:	f040 4000 	orrcs.w	r0, r0, #2147483648	; 0x80000000
     a5c:	4770      	bx	lr
     a5e:	f112 7200 	adds.w	r2, r2, #33554432	; 0x2000000
     a62:	bf3c      	itt	cc
     a64:	f500 0000 	addcc.w	r0, r0, #8388608	; 0x800000
     a68:	4770      	bxcc	lr
     a6a:	f000 4300 	and.w	r3, r0, #2147483648	; 0x80000000
     a6e:	f043 40fe 	orr.w	r0, r3, #2130706432	; 0x7f000000
     a72:	f440 0000 	orr.w	r0, r0, #8388608	; 0x800000
     a76:	4770      	bx	lr
     a78:	ea7f 6222 	mvns.w	r2, r2, asr #24
     a7c:	bf16      	itet	ne
     a7e:	4608      	movne	r0, r1
     a80:	ea7f 6323 	mvnseq.w	r3, r3, asr #24
     a84:	4601      	movne	r1, r0
     a86:	0242      	lsls	r2, r0, #9
     a88:	bf06      	itte	eq
     a8a:	ea5f 2341 	movseq.w	r3, r1, lsl #9
     a8e:	ea90 0f01 	teqeq	r0, r1
     a92:	f440 0080 	orrne.w	r0, r0, #4194304	; 0x400000
     a96:	4770      	bx	lr

00000a98 <__aeabi_ui2f>:
     a98:	f04f 0300 	mov.w	r3, #0
     a9c:	e004      	b.n	aa8 <__aeabi_i2f+0x8>
     a9e:	bf00      	nop

00000aa0 <__aeabi_i2f>:
     aa0:	f010 4300 	ands.w	r3, r0, #2147483648	; 0x80000000
     aa4:	bf48      	it	mi
     aa6:	4240      	negmi	r0, r0
     aa8:	ea5f 0c00 	movs.w	ip, r0
     aac:	bf08      	it	eq
     aae:	4770      	bxeq	lr
     ab0:	f043 4396 	orr.w	r3, r3, #1258291200	; 0x4b000000
     ab4:	4601      	mov	r1, r0
     ab6:	f04f 0000 	mov.w	r0, #0
     aba:	e01c      	b.n	af6 <__aeabi_l2f+0x2a>

00000abc <__aeabi_ul2f>:
     abc:	ea50 0201 	orrs.w	r2, r0, r1
     ac0:	bf08      	it	eq
     ac2:	4770      	bxeq	lr
     ac4:	f04f 0300 	mov.w	r3, #0
     ac8:	e00a      	b.n	ae0 <__aeabi_l2f+0x14>
     aca:	bf00      	nop

00000acc <__aeabi_l2f>:
     acc:	ea50 0201 	orrs.w	r2, r0, r1
     ad0:	bf08      	it	eq
     ad2:	4770      	bxeq	lr
     ad4:	f011 4300 	ands.w	r3, r1, #2147483648	; 0x80000000
     ad8:	d502      	bpl.n	ae0 <__aeabi_l2f+0x14>
     ada:	4240      	negs	r0, r0
     adc:	eb61 0141 	sbc.w	r1, r1, r1, lsl #1
     ae0:	ea5f 0c01 	movs.w	ip, r1
     ae4:	bf02      	ittt	eq
     ae6:	4684      	moveq	ip, r0
     ae8:	4601      	moveq	r1, r0
     aea:	2000      	moveq	r0, #0
     aec:	f043 43b6 	orr.w	r3, r3, #1526726656	; 0x5b000000
     af0:	bf08      	it	eq
     af2:	f1a3 5380 	subeq.w	r3, r3, #268435456	; 0x10000000
     af6:	f5a3 0300 	sub.w	r3, r3, #8388608	; 0x800000
     afa:	fabc f28c 	clz	r2, ip
     afe:	3a08      	subs	r2, #8
     b00:	eba3 53c2 	sub.w	r3, r3, r2, lsl #23
     b04:	db10      	blt.n	b28 <__aeabi_l2f+0x5c>
     b06:	fa01 fc02 	lsl.w	ip, r1, r2
     b0a:	4463      	add	r3, ip
     b0c:	fa00 fc02 	lsl.w	ip, r0, r2
     b10:	f1c2 0220 	rsb	r2, r2, #32
     b14:	f1bc 4f00 	cmp.w	ip, #2147483648	; 0x80000000
     b18:	fa20 f202 	lsr.w	r2, r0, r2
     b1c:	eb43 0002 	adc.w	r0, r3, r2
     b20:	bf08      	it	eq
     b22:	f020 0001 	biceq.w	r0, r0, #1
     b26:	4770      	bx	lr
     b28:	f102 0220 	add.w	r2, r2, #32
     b2c:	fa01 fc02 	lsl.w	ip, r1, r2
     b30:	f1c2 0220 	rsb	r2, r2, #32
     b34:	ea50 004c 	orrs.w	r0, r0, ip, lsl #1
     b38:	fa21 f202 	lsr.w	r2, r1, r2
     b3c:	eb43 0002 	adc.w	r0, r3, r2
     b40:	bf08      	it	eq
     b42:	ea20 70dc 	biceq.w	r0, r0, ip, lsr #31
     b46:	4770      	bx	lr

00000b48 <__aeabi_fmul>:
     b48:	f04f 0cff 	mov.w	ip, #255	; 0xff
     b4c:	ea1c 52d0 	ands.w	r2, ip, r0, lsr #23
     b50:	bf1e      	ittt	ne
     b52:	ea1c 53d1 	andsne.w	r3, ip, r1, lsr #23
     b56:	ea92 0f0c 	teqne	r2, ip
     b5a:	ea93 0f0c 	teqne	r3, ip
     b5e:	d06f      	beq.n	c40 <__aeabi_fmul+0xf8>
     b60:	441a      	add	r2, r3
     b62:	ea80 0c01 	eor.w	ip, r0, r1
     b66:	0240      	lsls	r0, r0, #9
     b68:	bf18      	it	ne
     b6a:	ea5f 2141 	movsne.w	r1, r1, lsl #9
     b6e:	d01e      	beq.n	bae <__aeabi_fmul+0x66>
     b70:	f04f 6300 	mov.w	r3, #134217728	; 0x8000000
     b74:	ea43 1050 	orr.w	r0, r3, r0, lsr #5
     b78:	ea43 1151 	orr.w	r1, r3, r1, lsr #5
     b7c:	fba0 3101 	umull	r3, r1, r0, r1
     b80:	f00c 4000 	and.w	r0, ip, #2147483648	; 0x80000000
     b84:	f5b1 0f00 	cmp.w	r1, #8388608	; 0x800000
     b88:	bf3e      	ittt	cc
     b8a:	0049      	lslcc	r1, r1, #1
     b8c:	ea41 71d3 	orrcc.w	r1, r1, r3, lsr #31
     b90:	005b      	lslcc	r3, r3, #1
     b92:	ea40 0001 	orr.w	r0, r0, r1
     b96:	f162 027f 	sbc.w	r2, r2, #127	; 0x7f
     b9a:	2afd      	cmp	r2, #253	; 0xfd
     b9c:	d81d      	bhi.n	bda <__aeabi_fmul+0x92>
     b9e:	f1b3 4f00 	cmp.w	r3, #2147483648	; 0x80000000
     ba2:	eb40 50c2 	adc.w	r0, r0, r2, lsl #23
     ba6:	bf08      	it	eq
     ba8:	f020 0001 	biceq.w	r0, r0, #1
     bac:	4770      	bx	lr
     bae:	f090 0f00 	teq	r0, #0
     bb2:	f00c 4c00 	and.w	ip, ip, #2147483648	; 0x80000000
     bb6:	bf08      	it	eq
     bb8:	0249      	lsleq	r1, r1, #9
     bba:	ea4c 2050 	orr.w	r0, ip, r0, lsr #9
     bbe:	ea40 2051 	orr.w	r0, r0, r1, lsr #9
     bc2:	3a7f      	subs	r2, #127	; 0x7f
     bc4:	bfc2      	ittt	gt
     bc6:	f1d2 03ff 	rsbsgt	r3, r2, #255	; 0xff
     bca:	ea40 50c2 	orrgt.w	r0, r0, r2, lsl #23
     bce:	4770      	bxgt	lr
     bd0:	f440 0000 	orr.w	r0, r0, #8388608	; 0x800000
     bd4:	f04f 0300 	mov.w	r3, #0
     bd8:	3a01      	subs	r2, #1
     bda:	dc5d      	bgt.n	c98 <__aeabi_fmul+0x150>
     bdc:	f112 0f19 	cmn.w	r2, #25
     be0:	bfdc      	itt	le
     be2:	f000 4000 	andle.w	r0, r0, #2147483648	; 0x80000000
     be6:	4770      	bxle	lr
     be8:	f1c2 0200 	rsb	r2, r2, #0
     bec:	0041      	lsls	r1, r0, #1
     bee:	fa21 f102 	lsr.w	r1, r1, r2
     bf2:	f1c2 0220 	rsb	r2, r2, #32
     bf6:	fa00 fc02 	lsl.w	ip, r0, r2
     bfa:	ea5f 0031 	movs.w	r0, r1, rrx
     bfe:	f140 0000 	adc.w	r0, r0, #0
     c02:	ea53 034c 	orrs.w	r3, r3, ip, lsl #1
     c06:	bf08      	it	eq
     c08:	ea20 70dc 	biceq.w	r0, r0, ip, lsr #31
     c0c:	4770      	bx	lr
     c0e:	f092 0f00 	teq	r2, #0
     c12:	f000 4c00 	and.w	ip, r0, #2147483648	; 0x80000000
     c16:	bf02      	ittt	eq
     c18:	0040      	lsleq	r0, r0, #1
     c1a:	f410 0f00 	tsteq.w	r0, #8388608	; 0x800000
     c1e:	3a01      	subeq	r2, #1
     c20:	d0f9      	beq.n	c16 <__aeabi_fmul+0xce>
     c22:	ea40 000c 	orr.w	r0, r0, ip
     c26:	f093 0f00 	teq	r3, #0
     c2a:	f001 4c00 	and.w	ip, r1, #2147483648	; 0x80000000
     c2e:	bf02      	ittt	eq
     c30:	0049      	lsleq	r1, r1, #1
     c32:	f411 0f00 	tsteq.w	r1, #8388608	; 0x800000
     c36:	3b01      	subeq	r3, #1
     c38:	d0f9      	beq.n	c2e <__aeabi_fmul+0xe6>
     c3a:	ea41 010c 	orr.w	r1, r1, ip
     c3e:	e78f      	b.n	b60 <__aeabi_fmul+0x18>
     c40:	ea0c 53d1 	and.w	r3, ip, r1, lsr #23
     c44:	ea92 0f0c 	teq	r2, ip
     c48:	bf18      	it	ne
     c4a:	ea93 0f0c 	teqne	r3, ip
     c4e:	d00a      	beq.n	c66 <__aeabi_fmul+0x11e>
     c50:	f030 4c00 	bics.w	ip, r0, #2147483648	; 0x80000000
     c54:	bf18      	it	ne
     c56:	f031 4c00 	bicsne.w	ip, r1, #2147483648	; 0x80000000
     c5a:	d1d8      	bne.n	c0e <__aeabi_fmul+0xc6>
     c5c:	ea80 0001 	eor.w	r0, r0, r1
     c60:	f000 4000 	and.w	r0, r0, #2147483648	; 0x80000000
     c64:	4770      	bx	lr
     c66:	f090 0f00 	teq	r0, #0
     c6a:	bf17      	itett	ne
     c6c:	f090 4f00 	teqne	r0, #2147483648	; 0x80000000
     c70:	4608      	moveq	r0, r1
     c72:	f091 0f00 	teqne	r1, #0
     c76:	f091 4f00 	teqne	r1, #2147483648	; 0x80000000
     c7a:	d014      	beq.n	ca6 <__aeabi_fmul+0x15e>
     c7c:	ea92 0f0c 	teq	r2, ip
     c80:	d101      	bne.n	c86 <__aeabi_fmul+0x13e>
     c82:	0242      	lsls	r2, r0, #9
     c84:	d10f      	bne.n	ca6 <__aeabi_fmul+0x15e>
     c86:	ea93 0f0c 	teq	r3, ip
     c8a:	d103      	bne.n	c94 <__aeabi_fmul+0x14c>
     c8c:	024b      	lsls	r3, r1, #9
     c8e:	bf18      	it	ne
     c90:	4608      	movne	r0, r1
     c92:	d108      	bne.n	ca6 <__aeabi_fmul+0x15e>
     c94:	ea80 0001 	eor.w	r0, r0, r1
     c98:	f000 4000 	and.w	r0, r0, #2147483648	; 0x80000000
     c9c:	f040 40fe 	orr.w	r0, r0, #2130706432	; 0x7f000000
     ca0:	f440 0000 	orr.w	r0, r0, #8388608	; 0x800000
     ca4:	4770      	bx	lr
     ca6:	f040 40fe 	orr.w	r0, r0, #2130706432	; 0x7f000000
     caa:	f440 0040 	orr.w	r0, r0, #12582912	; 0xc00000
     cae:	4770      	bx	lr

00000cb0 <__aeabi_fdiv>:
     cb0:	f04f 0cff 	mov.w	ip, #255	; 0xff
     cb4:	ea1c 52d0 	ands.w	r2, ip, r0, lsr #23
     cb8:	bf1e      	ittt	ne
     cba:	ea1c 53d1 	andsne.w	r3, ip, r1, lsr #23
     cbe:	ea92 0f0c 	teqne	r2, ip
     cc2:	ea93 0f0c 	teqne	r3, ip
     cc6:	d069      	beq.n	d9c <__aeabi_fdiv+0xec>
     cc8:	eba2 0203 	sub.w	r2, r2, r3
     ccc:	ea80 0c01 	eor.w	ip, r0, r1
     cd0:	0249      	lsls	r1, r1, #9
     cd2:	ea4f 2040 	mov.w	r0, r0, lsl #9
     cd6:	d037      	beq.n	d48 <__aeabi_fdiv+0x98>
     cd8:	f04f 5380 	mov.w	r3, #268435456	; 0x10000000
     cdc:	ea43 1111 	orr.w	r1, r3, r1, lsr #4
     ce0:	ea43 1310 	orr.w	r3, r3, r0, lsr #4
     ce4:	f00c 4000 	and.w	r0, ip, #2147483648	; 0x80000000
     ce8:	428b      	cmp	r3, r1
     cea:	bf38      	it	cc
     cec:	005b      	lslcc	r3, r3, #1
     cee:	f142 027d 	adc.w	r2, r2, #125	; 0x7d
     cf2:	f44f 0c00 	mov.w	ip, #8388608	; 0x800000
     cf6:	428b      	cmp	r3, r1
     cf8:	bf24      	itt	cs
     cfa:	1a5b      	subcs	r3, r3, r1
     cfc:	ea40 000c 	orrcs.w	r0, r0, ip
     d00:	ebb3 0f51 	cmp.w	r3, r1, lsr #1
     d04:	bf24      	itt	cs
     d06:	eba3 0351 	subcs.w	r3, r3, r1, lsr #1
     d0a:	ea40 005c 	orrcs.w	r0, r0, ip, lsr #1
     d0e:	ebb3 0f91 	cmp.w	r3, r1, lsr #2
     d12:	bf24      	itt	cs
     d14:	eba3 0391 	subcs.w	r3, r3, r1, lsr #2
     d18:	ea40 009c 	orrcs.w	r0, r0, ip, lsr #2
     d1c:	ebb3 0fd1 	cmp.w	r3, r1, lsr #3
     d20:	bf24      	itt	cs
     d22:	eba3 03d1 	subcs.w	r3, r3, r1, lsr #3
     d26:	ea40 00dc 	orrcs.w	r0, r0, ip, lsr #3
     d2a:	011b      	lsls	r3, r3, #4
     d2c:	bf18      	it	ne
     d2e:	ea5f 1c1c 	movsne.w	ip, ip, lsr #4
     d32:	d1e0      	bne.n	cf6 <__aeabi_fdiv+0x46>
     d34:	2afd      	cmp	r2, #253	; 0xfd
     d36:	f63f af50 	bhi.w	bda <__aeabi_fmul+0x92>
     d3a:	428b      	cmp	r3, r1
     d3c:	eb40 50c2 	adc.w	r0, r0, r2, lsl #23
     d40:	bf08      	it	eq
     d42:	f020 0001 	biceq.w	r0, r0, #1
     d46:	4770      	bx	lr
     d48:	f00c 4c00 	and.w	ip, ip, #2147483648	; 0x80000000
     d4c:	ea4c 2050 	orr.w	r0, ip, r0, lsr #9
     d50:	327f      	adds	r2, #127	; 0x7f
     d52:	bfc2      	ittt	gt
     d54:	f1d2 03ff 	rsbsgt	r3, r2, #255	; 0xff
     d58:	ea40 50c2 	orrgt.w	r0, r0, r2, lsl #23
     d5c:	4770      	bxgt	lr
     d5e:	f440 0000 	orr.w	r0, r0, #8388608	; 0x800000
     d62:	f04f 0300 	mov.w	r3, #0
     d66:	3a01      	subs	r2, #1
     d68:	e737      	b.n	bda <__aeabi_fmul+0x92>
     d6a:	f092 0f00 	teq	r2, #0
     d6e:	f000 4c00 	and.w	ip, r0, #2147483648	; 0x80000000
     d72:	bf02      	ittt	eq
     d74:	0040      	lsleq	r0, r0, #1
     d76:	f410 0f00 	tsteq.w	r0, #8388608	; 0x800000
     d7a:	3a01      	subeq	r2, #1
     d7c:	d0f9      	beq.n	d72 <__aeabi_fdiv+0xc2>
     d7e:	ea40 000c 	orr.w	r0, r0, ip
     d82:	f093 0f00 	teq	r3, #0
     d86:	f001 4c00 	and.w	ip, r1, #2147483648	; 0x80000000
     d8a:	bf02      	ittt	eq
     d8c:	0049      	lsleq	r1, r1, #1
     d8e:	f411 0f00 	tsteq.w	r1, #8388608	; 0x800000
     d92:	3b01      	subeq	r3, #1
     d94:	d0f9      	beq.n	d8a <__aeabi_fdiv+0xda>
     d96:	ea41 010c 	orr.w	r1, r1, ip
     d9a:	e795      	b.n	cc8 <__aeabi_fdiv+0x18>
     d9c:	ea0c 53d1 	and.w	r3, ip, r1, lsr #23
     da0:	ea92 0f0c 	teq	r2, ip
     da4:	d108      	bne.n	db8 <__aeabi_fdiv+0x108>
     da6:	0242      	lsls	r2, r0, #9
     da8:	f47f af7d 	bne.w	ca6 <__aeabi_fmul+0x15e>
     dac:	ea93 0f0c 	teq	r3, ip
     db0:	f47f af70 	bne.w	c94 <__aeabi_fmul+0x14c>
     db4:	4608      	mov	r0, r1
     db6:	e776      	b.n	ca6 <__aeabi_fmul+0x15e>
     db8:	ea93 0f0c 	teq	r3, ip
     dbc:	d104      	bne.n	dc8 <__aeabi_fdiv+0x118>
     dbe:	024b      	lsls	r3, r1, #9
     dc0:	f43f af4c 	beq.w	c5c <__aeabi_fmul+0x114>
     dc4:	4608      	mov	r0, r1
     dc6:	e76e      	b.n	ca6 <__aeabi_fmul+0x15e>
     dc8:	f030 4c00 	bics.w	ip, r0, #2147483648	; 0x80000000
     dcc:	bf18      	it	ne
     dce:	f031 4c00 	bicsne.w	ip, r1, #2147483648	; 0x80000000
     dd2:	d1ca      	bne.n	d6a <__aeabi_fdiv+0xba>
     dd4:	f030 4200 	bics.w	r2, r0, #2147483648	; 0x80000000
     dd8:	f47f af5c 	bne.w	c94 <__aeabi_fmul+0x14c>
     ddc:	f031 4300 	bics.w	r3, r1, #2147483648	; 0x80000000
     de0:	f47f af3c 	bne.w	c5c <__aeabi_fmul+0x114>
     de4:	e75f      	b.n	ca6 <__aeabi_fmul+0x15e>
     de6:	bf00      	nop

00000de8 <__aeabi_f2uiz>:
     de8:	0042      	lsls	r2, r0, #1
     dea:	d20e      	bcs.n	e0a <__aeabi_f2uiz+0x22>
     dec:	f1b2 4ffe 	cmp.w	r2, #2130706432	; 0x7f000000
     df0:	d30b      	bcc.n	e0a <__aeabi_f2uiz+0x22>
     df2:	f04f 039e 	mov.w	r3, #158	; 0x9e
     df6:	ebb3 6212 	subs.w	r2, r3, r2, lsr #24
     dfa:	d409      	bmi.n	e10 <__aeabi_f2uiz+0x28>
     dfc:	ea4f 2300 	mov.w	r3, r0, lsl #8
     e00:	f043 4300 	orr.w	r3, r3, #2147483648	; 0x80000000
     e04:	fa23 f002 	lsr.w	r0, r3, r2
     e08:	4770      	bx	lr
     e0a:	f04f 0000 	mov.w	r0, #0
     e0e:	4770      	bx	lr
     e10:	f112 0f61 	cmn.w	r2, #97	; 0x61
     e14:	d101      	bne.n	e1a <__aeabi_f2uiz+0x32>
     e16:	0242      	lsls	r2, r0, #9
     e18:	d102      	bne.n	e20 <__aeabi_f2uiz+0x38>
     e1a:	f04f 30ff 	mov.w	r0, #4294967295
     e1e:	4770      	bx	lr
     e20:	f04f 0000 	mov.w	r0, #0
     e24:	4770      	bx	lr
     e26:	bf00      	nop

00000e28 <__aeabi_uldivmod>:
     e28:	b953      	cbnz	r3, e40 <__aeabi_uldivmod+0x18>
     e2a:	b94a      	cbnz	r2, e40 <__aeabi_uldivmod+0x18>
     e2c:	2900      	cmp	r1, #0
     e2e:	bf08      	it	eq
     e30:	2800      	cmpeq	r0, #0
     e32:	bf1c      	itt	ne
     e34:	f04f 31ff 	movne.w	r1, #4294967295
     e38:	f04f 30ff 	movne.w	r0, #4294967295
     e3c:	f000 b96c 	b.w	1118 <__aeabi_idiv0>
     e40:	f1ad 0c08 	sub.w	ip, sp, #8
     e44:	e96d ce04 	strd	ip, lr, [sp, #-16]!
     e48:	f000 f806 	bl	e58 <__udivmoddi4>
     e4c:	f8dd e004 	ldr.w	lr, [sp, #4]
     e50:	e9dd 2302 	ldrd	r2, r3, [sp, #8]
     e54:	b004      	add	sp, #16
     e56:	4770      	bx	lr

00000e58 <__udivmoddi4>:
     e58:	e92d 47f0 	stmdb	sp!, {r4, r5, r6, r7, r8, r9, sl, lr}
     e5c:	9e08      	ldr	r6, [sp, #32]
     e5e:	460d      	mov	r5, r1
     e60:	4604      	mov	r4, r0
     e62:	468e      	mov	lr, r1
     e64:	2b00      	cmp	r3, #0
     e66:	f040 8082 	bne.w	f6e <__udivmoddi4+0x116>
     e6a:	428a      	cmp	r2, r1
     e6c:	4617      	mov	r7, r2
     e6e:	d946      	bls.n	efe <__udivmoddi4+0xa6>
     e70:	fab2 f282 	clz	r2, r2
     e74:	b14a      	cbz	r2, e8a <__udivmoddi4+0x32>
     e76:	f1c2 0120 	rsb	r1, r2, #32
     e7a:	fa05 f302 	lsl.w	r3, r5, r2
     e7e:	fa20 f101 	lsr.w	r1, r0, r1
     e82:	4097      	lsls	r7, r2
     e84:	ea41 0e03 	orr.w	lr, r1, r3
     e88:	4094      	lsls	r4, r2
     e8a:	ea4f 4817 	mov.w	r8, r7, lsr #16
     e8e:	0c23      	lsrs	r3, r4, #16
     e90:	fbbe fcf8 	udiv	ip, lr, r8
     e94:	b2b9      	uxth	r1, r7
     e96:	fb08 ee1c 	mls	lr, r8, ip, lr
     e9a:	ea43 430e 	orr.w	r3, r3, lr, lsl #16
     e9e:	fb0c f001 	mul.w	r0, ip, r1
     ea2:	4298      	cmp	r0, r3
     ea4:	d90a      	bls.n	ebc <__udivmoddi4+0x64>
     ea6:	18fb      	adds	r3, r7, r3
     ea8:	f10c 35ff 	add.w	r5, ip, #4294967295
     eac:	f080 8116 	bcs.w	10dc <CONFIG_FPROTECT_BLOCK_SIZE+0xdc>
     eb0:	4298      	cmp	r0, r3
     eb2:	f240 8113 	bls.w	10dc <CONFIG_FPROTECT_BLOCK_SIZE+0xdc>
     eb6:	f1ac 0c02 	sub.w	ip, ip, #2
     eba:	443b      	add	r3, r7
     ebc:	1a1b      	subs	r3, r3, r0
     ebe:	b2a4      	uxth	r4, r4
     ec0:	fbb3 f0f8 	udiv	r0, r3, r8
     ec4:	fb08 3310 	mls	r3, r8, r0, r3
     ec8:	ea44 4403 	orr.w	r4, r4, r3, lsl #16
     ecc:	fb00 f101 	mul.w	r1, r0, r1
     ed0:	42a1      	cmp	r1, r4
     ed2:	d909      	bls.n	ee8 <__udivmoddi4+0x90>
     ed4:	193c      	adds	r4, r7, r4
     ed6:	f100 33ff 	add.w	r3, r0, #4294967295
     eda:	f080 8101 	bcs.w	10e0 <CONFIG_FPROTECT_BLOCK_SIZE+0xe0>
     ede:	42a1      	cmp	r1, r4
     ee0:	f240 80fe 	bls.w	10e0 <CONFIG_FPROTECT_BLOCK_SIZE+0xe0>
     ee4:	3802      	subs	r0, #2
     ee6:	443c      	add	r4, r7
     ee8:	1a64      	subs	r4, r4, r1
     eea:	ea40 400c 	orr.w	r0, r0, ip, lsl #16
     eee:	2100      	movs	r1, #0
     ef0:	b11e      	cbz	r6, efa <__udivmoddi4+0xa2>
     ef2:	40d4      	lsrs	r4, r2
     ef4:	2300      	movs	r3, #0
     ef6:	e9c6 4300 	strd	r4, r3, [r6]
     efa:	e8bd 87f0 	ldmia.w	sp!, {r4, r5, r6, r7, r8, r9, sl, pc}
     efe:	b902      	cbnz	r2, f02 <__udivmoddi4+0xaa>
     f00:	deff      	udf	#255	; 0xff
     f02:	fab2 f282 	clz	r2, r2
     f06:	2a00      	cmp	r2, #0
     f08:	d14f      	bne.n	faa <__udivmoddi4+0x152>
     f0a:	1bcb      	subs	r3, r1, r7
     f0c:	ea4f 4e17 	mov.w	lr, r7, lsr #16
     f10:	fa1f f887 	uxth.w	r8, r7
     f14:	2101      	movs	r1, #1
     f16:	fbb3 fcfe 	udiv	ip, r3, lr
     f1a:	0c25      	lsrs	r5, r4, #16
     f1c:	fb0e 331c 	mls	r3, lr, ip, r3
     f20:	ea45 4503 	orr.w	r5, r5, r3, lsl #16
     f24:	fb08 f30c 	mul.w	r3, r8, ip
     f28:	42ab      	cmp	r3, r5
     f2a:	d907      	bls.n	f3c <__udivmoddi4+0xe4>
     f2c:	197d      	adds	r5, r7, r5
     f2e:	f10c 30ff 	add.w	r0, ip, #4294967295
     f32:	d202      	bcs.n	f3a <__udivmoddi4+0xe2>
     f34:	42ab      	cmp	r3, r5
     f36:	f200 80e7 	bhi.w	1108 <CONFIG_FPROTECT_BLOCK_SIZE+0x108>
     f3a:	4684      	mov	ip, r0
     f3c:	1aed      	subs	r5, r5, r3
     f3e:	b2a3      	uxth	r3, r4
     f40:	fbb5 f0fe 	udiv	r0, r5, lr
     f44:	fb0e 5510 	mls	r5, lr, r0, r5
     f48:	ea43 4405 	orr.w	r4, r3, r5, lsl #16
     f4c:	fb08 f800 	mul.w	r8, r8, r0
     f50:	45a0      	cmp	r8, r4
     f52:	d907      	bls.n	f64 <__udivmoddi4+0x10c>
     f54:	193c      	adds	r4, r7, r4
     f56:	f100 33ff 	add.w	r3, r0, #4294967295
     f5a:	d202      	bcs.n	f62 <__udivmoddi4+0x10a>
     f5c:	45a0      	cmp	r8, r4
     f5e:	f200 80d7 	bhi.w	1110 <CONFIG_FPROTECT_BLOCK_SIZE+0x110>
     f62:	4618      	mov	r0, r3
     f64:	eba4 0408 	sub.w	r4, r4, r8
     f68:	ea40 400c 	orr.w	r0, r0, ip, lsl #16
     f6c:	e7c0      	b.n	ef0 <__udivmoddi4+0x98>
     f6e:	428b      	cmp	r3, r1
     f70:	d908      	bls.n	f84 <__udivmoddi4+0x12c>
     f72:	2e00      	cmp	r6, #0
     f74:	f000 80af 	beq.w	10d6 <CONFIG_FPROTECT_BLOCK_SIZE+0xd6>
     f78:	2100      	movs	r1, #0
     f7a:	e9c6 0500 	strd	r0, r5, [r6]
     f7e:	4608      	mov	r0, r1
     f80:	e8bd 87f0 	ldmia.w	sp!, {r4, r5, r6, r7, r8, r9, sl, pc}
     f84:	fab3 f183 	clz	r1, r3
     f88:	2900      	cmp	r1, #0
     f8a:	d14b      	bne.n	1024 <CONFIG_FPROTECT_BLOCK_SIZE+0x24>
     f8c:	42ab      	cmp	r3, r5
     f8e:	d302      	bcc.n	f96 <__udivmoddi4+0x13e>
     f90:	4282      	cmp	r2, r0
     f92:	f200 80b7 	bhi.w	1104 <CONFIG_FPROTECT_BLOCK_SIZE+0x104>
     f96:	1a84      	subs	r4, r0, r2
     f98:	eb65 0303 	sbc.w	r3, r5, r3
     f9c:	2001      	movs	r0, #1
     f9e:	469e      	mov	lr, r3
     fa0:	2e00      	cmp	r6, #0
     fa2:	d0aa      	beq.n	efa <__udivmoddi4+0xa2>
     fa4:	e9c6 4e00 	strd	r4, lr, [r6]
     fa8:	e7a7      	b.n	efa <__udivmoddi4+0xa2>
     faa:	f1c2 0c20 	rsb	ip, r2, #32
     fae:	fa01 f302 	lsl.w	r3, r1, r2
     fb2:	4097      	lsls	r7, r2
     fb4:	fa20 f00c 	lsr.w	r0, r0, ip
     fb8:	ea4f 4e17 	mov.w	lr, r7, lsr #16
     fbc:	fa21 fc0c 	lsr.w	ip, r1, ip
     fc0:	4318      	orrs	r0, r3
     fc2:	fbbc f1fe 	udiv	r1, ip, lr
     fc6:	0c05      	lsrs	r5, r0, #16
     fc8:	fb0e cc11 	mls	ip, lr, r1, ip
     fcc:	fa1f f887 	uxth.w	r8, r7
     fd0:	ea45 450c 	orr.w	r5, r5, ip, lsl #16
     fd4:	fb01 f308 	mul.w	r3, r1, r8
     fd8:	42ab      	cmp	r3, r5
     fda:	fa04 f402 	lsl.w	r4, r4, r2
     fde:	d909      	bls.n	ff4 <__udivmoddi4+0x19c>
     fe0:	197d      	adds	r5, r7, r5
     fe2:	f101 3cff 	add.w	ip, r1, #4294967295
     fe6:	f080 808b 	bcs.w	1100 <CONFIG_FPROTECT_BLOCK_SIZE+0x100>
     fea:	42ab      	cmp	r3, r5
     fec:	f240 8088 	bls.w	1100 <CONFIG_FPROTECT_BLOCK_SIZE+0x100>
     ff0:	3902      	subs	r1, #2
     ff2:	443d      	add	r5, r7
     ff4:	1aeb      	subs	r3, r5, r3
     ff6:	b285      	uxth	r5, r0
     ff8:	fbb3 f0fe 	udiv	r0, r3, lr
     ffc:	fb0e 3310 	mls	r3, lr, r0, r3
    1000:	ea45 4503 	orr.w	r5, r5, r3, lsl #16
    1004:	fb00 f308 	mul.w	r3, r0, r8
    1008:	42ab      	cmp	r3, r5
    100a:	d907      	bls.n	101c <CONFIG_FPROTECT_BLOCK_SIZE+0x1c>
    100c:	197d      	adds	r5, r7, r5
    100e:	f100 3cff 	add.w	ip, r0, #4294967295
    1012:	d271      	bcs.n	10f8 <CONFIG_FPROTECT_BLOCK_SIZE+0xf8>
    1014:	42ab      	cmp	r3, r5
    1016:	d96f      	bls.n	10f8 <CONFIG_FPROTECT_BLOCK_SIZE+0xf8>
    1018:	3802      	subs	r0, #2
    101a:	443d      	add	r5, r7
    101c:	1aeb      	subs	r3, r5, r3
    101e:	ea40 4101 	orr.w	r1, r0, r1, lsl #16
    1022:	e778      	b.n	f16 <__udivmoddi4+0xbe>
    1024:	f1c1 0c20 	rsb	ip, r1, #32
    1028:	408b      	lsls	r3, r1
    102a:	fa22 f70c 	lsr.w	r7, r2, ip
    102e:	431f      	orrs	r7, r3
    1030:	fa20 f40c 	lsr.w	r4, r0, ip
    1034:	fa05 f301 	lsl.w	r3, r5, r1
    1038:	ea4f 4e17 	mov.w	lr, r7, lsr #16
    103c:	fa25 f50c 	lsr.w	r5, r5, ip
    1040:	431c      	orrs	r4, r3
    1042:	0c23      	lsrs	r3, r4, #16
    1044:	fbb5 f9fe 	udiv	r9, r5, lr
    1048:	fa1f f887 	uxth.w	r8, r7
    104c:	fb0e 5519 	mls	r5, lr, r9, r5
    1050:	ea43 4505 	orr.w	r5, r3, r5, lsl #16
    1054:	fb09 fa08 	mul.w	sl, r9, r8
    1058:	45aa      	cmp	sl, r5
    105a:	fa02 f201 	lsl.w	r2, r2, r1
    105e:	fa00 f301 	lsl.w	r3, r0, r1
    1062:	d908      	bls.n	1076 <CONFIG_FPROTECT_BLOCK_SIZE+0x76>
    1064:	197d      	adds	r5, r7, r5
    1066:	f109 30ff 	add.w	r0, r9, #4294967295
    106a:	d247      	bcs.n	10fc <CONFIG_FPROTECT_BLOCK_SIZE+0xfc>
    106c:	45aa      	cmp	sl, r5
    106e:	d945      	bls.n	10fc <CONFIG_FPROTECT_BLOCK_SIZE+0xfc>
    1070:	f1a9 0902 	sub.w	r9, r9, #2
    1074:	443d      	add	r5, r7
    1076:	eba5 050a 	sub.w	r5, r5, sl
    107a:	b2a4      	uxth	r4, r4
    107c:	fbb5 f0fe 	udiv	r0, r5, lr
    1080:	fb0e 5510 	mls	r5, lr, r0, r5
    1084:	ea44 4405 	orr.w	r4, r4, r5, lsl #16
    1088:	fb00 f808 	mul.w	r8, r0, r8
    108c:	45a0      	cmp	r8, r4
    108e:	d907      	bls.n	10a0 <CONFIG_FPROTECT_BLOCK_SIZE+0xa0>
    1090:	193c      	adds	r4, r7, r4
    1092:	f100 35ff 	add.w	r5, r0, #4294967295
    1096:	d22d      	bcs.n	10f4 <CONFIG_FPROTECT_BLOCK_SIZE+0xf4>
    1098:	45a0      	cmp	r8, r4
    109a:	d92b      	bls.n	10f4 <CONFIG_FPROTECT_BLOCK_SIZE+0xf4>
    109c:	3802      	subs	r0, #2
    109e:	443c      	add	r4, r7
    10a0:	ea40 4009 	orr.w	r0, r0, r9, lsl #16
    10a4:	eba4 0408 	sub.w	r4, r4, r8
    10a8:	fba0 8902 	umull	r8, r9, r0, r2
    10ac:	454c      	cmp	r4, r9
    10ae:	46c6      	mov	lr, r8
    10b0:	464d      	mov	r5, r9
    10b2:	d319      	bcc.n	10e8 <CONFIG_FPROTECT_BLOCK_SIZE+0xe8>
    10b4:	d016      	beq.n	10e4 <CONFIG_FPROTECT_BLOCK_SIZE+0xe4>
    10b6:	b15e      	cbz	r6, 10d0 <CONFIG_FPROTECT_BLOCK_SIZE+0xd0>
    10b8:	ebb3 020e 	subs.w	r2, r3, lr
    10bc:	eb64 0405 	sbc.w	r4, r4, r5
    10c0:	fa04 fc0c 	lsl.w	ip, r4, ip
    10c4:	40ca      	lsrs	r2, r1
    10c6:	ea4c 0202 	orr.w	r2, ip, r2
    10ca:	40cc      	lsrs	r4, r1
    10cc:	e9c6 2400 	strd	r2, r4, [r6]
    10d0:	2100      	movs	r1, #0
    10d2:	e8bd 87f0 	ldmia.w	sp!, {r4, r5, r6, r7, r8, r9, sl, pc}
    10d6:	4631      	mov	r1, r6
    10d8:	4630      	mov	r0, r6
    10da:	e70e      	b.n	efa <__udivmoddi4+0xa2>
    10dc:	46ac      	mov	ip, r5
    10de:	e6ed      	b.n	ebc <__udivmoddi4+0x64>
    10e0:	4618      	mov	r0, r3
    10e2:	e701      	b.n	ee8 <__udivmoddi4+0x90>
    10e4:	4543      	cmp	r3, r8
    10e6:	d2e6      	bcs.n	10b6 <CONFIG_FPROTECT_BLOCK_SIZE+0xb6>
    10e8:	ebb8 0e02 	subs.w	lr, r8, r2
    10ec:	eb69 0507 	sbc.w	r5, r9, r7
    10f0:	3801      	subs	r0, #1
    10f2:	e7e0      	b.n	10b6 <CONFIG_FPROTECT_BLOCK_SIZE+0xb6>
    10f4:	4628      	mov	r0, r5
    10f6:	e7d3      	b.n	10a0 <CONFIG_FPROTECT_BLOCK_SIZE+0xa0>
    10f8:	4660      	mov	r0, ip
    10fa:	e78f      	b.n	101c <CONFIG_FPROTECT_BLOCK_SIZE+0x1c>
    10fc:	4681      	mov	r9, r0
    10fe:	e7ba      	b.n	1076 <CONFIG_FPROTECT_BLOCK_SIZE+0x76>
    1100:	4661      	mov	r1, ip
    1102:	e777      	b.n	ff4 <__udivmoddi4+0x19c>
    1104:	4608      	mov	r0, r1
    1106:	e74b      	b.n	fa0 <__udivmoddi4+0x148>
    1108:	f1ac 0c02 	sub.w	ip, ip, #2
    110c:	443d      	add	r5, r7
    110e:	e715      	b.n	f3c <__udivmoddi4+0xe4>
    1110:	3802      	subs	r0, #2
    1112:	443c      	add	r4, r7
    1114:	e726      	b.n	f64 <__udivmoddi4+0x10c>
    1116:	bf00      	nop

00001118 <__aeabi_idiv0>:
    1118:	4770      	bx	lr
    111a:	bf00      	nop
    111c:	0000      	movs	r0, r0
	...

00001120 <thread_C_code>:


/* ###################    THREAD C    ######################*/

void thread_C_code(void *argA , void *argB, void *argC)
{
    1120:	e92d 47f0 	stmdb	sp!, {r4, r5, r6, r7, r8, r9, sl, lr}

    ret = 0;
    flag = 1;

    nits = (uint16_t)(3000 * var_bc / ((float) 1023));
    nits = -0.0455*nits + 136.36; 
    1124:	a724      	add	r7, pc, #144	; (adr r7, 11b8 <thread_C_code+0x98>)
    1126:	e9d7 6700 	ldrd	r6, r7, [r7]
    112a:	f20f 0994 	addw	r9, pc, #148	; 0x94
    112e:	e9d9 8900 	ldrd	r8, r9, [r9]
    nits = (uint16_t)(3000 * var_bc / ((float) 1023));
    1132:	f8df a0b0 	ldr.w	sl, [pc, #176]	; 11e4 <thread_C_code+0xc4>
		/* coverity[OVERRUN] */
		return (int) arch_syscall_invoke3(*(uintptr_t *)&sem, parm0.split.lo, parm0.split.hi, K_SYSCALL_K_SEM_TAKE);
	}
#endif
	compiler_barrier();
	return z_impl_k_sem_take(sem, timeout);
    1136:	f04f 32ff 	mov.w	r2, #4294967295
    113a:	f04f 33ff 	mov.w	r3, #4294967295
    113e:	4822      	ldr	r0, [pc, #136]	; (11c8 <thread_C_code+0xa8>)
    1140:	4d22      	ldr	r5, [pc, #136]	; (11cc <thread_C_code+0xac>)
    1142:	f007 faab 	bl	869c <z_impl_k_sem_take>
    1146:	4b22      	ldr	r3, [pc, #136]	; (11d0 <thread_C_code+0xb0>)
    1148:	681b      	ldr	r3, [r3, #0]
    114a:	f640 30b8 	movw	r0, #3000	; 0xbb8
    114e:	4358      	muls	r0, r3
    1150:	f7ff fca6 	bl	aa0 <__aeabi_i2f>
    1154:	4651      	mov	r1, sl
    1156:	f7ff fdab 	bl	cb0 <__aeabi_fdiv>
    115a:	f7ff fe45 	bl	de8 <__aeabi_f2uiz>
    115e:	b280      	uxth	r0, r0
    1160:	6028      	str	r0, [r5, #0]
    nits = -0.0455*nits + 136.36; 
    1162:	6828      	ldr	r0, [r5, #0]
    1164:	f7ff f91e 	bl	3a4 <__aeabi_i2d>
    1168:	4632      	mov	r2, r6
    116a:	463b      	mov	r3, r7
    116c:	f7ff f984 	bl	478 <__aeabi_dmul>
    1170:	4642      	mov	r2, r8
    1172:	464b      	mov	r3, r9
    1174:	f7fe ffca 	bl	10c <__adddf3>
    1178:	f7ff fb90 	bl	89c <__aeabi_d2iz>
    
    if(flag){
      if(nits>ref) u--;
    117c:	4b15      	ldr	r3, [pc, #84]	; (11d4 <thread_C_code+0xb4>)
    nits = -0.0455*nits + 136.36; 
    117e:	6028      	str	r0, [r5, #0]
      if(nits>ref) u--;
    1180:	682a      	ldr	r2, [r5, #0]
    1182:	681b      	ldr	r3, [r3, #0]
    1184:	429a      	cmp	r2, r3
    1186:	dd0f      	ble.n	11a8 <thread_C_code+0x88>
    1188:	3c01      	subs	r4, #1
      else if(nits<ref) u++;

      if(u >= 100) u = 100;
    118a:	ea24 74e4 	bic.w	r4, r4, r4, asr #31
    118e:	2c64      	cmp	r4, #100	; 0x64
    1190:	bfa8      	it	ge
    1192:	2464      	movge	r4, #100	; 0x64
      if(u<=0) u = 0;
    }

    /*printk("ref -> %d | nits -> %d | u -> %d",ref,nits,u);*/
    var_cd = 100 - u;
    1194:	4b10      	ldr	r3, [pc, #64]	; (11d8 <thread_C_code+0xb8>)
    1196:	f1c4 0264 	rsb	r2, r4, #100	; 0x64
    119a:	601a      	str	r2, [r3, #0]
    pwm = u;
    119c:	4b0f      	ldr	r3, [pc, #60]	; (11dc <thread_C_code+0xbc>)
    119e:	601c      	str	r4, [r3, #0]
		arch_syscall_invoke1(*(uintptr_t *)&sem, K_SYSCALL_K_SEM_GIVE);
		return;
	}
#endif
	compiler_barrier();
	z_impl_k_sem_give(sem);
    11a0:	480f      	ldr	r0, [pc, #60]	; (11e0 <thread_C_code+0xc0>)
    11a2:	f007 fa37 	bl	8614 <z_impl_k_sem_give>
  {
    11a6:	e7c6      	b.n	1136 <thread_C_code+0x16>
      else if(nits<ref) u++;
    11a8:	682a      	ldr	r2, [r5, #0]
    11aa:	4293      	cmp	r3, r2
    11ac:	bfc8      	it	gt
    11ae:	3401      	addgt	r4, #1
    11b0:	e7eb      	b.n	118a <thread_C_code+0x6a>
    11b2:	bf00      	nop
    11b4:	f3af 8000 	nop.w
    11b8:	a7ef9db2 	.word	0xa7ef9db2
    11bc:	bfa74bc6 	.word	0xbfa74bc6
    11c0:	1eb851ec 	.word	0x1eb851ec
    11c4:	40610b85 	.word	0x40610b85
    11c8:	200007a0 	.word	0x200007a0
    11cc:	20000754 	.word	0x20000754
    11d0:	200007e8 	.word	0x200007e8
    11d4:	200000b0 	.word	0x200000b0
    11d8:	200007ec 	.word	0x200007ec
    11dc:	2000075c 	.word	0x2000075c
    11e0:	200007b8 	.word	0x200007b8
    11e4:	447fc000 	.word	0x447fc000

000011e8 <thread_B_code>:
{
    11e8:	e92d 47f0 	stmdb	sp!, {r4, r5, r6, r7, r8, r9, sl, lr}
   media = 0;
    11ec:	f8df 9108 	ldr.w	r9, [pc, #264]	; 12f8 <thread_B_code+0x110>
   desvio = 0.1 * media;
    11f0:	a739      	add	r7, pc, #228	; (adr r7, 12d8 <thread_B_code+0xf0>)
    11f2:	e9d7 6700 	ldrd	r6, r7, [r7]
    11f6:	464c      	mov	r4, r9
	return z_impl_k_sem_take(sem, timeout);
    11f8:	f04f 32ff 	mov.w	r2, #4294967295
    11fc:	f04f 33ff 	mov.w	r3, #4294967295
    1200:	4837      	ldr	r0, [pc, #220]	; (12e0 <thread_B_code+0xf8>)
   media_2 = 0;
    1202:	f8df 80f8 	ldr.w	r8, [pc, #248]	; 12fc <thread_B_code+0x114>
    1206:	f007 fa49 	bl	869c <z_impl_k_sem_take>
       buffer[i] = buffer[i + 1];
    120a:	4a36      	ldr	r2, [pc, #216]	; (12e4 <thread_B_code+0xfc>)
   media = 0;
    120c:	2300      	movs	r3, #0
    120e:	f8a9 3000 	strh.w	r3, [r9]
   media_2 = 0;
    1212:	46c2      	mov	sl, r8
    1214:	f8a8 3000 	strh.w	r3, [r8]
     for (i = 0; i < WINDOW_SIZE - 1; i++) 
    1218:	4615      	mov	r5, r2
       buffer[i] = buffer[i + 1];
    121a:	4618      	mov	r0, r3
    121c:	3301      	adds	r3, #1
     for (i = 0; i < WINDOW_SIZE - 1; i++) 
    121e:	2b09      	cmp	r3, #9
       buffer[i] = buffer[i + 1];
    1220:	f832 1013 	ldrh.w	r1, [r2, r3, lsl #1]
    1224:	b289      	uxth	r1, r1
    1226:	f822 1010 	strh.w	r1, [r2, r0, lsl #1]
     for (i = 0; i < WINDOW_SIZE - 1; i++) 
    122a:	d1f6      	bne.n	121a <thread_B_code+0x32>
       buffer[WINDOW_SIZE - 1] = var_ab;
    122c:	4b2e      	ldr	r3, [pc, #184]	; (12e8 <thread_B_code+0x100>)
    122e:	881b      	ldrh	r3, [r3, #0]
    1230:	8253      	strh	r3, [r2, #18]
   for (i = 0; i < WINDOW_SIZE; i++) 
    1232:	2200      	movs	r2, #0
     media = media + buffer[i];
    1234:	f835 1012 	ldrh.w	r1, [r5, r2, lsl #1]
    1238:	8823      	ldrh	r3, [r4, #0]
   for (i = 0; i < WINDOW_SIZE; i++) 
    123a:	3201      	adds	r2, #1
     media = media + buffer[i];
    123c:	440b      	add	r3, r1
    123e:	b29b      	uxth	r3, r3
   for (i = 0; i < WINDOW_SIZE; i++) 
    1240:	2a0a      	cmp	r2, #10
     media = media + buffer[i];
    1242:	8023      	strh	r3, [r4, #0]
   for (i = 0; i < WINDOW_SIZE; i++) 
    1244:	d1f6      	bne.n	1234 <thread_B_code+0x4c>
   media = media / WINDOW_SIZE;
    1246:	8823      	ldrh	r3, [r4, #0]
    1248:	b29b      	uxth	r3, r3
    124a:	fbb3 f3f2 	udiv	r3, r3, r2
    124e:	8023      	strh	r3, [r4, #0]
   desvio = 0.1 * media;
    1250:	8820      	ldrh	r0, [r4, #0]
    1252:	b280      	uxth	r0, r0
    1254:	f7ff f8a6 	bl	3a4 <__aeabi_i2d>
    1258:	4632      	mov	r2, r6
    125a:	463b      	mov	r3, r7
    125c:	f7ff f90c 	bl	478 <__aeabi_dmul>
    1260:	f7ff fb44 	bl	8ec <__aeabi_d2uiz>
    1264:	4921      	ldr	r1, [pc, #132]	; (12ec <thread_B_code+0x104>)
    1266:	b280      	uxth	r0, r0
   for (i = 0; i < WINDOW_SIZE; i++) 
    1268:	2200      	movs	r2, #0
   desvio = 0.1 * media;
    126a:	8008      	strh	r0, [r1, #0]
   count = 0;
    126c:	4613      	mov	r3, r2
     if ((media + desvio > buffer[i]) && (media - desvio < buffer[i])) {
    126e:	f8b4 c000 	ldrh.w	ip, [r4]
    1272:	f8b1 e000 	ldrh.w	lr, [r1]
    1276:	f835 0012 	ldrh.w	r0, [r5, r2, lsl #1]
    127a:	fa1f fe8e 	uxth.w	lr, lr
    127e:	b280      	uxth	r0, r0
    1280:	fa1e fc8c 	uxtah	ip, lr, ip
    1284:	4584      	cmp	ip, r0
    1286:	dd18      	ble.n	12ba <thread_B_code+0xd2>
    1288:	f8b4 c000 	ldrh.w	ip, [r4]
    128c:	f8b1 e000 	ldrh.w	lr, [r1]
    1290:	f835 0012 	ldrh.w	r0, [r5, r2, lsl #1]
    1294:	fa1f fc8c 	uxth.w	ip, ip
    1298:	fa1f fe8e 	uxth.w	lr, lr
    129c:	b280      	uxth	r0, r0
    129e:	ebac 0c0e 	sub.w	ip, ip, lr
    12a2:	4584      	cmp	ip, r0
    12a4:	da09      	bge.n	12ba <thread_B_code+0xd2>
       media_2 = media_2 + buffer[i];
    12a6:	f835 c012 	ldrh.w	ip, [r5, r2, lsl #1]
    12aa:	f8ba 0000 	ldrh.w	r0, [sl]
    12ae:	4460      	add	r0, ip
    12b0:	b280      	uxth	r0, r0
       count = count + 1;
    12b2:	3301      	adds	r3, #1
       media_2 = media_2 + buffer[i];
    12b4:	f8aa 0000 	strh.w	r0, [sl]
       count = count + 1;
    12b8:	b29b      	uxth	r3, r3
   for (i = 0; i < WINDOW_SIZE; i++) 
    12ba:	3201      	adds	r2, #1
    12bc:	2a0a      	cmp	r2, #10
    12be:	d1d6      	bne.n	126e <thread_B_code+0x86>
   if (count != 0) 
    12c0:	b123      	cbz	r3, 12cc <thread_B_code+0xe4>
     var_bc = media_2 / count;
    12c2:	f8b8 2000 	ldrh.w	r2, [r8]
    12c6:	b292      	uxth	r2, r2
    12c8:	fbb2 f3f3 	udiv	r3, r2, r3
    12cc:	4a08      	ldr	r2, [pc, #32]	; (12f0 <thread_B_code+0x108>)
    12ce:	6013      	str	r3, [r2, #0]
	z_impl_k_sem_give(sem);
    12d0:	4808      	ldr	r0, [pc, #32]	; (12f4 <thread_B_code+0x10c>)
    12d2:	f007 f99f 	bl	8614 <z_impl_k_sem_give>
  {
    12d6:	e78f      	b.n	11f8 <thread_B_code+0x10>
    12d8:	9999999a 	.word	0x9999999a
    12dc:	3fb99999 	.word	0x3fb99999
    12e0:	20000788 	.word	0x20000788
    12e4:	20000ec2 	.word	0x20000ec2
    12e8:	200007e4 	.word	0x200007e4
    12ec:	20000ed6 	.word	0x20000ed6
    12f0:	200007e8 	.word	0x200007e8
    12f4:	200007a0 	.word	0x200007a0
    12f8:	20000ed8 	.word	0x20000ed8
    12fc:	20000eda 	.word	0x20000eda

00001300 <but1press_cbfunction>:
    dcToggleFlag1 = 1;
    1300:	4b01      	ldr	r3, [pc, #4]	; (1308 <but1press_cbfunction+0x8>)
    1302:	2201      	movs	r2, #1
    1304:	601a      	str	r2, [r3, #0]
}
    1306:	4770      	bx	lr
    1308:	20000724 	.word	0x20000724

0000130c <but2press_cbfunction>:
    dcToggleFlag2 = 1;
    130c:	4b01      	ldr	r3, [pc, #4]	; (1314 <but2press_cbfunction+0x8>)
    130e:	2201      	movs	r2, #1
    1310:	601a      	str	r2, [r3, #0]
}
    1312:	4770      	bx	lr
    1314:	20000728 	.word	0x20000728

00001318 <but3press_cbfunction>:
    dcToggleFlag3 = 1;
    1318:	4b01      	ldr	r3, [pc, #4]	; (1320 <but3press_cbfunction+0x8>)
    131a:	2201      	movs	r2, #1
    131c:	601a      	str	r2, [r3, #0]
}
    131e:	4770      	bx	lr
    1320:	2000072c 	.word	0x2000072c

00001324 <but4press_cbfunction>:
    dcToggleFlag4 = 1;
    1324:	4b01      	ldr	r3, [pc, #4]	; (132c <but4press_cbfunction+0x8>)
    1326:	2201      	movs	r2, #1
    1328:	601a      	str	r2, [r3, #0]
}
    132a:	4770      	bx	lr
    132c:	20000730 	.word	0x20000730

00001330 <z_impl_gpio_pin_configure>:
		 "mode to be supported");

	__ASSERT_NO_MSG((flags & GPIO_SINGLE_ENDED) != 0 ||
			(flags & GPIO_LINE_OPEN_DRAIN) == 0);

	__ASSERT((flags & (GPIO_OUTPUT_INIT_LOW | GPIO_OUTPUT_INIT_HIGH)) == 0
    1330:	f412 6f40 	tst.w	r2, #3072	; 0xc00
{
    1334:	e92d 47f0 	stmdb	sp!, {r4, r5, r6, r7, r8, r9, sl, lr}
	const struct gpio_driver_config *const cfg =
    1338:	e9d0 a901 	ldrd	sl, r9, [r0, #4]
	struct gpio_driver_data *data =
    133c:	f8d0 8010 	ldr.w	r8, [r0, #16]
{
    1340:	4605      	mov	r5, r0
    1342:	460e      	mov	r6, r1
    1344:	4614      	mov	r4, r2
	__ASSERT((flags & (GPIO_OUTPUT_INIT_LOW | GPIO_OUTPUT_INIT_HIGH)) == 0
    1346:	d010      	beq.n	136a <z_impl_gpio_pin_configure+0x3a>
    1348:	0593      	lsls	r3, r2, #22
    134a:	d40e      	bmi.n	136a <z_impl_gpio_pin_configure+0x3a>
    134c:	4919      	ldr	r1, [pc, #100]	; (13b4 <z_impl_gpio_pin_configure+0x84>)
    134e:	4a1a      	ldr	r2, [pc, #104]	; (13b8 <z_impl_gpio_pin_configure+0x88>)
    1350:	481a      	ldr	r0, [pc, #104]	; (13bc <z_impl_gpio_pin_configure+0x8c>)
    1352:	f44f 733b 	mov.w	r3, #748	; 0x2ec
    1356:	f008 fd72 	bl	9e3e <printk>
    135a:	4819      	ldr	r0, [pc, #100]	; (13c0 <z_impl_gpio_pin_configure+0x90>)
    135c:	f008 fd6f 	bl	9e3e <printk>
    1360:	4815      	ldr	r0, [pc, #84]	; (13b8 <z_impl_gpio_pin_configure+0x88>)
    1362:	f44f 713b 	mov.w	r1, #748	; 0x2ec
    1366:	f008 fc67 	bl	9c38 <assert_post_action>
	}

	flags &= ~GPIO_OUTPUT_INIT_LOGICAL;

	(void)cfg;
	__ASSERT((cfg->port_pin_mask & (gpio_port_pins_t)BIT(pin)) != 0U,
    136a:	f8da 3000 	ldr.w	r3, [sl]
    136e:	2701      	movs	r7, #1
    1370:	40b7      	lsls	r7, r6
    1372:	421f      	tst	r7, r3
	flags &= ~GPIO_OUTPUT_INIT_LOGICAL;
    1374:	f424 5480 	bic.w	r4, r4, #4096	; 0x1000
	__ASSERT((cfg->port_pin_mask & (gpio_port_pins_t)BIT(pin)) != 0U,
    1378:	d10e      	bne.n	1398 <z_impl_gpio_pin_configure+0x68>
    137a:	4912      	ldr	r1, [pc, #72]	; (13c4 <z_impl_gpio_pin_configure+0x94>)
    137c:	4a0e      	ldr	r2, [pc, #56]	; (13b8 <z_impl_gpio_pin_configure+0x88>)
    137e:	480f      	ldr	r0, [pc, #60]	; (13bc <z_impl_gpio_pin_configure+0x8c>)
    1380:	f240 23fd 	movw	r3, #765	; 0x2fd
    1384:	f008 fd5b 	bl	9e3e <printk>
    1388:	480f      	ldr	r0, [pc, #60]	; (13c8 <z_impl_gpio_pin_configure+0x98>)
    138a:	f008 fd58 	bl	9e3e <printk>
    138e:	480a      	ldr	r0, [pc, #40]	; (13b8 <z_impl_gpio_pin_configure+0x88>)
    1390:	f240 21fd 	movw	r1, #765	; 0x2fd
    1394:	f008 fc50 	bl	9c38 <assert_post_action>
		 "Unsupported pin");

	if ((flags & GPIO_ACTIVE_LOW) != 0) {
		data->invert |= (gpio_port_pins_t)BIT(pin);
	} else {
		data->invert &= ~(gpio_port_pins_t)BIT(pin);
    1398:	f8d8 3000 	ldr.w	r3, [r8]
    139c:	ea23 0707 	bic.w	r7, r3, r7
    13a0:	f8c8 7000 	str.w	r7, [r8]
	}

	return api->pin_configure(port, pin, flags);
    13a4:	f8d9 3000 	ldr.w	r3, [r9]
    13a8:	4622      	mov	r2, r4
    13aa:	4631      	mov	r1, r6
    13ac:	4628      	mov	r0, r5
}
    13ae:	e8bd 47f0 	ldmia.w	sp!, {r4, r5, r6, r7, r8, r9, sl, lr}
	return api->pin_configure(port, pin, flags);
    13b2:	4718      	bx	r3
    13b4:	0000b28e 	.word	0x0000b28e
    13b8:	0000b264 	.word	0x0000b264
    13bc:	0000b2d3 	.word	0x0000b2d3
    13c0:	0000b2f0 	.word	0x0000b2f0
    13c4:	0000b32b 	.word	0x0000b32b
    13c8:	0000b369 	.word	0x0000b369

000013cc <z_impl_gpio_pin_interrupt_configure.constprop.0>:
	__ASSERT((cfg->port_pin_mask & (gpio_port_pins_t)BIT(pin)) != 0U,
    13cc:	6843      	ldr	r3, [r0, #4]
static inline int z_impl_gpio_pin_interrupt_configure(const struct device *port,
    13ce:	e92d 41f0 	stmdb	sp!, {r4, r5, r6, r7, r8, lr}
	__ASSERT((cfg->port_pin_mask & (gpio_port_pins_t)BIT(pin)) != 0U,
    13d2:	681b      	ldr	r3, [r3, #0]
	const struct gpio_driver_api *api =
    13d4:	6887      	ldr	r7, [r0, #8]
	const struct gpio_driver_data *const data =
    13d6:	f8d0 8010 	ldr.w	r8, [r0, #16]
	__ASSERT((cfg->port_pin_mask & (gpio_port_pins_t)BIT(pin)) != 0U,
    13da:	2601      	movs	r6, #1
    13dc:	408e      	lsls	r6, r1
    13de:	421e      	tst	r6, r3
static inline int z_impl_gpio_pin_interrupt_configure(const struct device *port,
    13e0:	4604      	mov	r4, r0
    13e2:	460d      	mov	r5, r1
	__ASSERT((cfg->port_pin_mask & (gpio_port_pins_t)BIT(pin)) != 0U,
    13e4:	d10e      	bne.n	1404 <z_impl_gpio_pin_interrupt_configure.constprop.0+0x38>
    13e6:	4910      	ldr	r1, [pc, #64]	; (1428 <z_impl_gpio_pin_interrupt_configure.constprop.0+0x5c>)
    13e8:	4a10      	ldr	r2, [pc, #64]	; (142c <z_impl_gpio_pin_interrupt_configure.constprop.0+0x60>)
    13ea:	4811      	ldr	r0, [pc, #68]	; (1430 <z_impl_gpio_pin_interrupt_configure.constprop.0+0x64>)
    13ec:	f240 239d 	movw	r3, #669	; 0x29d
    13f0:	f008 fd25 	bl	9e3e <printk>
    13f4:	480f      	ldr	r0, [pc, #60]	; (1434 <z_impl_gpio_pin_interrupt_configure.constprop.0+0x68>)
    13f6:	f008 fd22 	bl	9e3e <printk>
    13fa:	480c      	ldr	r0, [pc, #48]	; (142c <z_impl_gpio_pin_interrupt_configure.constprop.0+0x60>)
    13fc:	f240 219d 	movw	r1, #669	; 0x29d
    1400:	f008 fc1a 	bl	9c38 <assert_post_action>
	    ((data->invert & (gpio_port_pins_t)BIT(pin)) != 0)) {
    1404:	f8d8 3000 	ldr.w	r3, [r8]
	if (((flags & GPIO_INT_LEVELS_LOGICAL) != 0) &&
    1408:	421e      	tst	r6, r3
	return api->pin_interrupt_configure(port, pin, mode, trig);
    140a:	69be      	ldr	r6, [r7, #24]
    140c:	4629      	mov	r1, r5
    140e:	4620      	mov	r0, r4
    1410:	46b4      	mov	ip, r6
    1412:	bf18      	it	ne
    1414:	f44f 3300 	movne.w	r3, #131072	; 0x20000
}
    1418:	e8bd 41f0 	ldmia.w	sp!, {r4, r5, r6, r7, r8, lr}
	return api->pin_interrupt_configure(port, pin, mode, trig);
    141c:	bf08      	it	eq
    141e:	f44f 2380 	moveq.w	r3, #262144	; 0x40000
    1422:	f44f 32a0 	mov.w	r2, #81920	; 0x14000
    1426:	4760      	bx	ip
    1428:	0000b32b 	.word	0x0000b32b
    142c:	0000b264 	.word	0x0000b264
    1430:	0000b2d3 	.word	0x0000b2d3
    1434:	0000b369 	.word	0x0000b369

00001438 <thread_A_code>:
{
    1438:	b5f0      	push	{r4, r5, r6, r7, lr}
	return z_impl_k_sem_take(sem, timeout);
    143a:	4f1c      	ldr	r7, [pc, #112]	; (14ac <thread_A_code+0x74>)
	const struct adc_sequence sequence = {
    143c:	4d1c      	ldr	r5, [pc, #112]	; (14b0 <thread_A_code+0x78>)
	if (adc_dev == NULL) {
    143e:	4e1d      	ldr	r6, [pc, #116]	; (14b4 <thread_A_code+0x7c>)
{
    1440:	b087      	sub	sp, #28
    1442:	f04f 33ff 	mov.w	r3, #4294967295
    1446:	f04f 32ff 	mov.w	r2, #4294967295
    144a:	4638      	mov	r0, r7
    144c:	f007 f926 	bl	869c <z_impl_k_sem_take>
	const struct adc_sequence sequence = {
    1450:	2214      	movs	r2, #20
    1452:	2100      	movs	r1, #0
    1454:	a801      	add	r0, sp, #4
    1456:	f008 fee6 	bl	a226 <memset>
    145a:	2302      	movs	r3, #2
	if (adc_dev == NULL) {
    145c:	6830      	ldr	r0, [r6, #0]
	const struct adc_sequence sequence = {
    145e:	9304      	str	r3, [sp, #16]
    1460:	e9cd 3502 	strd	r3, r5, [sp, #8]
    1464:	230a      	movs	r3, #10
    1466:	f88d 3014 	strb.w	r3, [sp, #20]
	if (adc_dev == NULL) {
    146a:	b960      	cbnz	r0, 1486 <thread_A_code+0x4e>
            printk("adc_sample(): error, must bind to adc first \n\r");
    146c:	4812      	ldr	r0, [pc, #72]	; (14b8 <thread_A_code+0x80>)
    146e:	f008 fce6 	bl	9e3e <printk>
            return -1;
    1472:	f04f 34ff 	mov.w	r4, #4294967295
      printk("adc_sample() failed with error code %d\n\r", err);
    1476:	4811      	ldr	r0, [pc, #68]	; (14bc <thread_A_code+0x84>)
    1478:	4621      	mov	r1, r4
    147a:	f008 fce0 	bl	9e3e <printk>
	z_impl_k_sem_give(sem);
    147e:	4810      	ldr	r0, [pc, #64]	; (14c0 <thread_A_code+0x88>)
    1480:	f007 f8c8 	bl	8614 <z_impl_k_sem_give>
  {
    1484:	e7dd      	b.n	1442 <thread_A_code+0xa>
				  const struct adc_sequence *sequence)
{
	const struct adc_driver_api *api =
				(const struct adc_driver_api *)dev->api;

	return api->read(dev, sequence);
    1486:	6883      	ldr	r3, [r0, #8]
    1488:	a901      	add	r1, sp, #4
    148a:	685b      	ldr	r3, [r3, #4]
    148c:	4798      	blx	r3
	if (ret) {
    148e:	4604      	mov	r4, r0
    1490:	b120      	cbz	r0, 149c <thread_A_code+0x64>
            printk("adc_read() failed with code %d\n", ret);
    1492:	4601      	mov	r1, r0
    1494:	480b      	ldr	r0, [pc, #44]	; (14c4 <thread_A_code+0x8c>)
    1496:	f008 fcd2 	bl	9e3e <printk>
    if (err) 
    149a:	e7ec      	b.n	1476 <thread_A_code+0x3e>
      if (adc_sample_buffer[0] > 1023) 
    149c:	882b      	ldrh	r3, [r5, #0]
    149e:	f5b3 6f80 	cmp.w	r3, #1024	; 0x400
    14a2:	d2ec      	bcs.n	147e <thread_A_code+0x46>
        var_ab = adc_sample_buffer[0];
    14a4:	4a08      	ldr	r2, [pc, #32]	; (14c8 <thread_A_code+0x90>)
    14a6:	6013      	str	r3, [r2, #0]
    14a8:	e7e9      	b.n	147e <thread_A_code+0x46>
    14aa:	bf00      	nop
    14ac:	20000770 	.word	0x20000770
    14b0:	20000ec0 	.word	0x20000ec0
    14b4:	200006e8 	.word	0x200006e8
    14b8:	0000b37b 	.word	0x0000b37b
    14bc:	0000b3ca 	.word	0x0000b3ca
    14c0:	20000788 	.word	0x20000788
    14c4:	0000b3aa 	.word	0x0000b3aa
    14c8:	200007e4 	.word	0x200007e4

000014cc <thread_D_code>:
    k_sem_give(&sem_cd);
  }
}

void thread_D_code(void *argA , void *argB, void *argC)
{
    14cc:	e92d 4ff0 	stmdb	sp!, {r4, r5, r6, r7, r8, r9, sl, fp, lr}
    14d0:	b087      	sub	sp, #28
		/* coverity[OVERRUN] */
		return (const struct device *) arch_syscall_invoke1(*(uintptr_t *)&name, K_SYSCALL_DEVICE_GET_BINDING);
	}
#endif
	compiler_barrier();
	return z_impl_device_get_binding(name);
    14d2:	4835      	ldr	r0, [pc, #212]	; (15a8 <thread_D_code+0xdc>)
    14d4:	f005 f978 	bl	67c8 <z_impl_device_get_binding>

  const struct device *gpio0_dev;

  gpio0_dev = device_get_binding(DT_LABEL(GPIO0_NID));

  if (gpio0_dev == NULL) {
    14d8:	b928      	cbnz	r0, 14e6 <thread_D_code+0x1a>
    printk("Error: Failed to bind to GPIO0\n\r");
    14da:	4834      	ldr	r0, [pc, #208]	; (15ac <thread_D_code+0xe0>)
    14dc:	f008 fcaf 	bl	9e3e <printk>
      printk("Error %d: failed to set pulse width\n", ret);
      return;
    }

  }
}
    14e0:	b007      	add	sp, #28
    14e2:	e8bd 8ff0 	ldmia.w	sp!, {r4, r5, r6, r7, r8, r9, sl, fp, pc}
		/* coverity[OVERRUN] */
		return (int) arch_syscall_invoke3(*(uintptr_t *)&port, *(uintptr_t *)&pin, *(uintptr_t *)&flags, K_SYSCALL_GPIO_PIN_CONFIGURE);
	}
#endif
	compiler_barrier();
	return z_impl_gpio_pin_configure(port, pin, flags);
    14e6:	210d      	movs	r1, #13
    14e8:	f44f 52d0 	mov.w	r2, #6656	; 0x1a00
    14ec:	f7ff ff20 	bl	1330 <z_impl_gpio_pin_configure>
  if (ret < 0) {
    14f0:	1e01      	subs	r1, r0, #0
    14f2:	da03      	bge.n	14fc <thread_D_code+0x30>
    printk("gpio_pin_configure() failed with error %d\n\r", ret);
    14f4:	482e      	ldr	r0, [pc, #184]	; (15b0 <thread_D_code+0xe4>)
      printk("Error %d: failed to set pulse width\n", ret);
    14f6:	f008 fca2 	bl	9e3e <printk>
      return;
    14fa:	e7f1      	b.n	14e0 <thread_D_code+0x14>
    14fc:	482d      	ldr	r0, [pc, #180]	; (15b4 <thread_D_code+0xe8>)
    14fe:	f005 f963 	bl	67c8 <z_impl_device_get_binding>
  if (pwm0_dev == NULL) {
    1502:	4604      	mov	r4, r0
    1504:	2800      	cmp	r0, #0
    1506:	d0eb      	beq.n	14e0 <thread_D_code+0x14>
        pwmPeriod_us, (unsigned int)((pwmPeriod_us * var_cd) / 100), PWM_POLARITY_NORMAL);
    1508:	f8df b0bc 	ldr.w	fp, [pc, #188]	; 15c8 <thread_D_code+0xfc>
	return z_impl_k_sem_take(sem, timeout);
    150c:	f04f 32ff 	mov.w	r2, #4294967295
    1510:	f04f 33ff 	mov.w	r3, #4294967295
    1514:	4828      	ldr	r0, [pc, #160]	; (15b8 <thread_D_code+0xec>)
    1516:	f007 f8c1 	bl	869c <z_impl_k_sem_take>
    151a:	f8db 5000 	ldr.w	r5, [fp]
    151e:	2764      	movs	r7, #100	; 0x64
    1520:	437d      	muls	r5, r7
    ret = pwm_pin_set_usec(pwm0_dev, BOARDLED_PIN,
    1522:	fbb5 f5f7 	udiv	r5, r5, r7
						uint64_t *cycles)
{
	struct pwm_driver_api *api;

	api = (struct pwm_driver_api *)dev->api;
	return api->get_cycles_per_sec(dev, pwm, cycles);
    1526:	68a3      	ldr	r3, [r4, #8]
    1528:	aa04      	add	r2, sp, #16
    152a:	685b      	ldr	r3, [r3, #4]
    152c:	210d      	movs	r1, #13
    152e:	4620      	mov	r0, r4
    1530:	4798      	blx	r3
				   uint32_t period, uint32_t pulse,
				   pwm_flags_t flags)
{
	uint64_t period_cycles, pulse_cycles, cycles_per_sec;

	if (pwm_get_cycles_per_sec(dev, pwm, &cycles_per_sec) != 0) {
    1532:	9002      	str	r0, [sp, #8]
    1534:	b118      	cbz	r0, 153e <thread_D_code+0x72>
		return -EIO;
    1536:	f06f 0104 	mvn.w	r1, #4
      printk("Error %d: failed to set pulse width\n", ret);
    153a:	4820      	ldr	r0, [pc, #128]	; (15bc <thread_D_code+0xf0>)
    153c:	e7db      	b.n	14f6 <thread_D_code+0x2a>
	}

	period_cycles = (period * cycles_per_sec) / USEC_PER_SEC;
    153e:	e9dd 6a04 	ldrd	r6, sl, [sp, #16]
    1542:	fba6 8907 	umull	r8, r9, r6, r7
    1546:	fb07 990a 	mla	r9, r7, sl, r9
    154a:	4a1d      	ldr	r2, [pc, #116]	; (15c0 <thread_D_code+0xf4>)
    154c:	2300      	movs	r3, #0
    154e:	4640      	mov	r0, r8
    1550:	4649      	mov	r1, r9
    1552:	f7ff fc69 	bl	e28 <__aeabi_uldivmod>
	if (period_cycles >= ((uint64_t)1 << 32)) {
    1556:	4b1b      	ldr	r3, [pc, #108]	; (15c4 <thread_D_code+0xf8>)
	period_cycles = (period * cycles_per_sec) / USEC_PER_SEC;
    1558:	9003      	str	r0, [sp, #12]
	if (period_cycles >= ((uint64_t)1 << 32)) {
    155a:	f04f 32ff 	mov.w	r2, #4294967295
    155e:	454b      	cmp	r3, r9
    1560:	bf08      	it	eq
    1562:	4542      	cmpeq	r2, r8
    1564:	d202      	bcs.n	156c <thread_D_code+0xa0>
		return -ENOTSUP;
    1566:	f06f 0185 	mvn.w	r1, #133	; 0x85
    156a:	e7e6      	b.n	153a <thread_D_code+0x6e>
	}

	pulse_cycles = (pulse * cycles_per_sec) / USEC_PER_SEC;
    156c:	fba5 6706 	umull	r6, r7, r5, r6
    1570:	fb05 770a 	mla	r7, r5, sl, r7
    1574:	4a12      	ldr	r2, [pc, #72]	; (15c0 <thread_D_code+0xf4>)
    1576:	2300      	movs	r3, #0
    1578:	4630      	mov	r0, r6
    157a:	4639      	mov	r1, r7
    157c:	f7ff fc54 	bl	e28 <__aeabi_uldivmod>
	if (pulse_cycles >= ((uint64_t)1 << 32)) {
    1580:	4a10      	ldr	r2, [pc, #64]	; (15c4 <thread_D_code+0xf8>)
    1582:	f04f 31ff 	mov.w	r1, #4294967295
    1586:	42ba      	cmp	r2, r7
    1588:	bf08      	it	eq
    158a:	42b1      	cmpeq	r1, r6
	pulse_cycles = (pulse * cycles_per_sec) / USEC_PER_SEC;
    158c:	4603      	mov	r3, r0
	if (pulse_cycles >= ((uint64_t)1 << 32)) {
    158e:	d3ea      	bcc.n	1566 <thread_D_code+0x9a>
	return api->pin_set(dev, pwm, period, pulse, flags);
    1590:	68a2      	ldr	r2, [r4, #8]
    1592:	9902      	ldr	r1, [sp, #8]
    1594:	9100      	str	r1, [sp, #0]
    1596:	6815      	ldr	r5, [r2, #0]
    1598:	9a03      	ldr	r2, [sp, #12]
    159a:	210d      	movs	r1, #13
    159c:	4620      	mov	r0, r4
    159e:	47a8      	blx	r5
    if (ret) 
    15a0:	4601      	mov	r1, r0
    15a2:	2800      	cmp	r0, #0
    15a4:	d0b2      	beq.n	150c <thread_D_code+0x40>
    15a6:	e7c8      	b.n	153a <thread_D_code+0x6e>
    15a8:	0000b3f3 	.word	0x0000b3f3
    15ac:	0000b3fa 	.word	0x0000b3fa
    15b0:	0000b41b 	.word	0x0000b41b
    15b4:	0000b447 	.word	0x0000b447
    15b8:	200007b8 	.word	0x200007b8
    15bc:	0000b44d 	.word	0x0000b44d
    15c0:	000f4240 	.word	0x000f4240
    15c4:	000f423f 	.word	0x000f423f
    15c8:	200007ec 	.word	0x200007ec

000015cc <clock>:
/* ##################################                      THREAD IMPLEMENTATION FINITO                    ##################################*/
/* ########################################################################################################################################## */


void clock(){
  count += thread_1_period;
    15cc:	4b17      	ldr	r3, [pc, #92]	; (162c <clock+0x60>)
    15ce:	681a      	ldr	r2, [r3, #0]
    15d0:	f502 72fa 	add.w	r2, r2, #500	; 0x1f4
    15d4:	601a      	str	r2, [r3, #0]

  if (count >= 1000){
    15d6:	681a      	ldr	r2, [r3, #0]
    15d8:	f5b2 7f7a 	cmp.w	r2, #1000	; 0x3e8
    15dc:	4a14      	ldr	r2, [pc, #80]	; (1630 <clock+0x64>)
    15de:	db06      	blt.n	15ee <clock+0x22>
     seconds++;
    15e0:	6811      	ldr	r1, [r2, #0]
    15e2:	3101      	adds	r1, #1
    15e4:	6011      	str	r1, [r2, #0]
     count -= 1000;
    15e6:	6819      	ldr	r1, [r3, #0]
    15e8:	f5a1 717a 	sub.w	r1, r1, #1000	; 0x3e8
    15ec:	6019      	str	r1, [r3, #0]
  }
  if (seconds >= 60){
    15ee:	6813      	ldr	r3, [r2, #0]
    15f0:	2b3b      	cmp	r3, #59	; 0x3b
    15f2:	4b10      	ldr	r3, [pc, #64]	; (1634 <clock+0x68>)
    15f4:	dd05      	ble.n	1602 <clock+0x36>
     minutes++;
    15f6:	6819      	ldr	r1, [r3, #0]
    15f8:	3101      	adds	r1, #1
    15fa:	6019      	str	r1, [r3, #0]
     seconds -= 60;
    15fc:	6811      	ldr	r1, [r2, #0]
    15fe:	393c      	subs	r1, #60	; 0x3c
    1600:	6011      	str	r1, [r2, #0]
  }
  if (minutes >= 60){
    1602:	681a      	ldr	r2, [r3, #0]
    1604:	490c      	ldr	r1, [pc, #48]	; (1638 <clock+0x6c>)
    1606:	2a3b      	cmp	r2, #59	; 0x3b
    1608:	dd04      	ble.n	1614 <clock+0x48>
     hours++;
    160a:	6808      	ldr	r0, [r1, #0]
     minutes -= 60;
    160c:	3a3c      	subs	r2, #60	; 0x3c
     hours++;
    160e:	3001      	adds	r0, #1
    1610:	6008      	str	r0, [r1, #0]
     minutes -= 60;
    1612:	601a      	str	r2, [r3, #0]
  }
  if (hours >= 24){
    1614:	680a      	ldr	r2, [r1, #0]
    1616:	2a17      	cmp	r2, #23
    1618:	dd06      	ble.n	1628 <clock+0x5c>
     days++;
    161a:	4908      	ldr	r1, [pc, #32]	; (163c <clock+0x70>)
    161c:	680a      	ldr	r2, [r1, #0]
    161e:	3201      	adds	r2, #1
    1620:	600a      	str	r2, [r1, #0]
     minutes -= 24;
    1622:	681a      	ldr	r2, [r3, #0]
    1624:	3a18      	subs	r2, #24
    1626:	601a      	str	r2, [r3, #0]
  }
/*
  printk("seconds -> %d | minutes -> %d | hours -> %d\n",seconds,minutes,hours); */
}
    1628:	4770      	bx	lr
    162a:	bf00      	nop
    162c:	2000071c 	.word	0x2000071c
    1630:	20000764 	.word	0x20000764
    1634:	20000748 	.word	0x20000748
    1638:	2000073c 	.word	0x2000073c
    163c:	20000720 	.word	0x20000720

00001640 <thread_1_code>:
{
    1640:	e92d 43f8 	stmdb	sp!, {r3, r4, r5, r6, r7, r8, r9, lr}
	return z_impl_k_uptime_ticks();
    1644:	f009 fb23 	bl	ac8e <z_impl_k_uptime_ticks>
		}
	} else {
		if (result32) {
			return (uint32_t)((t * to_hz + off) / from_hz);
		} else {
			return (t * to_hz + off) / from_hz;
    1648:	f44f 737a 	mov.w	r3, #1000	; 0x3e8
    164c:	460a      	mov	r2, r1
    164e:	fba0 0103 	umull	r0, r1, r0, r3
    1652:	fb03 1102 	mla	r1, r3, r2, r1
    1656:	0bc3      	lsrs	r3, r0, #15
    1658:	ea43 4341 	orr.w	r3, r3, r1, lsl #17
    165c:	0bca      	lsrs	r2, r1, #15
  release_time = k_uptime_get() + thread_1_period;
    165e:	f513 76fa 	adds.w	r6, r3, #500	; 0x1f4
    if(flag_console == 0) clock();
    1662:	f8df 817c 	ldr.w	r8, [pc, #380]	; 17e0 <thread_1_code+0x1a0>
    if(toggle_mode) 
    1666:	4d49      	ldr	r5, [pc, #292]	; (178c <thread_1_code+0x14c>)
    1668:	4c49      	ldr	r4, [pc, #292]	; (1790 <thread_1_code+0x150>)
  release_time = k_uptime_get() + thread_1_period;
    166a:	f142 0700 	adc.w	r7, r2, #0
    if(flag_console == 0) clock();
    166e:	f8d8 3000 	ldr.w	r3, [r8]
    1672:	b90b      	cbnz	r3, 1678 <thread_1_code+0x38>
    1674:	f7ff ffaa 	bl	15cc <clock>
    if(toggle_mode) 
    1678:	f8d5 9000 	ldr.w	r9, [r5]
    167c:	f1b9 0f00 	cmp.w	r9, #0
    1680:	d055      	beq.n	172e <thread_1_code+0xee>
        if(dcToggleFlag1 == 1) 
    1682:	4b44      	ldr	r3, [pc, #272]	; (1794 <thread_1_code+0x154>)
    1684:	681a      	ldr	r2, [r3, #0]
    1686:	2a01      	cmp	r2, #1
           toggle_mode = 0;
    1688:	bf02      	ittt	eq
    168a:	2200      	moveq	r2, #0
           dcToggleFlag1 = 0;
    168c:	601a      	streq	r2, [r3, #0]
           toggle_mode = 0;
    168e:	602a      	streq	r2, [r5, #0]
        if( ((hours_init <= hours) || (hours_finito >= hours)) && ((minutes_init < minutes) || (minutes_finito > minutes)) && ((seconds_init < seconds) || (seconds_finito > seconds)) ) {
    1690:	4b41      	ldr	r3, [pc, #260]	; (1798 <thread_1_code+0x158>)
    1692:	4a42      	ldr	r2, [pc, #264]	; (179c <thread_1_code+0x15c>)
    1694:	681b      	ldr	r3, [r3, #0]
    1696:	6812      	ldr	r2, [r2, #0]
    1698:	429a      	cmp	r2, r3
    169a:	dd03      	ble.n	16a4 <thread_1_code+0x64>
    169c:	4a40      	ldr	r2, [pc, #256]	; (17a0 <thread_1_code+0x160>)
    169e:	6812      	ldr	r2, [r2, #0]
    16a0:	4293      	cmp	r3, r2
    16a2:	dc42      	bgt.n	172a <thread_1_code+0xea>
    16a4:	4b3f      	ldr	r3, [pc, #252]	; (17a4 <thread_1_code+0x164>)
    16a6:	4a40      	ldr	r2, [pc, #256]	; (17a8 <thread_1_code+0x168>)
    16a8:	681b      	ldr	r3, [r3, #0]
    16aa:	6812      	ldr	r2, [r2, #0]
    16ac:	429a      	cmp	r2, r3
    16ae:	db03      	blt.n	16b8 <thread_1_code+0x78>
    16b0:	4a3e      	ldr	r2, [pc, #248]	; (17ac <thread_1_code+0x16c>)
    16b2:	6812      	ldr	r2, [r2, #0]
    16b4:	4293      	cmp	r3, r2
    16b6:	da38      	bge.n	172a <thread_1_code+0xea>
    16b8:	4b3d      	ldr	r3, [pc, #244]	; (17b0 <thread_1_code+0x170>)
    16ba:	6819      	ldr	r1, [r3, #0]
    16bc:	4b3d      	ldr	r3, [pc, #244]	; (17b4 <thread_1_code+0x174>)
    16be:	681a      	ldr	r2, [r3, #0]
    16c0:	4291      	cmp	r1, r2
    16c2:	db04      	blt.n	16ce <thread_1_code+0x8e>
    16c4:	4a3c      	ldr	r2, [pc, #240]	; (17b8 <thread_1_code+0x178>)
    16c6:	6812      	ldr	r2, [r2, #0]
    16c8:	681b      	ldr	r3, [r3, #0]
    16ca:	429a      	cmp	r2, r3
    16cc:	dd2d      	ble.n	172a <thread_1_code+0xea>
           ref = nits_pret;
    16ce:	4b3b      	ldr	r3, [pc, #236]	; (17bc <thread_1_code+0x17c>)
    16d0:	681b      	ldr	r3, [r3, #0]
    16d2:	6023      	str	r3, [r4, #0]
	z_impl_k_sem_give(sem);
    16d4:	483a      	ldr	r0, [pc, #232]	; (17c0 <thread_1_code+0x180>)
    16d6:	f006 ff9d 	bl	8614 <z_impl_k_sem_give>
	return z_impl_k_uptime_ticks();
    16da:	f009 fad8 	bl	ac8e <z_impl_k_uptime_ticks>
    16de:	f44f 737a 	mov.w	r3, #1000	; 0x3e8
    16e2:	460a      	mov	r2, r1
    16e4:	fba0 0103 	umull	r0, r1, r0, r3
    16e8:	fb03 1102 	mla	r1, r3, r2, r1
    16ec:	0bc2      	lsrs	r2, r0, #15
    16ee:	ea42 4241 	orr.w	r2, r2, r1, lsl #17
    16f2:	0bcb      	lsrs	r3, r1, #15
    if (fin_time < release_time) 
    16f4:	42b2      	cmp	r2, r6
    16f6:	eb73 0107 	sbcs.w	r1, r3, r7
    16fa:	dab8      	bge.n	166e <thread_1_code+0x2e>
      k_msleep(release_time - fin_time);
    16fc:	eba6 0c02 	sub.w	ip, r6, r2
 * @return Zero if the requested time has elapsed or the number of milliseconds
 * left to sleep, if thread was woken up by \ref k_wakeup call.
 */
static inline int32_t k_msleep(int32_t ms)
{
	return k_sleep(Z_TIMEOUT_MS(ms));
    1700:	ea2c 7cec 	bic.w	ip, ip, ip, asr #31
    1704:	f44f 4e00 	mov.w	lr, #32768	; 0x8000
    1708:	f240 30e7 	movw	r0, #999	; 0x3e7
    170c:	2100      	movs	r1, #0
    170e:	f44f 727a 	mov.w	r2, #1000	; 0x3e8
    1712:	2300      	movs	r3, #0
    1714:	fbce 010c 	smlal	r0, r1, lr, ip
    1718:	f7ff fb86 	bl	e28 <__aeabi_uldivmod>
	return z_impl_k_sleep(timeout);
    171c:	f006 fe0e 	bl	833c <z_impl_k_sleep>
      release_time += thread_1_period;
    1720:	f516 76fa 	adds.w	r6, r6, #500	; 0x1f4
    1724:	f147 0700 	adc.w	r7, r7, #0
    1728:	e7a1      	b.n	166e <thread_1_code+0x2e>
           ref = 0;
    172a:	2300      	movs	r3, #0
    172c:	e7d1      	b.n	16d2 <thread_1_code+0x92>
        printk("aqui");
    172e:	4825      	ldr	r0, [pc, #148]	; (17c4 <thread_1_code+0x184>)
    1730:	f008 fb85 	bl	9e3e <printk>
       if(dcToggleFlag2 == 1) 
    1734:	4b24      	ldr	r3, [pc, #144]	; (17c8 <thread_1_code+0x188>)
    1736:	681a      	ldr	r2, [r3, #0]
    1738:	2a01      	cmp	r2, #1
          toggle_mode = 1;
    173a:	bf08      	it	eq
    173c:	602a      	streq	r2, [r5, #0]
       if(dcToggleFlag3 == 1) 
    173e:	4a23      	ldr	r2, [pc, #140]	; (17cc <thread_1_code+0x18c>)
          dcToggleFlag2 = 0;
    1740:	bf08      	it	eq
    1742:	f8c3 9000 	streq.w	r9, [r3]
       if(dcToggleFlag3 == 1) 
    1746:	6813      	ldr	r3, [r2, #0]
    1748:	2b01      	cmp	r3, #1
    174a:	d104      	bne.n	1756 <thread_1_code+0x116>
          ref-=10;
    174c:	6823      	ldr	r3, [r4, #0]
    174e:	3b0a      	subs	r3, #10
    1750:	6023      	str	r3, [r4, #0]
          dcToggleFlag3 = 0;
    1752:	2300      	movs	r3, #0
    1754:	6013      	str	r3, [r2, #0]
       if(dcToggleFlag4 == 1) 
    1756:	4a1e      	ldr	r2, [pc, #120]	; (17d0 <thread_1_code+0x190>)
    1758:	6813      	ldr	r3, [r2, #0]
    175a:	2b01      	cmp	r3, #1
    175c:	d104      	bne.n	1768 <thread_1_code+0x128>
          ref+=10;
    175e:	6823      	ldr	r3, [r4, #0]
    1760:	330a      	adds	r3, #10
    1762:	6023      	str	r3, [r4, #0]
          dcToggleFlag4 = 0;
    1764:	2300      	movs	r3, #0
    1766:	6013      	str	r3, [r2, #0]
       if(ref>= 100) ref = 100;
    1768:	6823      	ldr	r3, [r4, #0]
    176a:	2b63      	cmp	r3, #99	; 0x63
    176c:	dd0a      	ble.n	1784 <thread_1_code+0x144>
    176e:	2364      	movs	r3, #100	; 0x64
       if(ref<= 0) ref = 0;
    1770:	6023      	str	r3, [r4, #0]
       printk("ref -> %d",ref);
    1772:	6821      	ldr	r1, [r4, #0]
    1774:	4817      	ldr	r0, [pc, #92]	; (17d4 <thread_1_code+0x194>)
    1776:	f008 fb62 	bl	9e3e <printk>
        var_cd = ref;
    177a:	4b17      	ldr	r3, [pc, #92]	; (17d8 <thread_1_code+0x198>)
    177c:	6822      	ldr	r2, [r4, #0]
    177e:	601a      	str	r2, [r3, #0]
	z_impl_k_sem_give(sem);
    1780:	4816      	ldr	r0, [pc, #88]	; (17dc <thread_1_code+0x19c>)
    1782:	e7a8      	b.n	16d6 <thread_1_code+0x96>
       if(ref<= 0) ref = 0;
    1784:	2b00      	cmp	r3, #0
    1786:	dcf4      	bgt.n	1772 <thread_1_code+0x132>
    1788:	2300      	movs	r3, #0
    178a:	e7f1      	b.n	1770 <thread_1_code+0x130>
    178c:	200000b4 	.word	0x200000b4
    1790:	200000b0 	.word	0x200000b0
    1794:	20000724 	.word	0x20000724
    1798:	2000073c 	.word	0x2000073c
    179c:	20000744 	.word	0x20000744
    17a0:	20000740 	.word	0x20000740
    17a4:	20000748 	.word	0x20000748
    17a8:	20000750 	.word	0x20000750
    17ac:	2000074c 	.word	0x2000074c
    17b0:	2000076c 	.word	0x2000076c
    17b4:	20000764 	.word	0x20000764
    17b8:	20000768 	.word	0x20000768
    17bc:	20000758 	.word	0x20000758
    17c0:	20000770 	.word	0x20000770
    17c4:	0000b472 	.word	0x0000b472
    17c8:	20000728 	.word	0x20000728
    17cc:	2000072c 	.word	0x2000072c
    17d0:	20000730 	.word	0x20000730
    17d4:	0000b477 	.word	0x0000b477
    17d8:	200007ec 	.word	0x200007ec
    17dc:	200007b8 	.word	0x200007b8
    17e0:	20000734 	.word	0x20000734

000017e4 <CONFIG_BUTTONS>:

void CONFIG_BUTTONS()
{
    17e4:	b510      	push	{r4, lr}
    17e6:	482e      	ldr	r0, [pc, #184]	; (18a0 <CONFIG_BUTTONS+0xbc>)
    17e8:	f004 ffee 	bl	67c8 <z_impl_device_get_binding>
    17ec:	4604      	mov	r4, r0
    17ee:	f44f 7288 	mov.w	r2, #272	; 0x110
    17f2:	210b      	movs	r1, #11
    17f4:	f7ff fd9c 	bl	1330 <z_impl_gpio_pin_configure>
    17f8:	f44f 7288 	mov.w	r2, #272	; 0x110
    17fc:	210c      	movs	r1, #12
    17fe:	4620      	mov	r0, r4
    1800:	f7ff fd96 	bl	1330 <z_impl_gpio_pin_configure>
    1804:	f44f 7288 	mov.w	r2, #272	; 0x110
    1808:	2118      	movs	r1, #24
    180a:	4620      	mov	r0, r4
    180c:	f7ff fd90 	bl	1330 <z_impl_gpio_pin_configure>
    1810:	2119      	movs	r1, #25
    1812:	f44f 7288 	mov.w	r2, #272	; 0x110
    1816:	4620      	mov	r0, r4
    1818:	f7ff fd8a 	bl	1330 <z_impl_gpio_pin_configure>
    ret = gpio_pin_configure(gpio0_dev, BOARDBUT1, GPIO_INPUT | GPIO_PULL_UP);
    ret = gpio_pin_configure(gpio0_dev, BOARDBUT2, GPIO_INPUT | GPIO_PULL_UP);
    ret = gpio_pin_configure(gpio0_dev, BOARDBUT3, GPIO_INPUT | GPIO_PULL_UP);
    ret = gpio_pin_configure(gpio0_dev, BOARDBUT4, GPIO_INPUT | GPIO_PULL_UP);

    if (ret < 0) {
    181c:	1e01      	subs	r1, r0, #0
    181e:	da04      	bge.n	182a <CONFIG_BUTTONS+0x46>
        printk("Error %d: Failed to configure BUT 1 \n\r", ret);
    1820:	4820      	ldr	r0, [pc, #128]	; (18a4 <CONFIG_BUTTONS+0xc0>)
    gpio_init_callback(&but3_cb_data, but3press_cbfunction, BIT(BOARDBUT3));
    gpio_add_callback(gpio0_dev, &but3_cb_data);

    gpio_init_callback(&but4_cb_data, but4press_cbfunction, BIT(BOARDBUT4));
    gpio_add_callback(gpio0_dev, &but4_cb_data);
}
    1822:	e8bd 4010 	ldmia.w	sp!, {r4, lr}
	printk("Error %d: failed to configure interrupt on BUT1 pin \n\r", ret);
    1826:	f008 bb0a 	b.w	9e3e <printk>
	return z_impl_gpio_pin_interrupt_configure(port, pin, flags);
    182a:	210b      	movs	r1, #11
    182c:	4620      	mov	r0, r4
    182e:	f7ff fdcd 	bl	13cc <z_impl_gpio_pin_interrupt_configure.constprop.0>
    1832:	210c      	movs	r1, #12
    1834:	4620      	mov	r0, r4
    1836:	f7ff fdc9 	bl	13cc <z_impl_gpio_pin_interrupt_configure.constprop.0>
    183a:	2118      	movs	r1, #24
    183c:	4620      	mov	r0, r4
    183e:	f7ff fdc5 	bl	13cc <z_impl_gpio_pin_interrupt_configure.constprop.0>
    1842:	2119      	movs	r1, #25
    1844:	4620      	mov	r0, r4
    1846:	f7ff fdc1 	bl	13cc <z_impl_gpio_pin_interrupt_configure.constprop.0>
    if (ret != 0) {
    184a:	4601      	mov	r1, r0
    184c:	b108      	cbz	r0, 1852 <CONFIG_BUTTONS+0x6e>
	printk("Error %d: failed to configure interrupt on BUT1 pin \n\r", ret);
    184e:	4816      	ldr	r0, [pc, #88]	; (18a8 <CONFIG_BUTTONS+0xc4>)
    1850:	e7e7      	b.n	1822 <CONFIG_BUTTONS+0x3e>
				      gpio_port_pins_t pin_mask)
{
	__ASSERT(callback, "Callback pointer should not be NULL");
	__ASSERT(handler, "Callback handler pointer should not be NULL");

	callback->handler = handler;
    1852:	4916      	ldr	r1, [pc, #88]	; (18ac <CONFIG_BUTTONS+0xc8>)
    1854:	4b16      	ldr	r3, [pc, #88]	; (18b0 <CONFIG_BUTTONS+0xcc>)
    1856:	604b      	str	r3, [r1, #4]
    gpio_add_callback(gpio0_dev, &but1_cb_data);
    1858:	4620      	mov	r0, r4
	callback->pin_mask = pin_mask;
    185a:	f44f 6300 	mov.w	r3, #2048	; 0x800
    185e:	608b      	str	r3, [r1, #8]
    1860:	f008 f9e2 	bl	9c28 <gpio_add_callback>
	callback->handler = handler;
    1864:	4913      	ldr	r1, [pc, #76]	; (18b4 <CONFIG_BUTTONS+0xd0>)
    1866:	4b14      	ldr	r3, [pc, #80]	; (18b8 <CONFIG_BUTTONS+0xd4>)
    1868:	604b      	str	r3, [r1, #4]
    gpio_add_callback(gpio0_dev, &but2_cb_data);
    186a:	4620      	mov	r0, r4
	callback->pin_mask = pin_mask;
    186c:	f44f 5380 	mov.w	r3, #4096	; 0x1000
    1870:	608b      	str	r3, [r1, #8]
    1872:	f008 f9d9 	bl	9c28 <gpio_add_callback>
	callback->handler = handler;
    1876:	4911      	ldr	r1, [pc, #68]	; (18bc <CONFIG_BUTTONS+0xd8>)
    1878:	4b11      	ldr	r3, [pc, #68]	; (18c0 <CONFIG_BUTTONS+0xdc>)
    187a:	604b      	str	r3, [r1, #4]
    gpio_add_callback(gpio0_dev, &but3_cb_data);
    187c:	4620      	mov	r0, r4
	callback->pin_mask = pin_mask;
    187e:	f04f 7380 	mov.w	r3, #16777216	; 0x1000000
    1882:	608b      	str	r3, [r1, #8]
    1884:	f008 f9d0 	bl	9c28 <gpio_add_callback>
	callback->handler = handler;
    1888:	490e      	ldr	r1, [pc, #56]	; (18c4 <CONFIG_BUTTONS+0xe0>)
    188a:	4b0f      	ldr	r3, [pc, #60]	; (18c8 <CONFIG_BUTTONS+0xe4>)
    188c:	604b      	str	r3, [r1, #4]
    gpio_add_callback(gpio0_dev, &but4_cb_data);
    188e:	4620      	mov	r0, r4
	callback->pin_mask = pin_mask;
    1890:	f04f 7300 	mov.w	r3, #33554432	; 0x2000000
}
    1894:	e8bd 4010 	ldmia.w	sp!, {r4, lr}
    1898:	608b      	str	r3, [r1, #8]
    gpio_add_callback(gpio0_dev, &but4_cb_data);
    189a:	f008 b9c5 	b.w	9c28 <gpio_add_callback>
    189e:	bf00      	nop
    18a0:	0000b3f3 	.word	0x0000b3f3
    18a4:	0000b481 	.word	0x0000b481
    18a8:	0000b4a8 	.word	0x0000b4a8
    18ac:	200006ec 	.word	0x200006ec
    18b0:	00001301 	.word	0x00001301
    18b4:	200006f8 	.word	0x200006f8
    18b8:	0000130d 	.word	0x0000130d
    18bc:	20000704 	.word	0x20000704
    18c0:	00001319 	.word	0x00001319
    18c4:	20000710 	.word	0x20000710
    18c8:	00001325 	.word	0x00001325

000018cc <MENU>:

void MENU()
{
    18cc:	b508      	push	{r3, lr}
  printk("Modo Automatico - SENSOR DE LUZ\n");
    18ce:	480b      	ldr	r0, [pc, #44]	; (18fc <MENU+0x30>)
    18d0:	f008 fab5 	bl	9e3e <printk>
  printk("1 - Modificar data atual\n");
    18d4:	480a      	ldr	r0, [pc, #40]	; (1900 <MENU+0x34>)
    18d6:	f008 fab2 	bl	9e3e <printk>
  printk("2 - Escolher periodo de ON/OFF\n");
    18da:	480a      	ldr	r0, [pc, #40]	; (1904 <MENU+0x38>)
    18dc:	f008 faaf 	bl	9e3e <printk>
  printk("3 - Escolher luminosidade\n");
    18e0:	4809      	ldr	r0, [pc, #36]	; (1908 <MENU+0x3c>)
    18e2:	f008 faac 	bl	9e3e <printk>
  printk("4 - Verficar data atual\n");
    18e6:	4809      	ldr	r0, [pc, #36]	; (190c <MENU+0x40>)
    18e8:	f008 faa9 	bl	9e3e <printk>
  printk("5 - Verificar PWM atual\n");
    18ec:	4808      	ldr	r0, [pc, #32]	; (1910 <MENU+0x44>)
    18ee:	f008 faa6 	bl	9e3e <printk>
  printk("Escolha ->  ");
}
    18f2:	e8bd 4008 	ldmia.w	sp!, {r3, lr}
  printk("Escolha ->  ");
    18f6:	4807      	ldr	r0, [pc, #28]	; (1914 <MENU+0x48>)
    18f8:	f008 baa1 	b.w	9e3e <printk>
    18fc:	0000b4df 	.word	0x0000b4df
    1900:	0000b500 	.word	0x0000b500
    1904:	0000b51a 	.word	0x0000b51a
    1908:	0000b53a 	.word	0x0000b53a
    190c:	0000b555 	.word	0x0000b555
    1910:	0000b56e 	.word	0x0000b56e
    1914:	0000b587 	.word	0x0000b587

00001918 <CHANGE_DATE>:

void CHANGE_DATE () 
{
    1918:	e92d 4ff8 	stmdb	sp!, {r3, r4, r5, r6, r7, r8, r9, sl, fp, lr}
    flag_console = 1;
    191c:	4f39      	ldr	r7, [pc, #228]	; (1a04 <CHANGE_DATE+0xec>)
    hours = 0;
    191e:	4c3a      	ldr	r4, [pc, #232]	; (1a08 <CHANGE_DATE+0xf0>)
    minutes = 0;
    1920:	4d3a      	ldr	r5, [pc, #232]	; (1a0c <CHANGE_DATE+0xf4>)
    seconds = 0;
    1922:	4e3b      	ldr	r6, [pc, #236]	; (1a10 <CHANGE_DATE+0xf8>)
    printk("\n");
    1924:	483b      	ldr	r0, [pc, #236]	; (1a14 <CHANGE_DATE+0xfc>)
    printk("Coloque a hora (ex: 21): ");
    for (int i = 0; i <= 2; i++) {
      scan = console_getchar();
    1926:	f8df 9100 	ldr.w	r9, [pc, #256]	; 1a28 <CHANGE_DATE+0x110>
    flag_console = 1;
    192a:	2301      	movs	r3, #1
    192c:	603b      	str	r3, [r7, #0]
    hours = 0;
    192e:	2300      	movs	r3, #0
    1930:	6023      	str	r3, [r4, #0]
    minutes = 0;
    1932:	602b      	str	r3, [r5, #0]
    seconds = 0;
    1934:	6033      	str	r3, [r6, #0]
    printk("\n");
    1936:	f008 fa82 	bl	9e3e <printk>
    printk("Coloque a hora (ex: 21): ");
    193a:	4837      	ldr	r0, [pc, #220]	; (1a18 <CHANGE_DATE+0x100>)
    193c:	f008 fa7f 	bl	9e3e <printk>
    for (int i = 0; i <= 2; i++) {
    1940:	46b8      	mov	r8, r7
    printk("Coloque a hora (ex: 21): ");
    1942:	f04f 0a03 	mov.w	sl, #3
    1946:	464f      	mov	r7, r9
      console_putchar(scan);
      scan -= 48;
      if ((scan <= 9) && (scan >= 0)) {
        hours = hours * 10 + scan;
    1948:	f04f 0b0a 	mov.w	fp, #10
      scan = console_getchar();
    194c:	f000 fe70 	bl	2630 <console_getchar>
    1950:	f8c9 0000 	str.w	r0, [r9]
      console_putchar(scan);
    1954:	b2c0      	uxtb	r0, r0
    1956:	f000 fe5d 	bl	2614 <console_putchar>
      scan -= 48;
    195a:	f8d9 3000 	ldr.w	r3, [r9]
    195e:	3b30      	subs	r3, #48	; 0x30
      if ((scan <= 9) && (scan >= 0)) {
    1960:	2b09      	cmp	r3, #9
      scan -= 48;
    1962:	f8c9 3000 	str.w	r3, [r9]
      if ((scan <= 9) && (scan >= 0)) {
    1966:	d806      	bhi.n	1976 <CHANGE_DATE+0x5e>
        hours = hours * 10 + scan;
    1968:	6822      	ldr	r2, [r4, #0]
    for (int i = 0; i <= 2; i++) {
    196a:	f1ba 0a01 	subs.w	sl, sl, #1
        hours = hours * 10 + scan;
    196e:	fb0b 3302 	mla	r3, fp, r2, r3
    1972:	6023      	str	r3, [r4, #0]
    for (int i = 0; i <= 2; i++) {
    1974:	d1ea      	bne.n	194c <CHANGE_DATE+0x34>
      } else
        break;
    }
    printk("\n");
    1976:	4827      	ldr	r0, [pc, #156]	; (1a14 <CHANGE_DATE+0xfc>)
    1978:	f008 fa61 	bl	9e3e <printk>
    printk("Coloque os minutos (ex: 21): ");
    197c:	4827      	ldr	r0, [pc, #156]	; (1a1c <CHANGE_DATE+0x104>)
    197e:	f008 fa5e 	bl	9e3e <printk>
    1982:	f04f 0903 	mov.w	r9, #3
    for (int i = 0; i <= 2; i++) {
      scan = console_getchar();
      console_putchar(scan);
      scan -= 48;
      if ((scan <= 9) && (scan >= 0)) {
        minutes = minutes * 10 + scan;
    1986:	f04f 0a0a 	mov.w	sl, #10
      scan = console_getchar();
    198a:	f000 fe51 	bl	2630 <console_getchar>
    198e:	6038      	str	r0, [r7, #0]
      console_putchar(scan);
    1990:	b2c0      	uxtb	r0, r0
    1992:	f000 fe3f 	bl	2614 <console_putchar>
      scan -= 48;
    1996:	683b      	ldr	r3, [r7, #0]
    1998:	3b30      	subs	r3, #48	; 0x30
      if ((scan <= 9) && (scan >= 0)) {
    199a:	2b09      	cmp	r3, #9
      scan -= 48;
    199c:	603b      	str	r3, [r7, #0]
      if ((scan <= 9) && (scan >= 0)) {
    199e:	d806      	bhi.n	19ae <CHANGE_DATE+0x96>
        minutes = minutes * 10 + scan;
    19a0:	682a      	ldr	r2, [r5, #0]
    for (int i = 0; i <= 2; i++) {
    19a2:	f1b9 0901 	subs.w	r9, r9, #1
        minutes = minutes * 10 + scan;
    19a6:	fb0a 3302 	mla	r3, sl, r2, r3
    19aa:	602b      	str	r3, [r5, #0]
    for (int i = 0; i <= 2; i++) {
    19ac:	d1ed      	bne.n	198a <CHANGE_DATE+0x72>
      } else
        break;
    }
    printk("\n");
    19ae:	4819      	ldr	r0, [pc, #100]	; (1a14 <CHANGE_DATE+0xfc>)
    19b0:	f008 fa45 	bl	9e3e <printk>
    printk("Coloque os segundos(ex: 21): ");
    19b4:	481a      	ldr	r0, [pc, #104]	; (1a20 <CHANGE_DATE+0x108>)
    19b6:	f008 fa42 	bl	9e3e <printk>
    19ba:	f04f 0903 	mov.w	r9, #3
    for (int i = 0; i <= 2; i++) {
      scan = console_getchar();
      console_putchar(scan);
      scan -= 48;
      if ((scan <= 9) && (scan >= 0)) {
        seconds = seconds * 10 + scan;
    19be:	f04f 0a0a 	mov.w	sl, #10
      scan = console_getchar();
    19c2:	f000 fe35 	bl	2630 <console_getchar>
    19c6:	6038      	str	r0, [r7, #0]
      console_putchar(scan);
    19c8:	b2c0      	uxtb	r0, r0
    19ca:	f000 fe23 	bl	2614 <console_putchar>
      scan -= 48;
    19ce:	683b      	ldr	r3, [r7, #0]
    19d0:	3b30      	subs	r3, #48	; 0x30
      if ((scan <= 9) && (scan >= 0)) {
    19d2:	2b09      	cmp	r3, #9
      scan -= 48;
    19d4:	603b      	str	r3, [r7, #0]
      if ((scan <= 9) && (scan >= 0)) {
    19d6:	d806      	bhi.n	19e6 <CHANGE_DATE+0xce>
        seconds = seconds * 10 + scan;
    19d8:	6832      	ldr	r2, [r6, #0]
    for (int i = 0; i <= 2; i++) {
    19da:	f1b9 0901 	subs.w	r9, r9, #1
        seconds = seconds * 10 + scan;
    19de:	fb0a 3302 	mla	r3, sl, r2, r3
    19e2:	6033      	str	r3, [r6, #0]
    for (int i = 0; i <= 2; i++) {
    19e4:	d1ed      	bne.n	19c2 <CHANGE_DATE+0xaa>
      } else
        break;
    }
    printk("\n");
    19e6:	480b      	ldr	r0, [pc, #44]	; (1a14 <CHANGE_DATE+0xfc>)
    19e8:	f008 fa29 	bl	9e3e <printk>
    printk("Hora Atual -> %d:%d:%d\n", hours, minutes, seconds);
    19ec:	6833      	ldr	r3, [r6, #0]
    19ee:	682a      	ldr	r2, [r5, #0]
    19f0:	6821      	ldr	r1, [r4, #0]
    19f2:	480c      	ldr	r0, [pc, #48]	; (1a24 <CHANGE_DATE+0x10c>)
    19f4:	f008 fa23 	bl	9e3e <printk>
    flag_console = 0;
    19f8:	2300      	movs	r3, #0
    19fa:	f8c8 3000 	str.w	r3, [r8]
}
    19fe:	e8bd 8ff8 	ldmia.w	sp!, {r3, r4, r5, r6, r7, r8, r9, sl, fp, pc}
    1a02:	bf00      	nop
    1a04:	20000734 	.word	0x20000734
    1a08:	2000073c 	.word	0x2000073c
    1a0c:	20000748 	.word	0x20000748
    1a10:	20000764 	.word	0x20000764
    1a14:	0000c4f0 	.word	0x0000c4f0
    1a18:	0000b594 	.word	0x0000b594
    1a1c:	0000b5ae 	.word	0x0000b5ae
    1a20:	0000b5cc 	.word	0x0000b5cc
    1a24:	0000b5ea 	.word	0x0000b5ea
    1a28:	20000760 	.word	0x20000760

00001a2c <SET_DATE_PWM>:

void SET_DATE_PWM () 
{
    1a2c:	e92d 4ff1 	stmdb	sp!, {r0, r4, r5, r6, r7, r8, r9, sl, fp, lr}
    hours_init = 0;
    1a30:	4f64      	ldr	r7, [pc, #400]	; (1bc4 <SET_DATE_PWM+0x198>)
    minutes_init = 0;
    1a32:	4d65      	ldr	r5, [pc, #404]	; (1bc8 <SET_DATE_PWM+0x19c>)
    seconds_init = 0;
    1a34:	4c65      	ldr	r4, [pc, #404]	; (1bcc <SET_DATE_PWM+0x1a0>)
    printk("\n");
    1a36:	4866      	ldr	r0, [pc, #408]	; (1bd0 <SET_DATE_PWM+0x1a4>)
    hours_init = 0;
    1a38:	2300      	movs	r3, #0
    1a3a:	603b      	str	r3, [r7, #0]
    minutes_init = 0;
    1a3c:	602b      	str	r3, [r5, #0]
    seconds_init = 0;
    1a3e:	6023      	str	r3, [r4, #0]
    printk("\n");
    1a40:	f008 f9fd 	bl	9e3e <printk>
    printk("Coloque a hora de inicio(ex: 21): ");
    1a44:	4863      	ldr	r0, [pc, #396]	; (1bd4 <SET_DATE_PWM+0x1a8>)
    1a46:	46a9      	mov	r9, r5
    1a48:	f008 f9f9 	bl	9e3e <printk>
    for (int i = 0; i <= 2; i++) {
      scan = console_getchar();
    1a4c:	4d62      	ldr	r5, [pc, #392]	; (1bd8 <SET_DATE_PWM+0x1ac>)
    1a4e:	46b8      	mov	r8, r7
    1a50:	46a2      	mov	sl, r4
    printk("Coloque a hora de inicio(ex: 21): ");
    1a52:	2603      	movs	r6, #3
    1a54:	462c      	mov	r4, r5
      console_putchar(scan);
      scan -= 48;
      if ((scan <= 9) && (scan >= 0)) {
        hours_init = hours_init * 10 + scan;
    1a56:	270a      	movs	r7, #10
      scan = console_getchar();
    1a58:	f000 fdea 	bl	2630 <console_getchar>
    1a5c:	6028      	str	r0, [r5, #0]
      console_putchar(scan);
    1a5e:	b2c0      	uxtb	r0, r0
    1a60:	f000 fdd8 	bl	2614 <console_putchar>
      scan -= 48;
    1a64:	682b      	ldr	r3, [r5, #0]
    1a66:	3b30      	subs	r3, #48	; 0x30
      if ((scan <= 9) && (scan >= 0)) {
    1a68:	2b09      	cmp	r3, #9
      scan -= 48;
    1a6a:	602b      	str	r3, [r5, #0]
      if ((scan <= 9) && (scan >= 0)) {
    1a6c:	d807      	bhi.n	1a7e <SET_DATE_PWM+0x52>
        hours_init = hours_init * 10 + scan;
    1a6e:	f8d8 2000 	ldr.w	r2, [r8]
    for (int i = 0; i <= 2; i++) {
    1a72:	3e01      	subs	r6, #1
        hours_init = hours_init * 10 + scan;
    1a74:	fb07 3302 	mla	r3, r7, r2, r3
    1a78:	f8c8 3000 	str.w	r3, [r8]
    for (int i = 0; i <= 2; i++) {
    1a7c:	d1ec      	bne.n	1a58 <SET_DATE_PWM+0x2c>
      } else
        break;
    }
    printk("\n");
    1a7e:	4854      	ldr	r0, [pc, #336]	; (1bd0 <SET_DATE_PWM+0x1a4>)
    1a80:	f008 f9dd 	bl	9e3e <printk>
    printk("Coloque os minutos de inicio (ex: 21): ");
    1a84:	4855      	ldr	r0, [pc, #340]	; (1bdc <SET_DATE_PWM+0x1b0>)
    1a86:	f008 f9da 	bl	9e3e <printk>
    1a8a:	2503      	movs	r5, #3
    for (int i = 0; i <= 2; i++) {
      scan = console_getchar();
      console_putchar(scan);
      scan -= 48;
      if ((scan <= 9) && (scan >= 0)) {
        minutes_init = minutes_init * 10 + scan;
    1a8c:	260a      	movs	r6, #10
      scan = console_getchar();
    1a8e:	f000 fdcf 	bl	2630 <console_getchar>
    1a92:	6020      	str	r0, [r4, #0]
      console_putchar(scan);
    1a94:	b2c0      	uxtb	r0, r0
    1a96:	f000 fdbd 	bl	2614 <console_putchar>
      scan -= 48;
    1a9a:	6823      	ldr	r3, [r4, #0]
    1a9c:	3b30      	subs	r3, #48	; 0x30
      if ((scan <= 9) && (scan >= 0)) {
    1a9e:	2b09      	cmp	r3, #9
      scan -= 48;
    1aa0:	6023      	str	r3, [r4, #0]
      if ((scan <= 9) && (scan >= 0)) {
    1aa2:	d807      	bhi.n	1ab4 <SET_DATE_PWM+0x88>
        minutes_init = minutes_init * 10 + scan;
    1aa4:	f8d9 2000 	ldr.w	r2, [r9]
    for (int i = 0; i <= 2; i++) {
    1aa8:	3d01      	subs	r5, #1
        minutes_init = minutes_init * 10 + scan;
    1aaa:	fb06 3302 	mla	r3, r6, r2, r3
    1aae:	f8c9 3000 	str.w	r3, [r9]
    for (int i = 0; i <= 2; i++) {
    1ab2:	d1ec      	bne.n	1a8e <SET_DATE_PWM+0x62>
      } else
        break;
    }
    printk("\n");
    1ab4:	4846      	ldr	r0, [pc, #280]	; (1bd0 <SET_DATE_PWM+0x1a4>)
    1ab6:	f008 f9c2 	bl	9e3e <printk>
    printk("Coloque os segundos de inicio (ex: 21): ");
    1aba:	4849      	ldr	r0, [pc, #292]	; (1be0 <SET_DATE_PWM+0x1b4>)
    1abc:	f008 f9bf 	bl	9e3e <printk>
    1ac0:	2503      	movs	r5, #3
    for (int i = 0; i <= 2; i++) {
      scan = console_getchar();
      console_putchar(scan);
      scan -= 48;
      if ((scan <= 9) && (scan >= 0)) {
        seconds_init = seconds_init * 10 + scan;
    1ac2:	260a      	movs	r6, #10
      scan = console_getchar();
    1ac4:	f000 fdb4 	bl	2630 <console_getchar>
    1ac8:	6020      	str	r0, [r4, #0]
      console_putchar(scan);
    1aca:	b2c0      	uxtb	r0, r0
    1acc:	f000 fda2 	bl	2614 <console_putchar>
      scan -= 48;
    1ad0:	6823      	ldr	r3, [r4, #0]
    1ad2:	3b30      	subs	r3, #48	; 0x30
      if ((scan <= 9) && (scan >= 0)) {
    1ad4:	2b09      	cmp	r3, #9
      scan -= 48;
    1ad6:	6023      	str	r3, [r4, #0]
      if ((scan <= 9) && (scan >= 0)) {
    1ad8:	d807      	bhi.n	1aea <SET_DATE_PWM+0xbe>
        seconds_init = seconds_init * 10 + scan;
    1ada:	f8da 2000 	ldr.w	r2, [sl]
    for (int i = 0; i <= 2; i++) {
    1ade:	3d01      	subs	r5, #1
        seconds_init = seconds_init * 10 + scan;
    1ae0:	fb06 3302 	mla	r3, r6, r2, r3
    1ae4:	f8ca 3000 	str.w	r3, [sl]
    for (int i = 0; i <= 2; i++) {
    1ae8:	d1ec      	bne.n	1ac4 <SET_DATE_PWM+0x98>
      } else
        break;
    }
    hours_finito = 0;
    1aea:	4d3e      	ldr	r5, [pc, #248]	; (1be4 <SET_DATE_PWM+0x1b8>)
    minutes_finito = 0;
    1aec:	4e3e      	ldr	r6, [pc, #248]	; (1be8 <SET_DATE_PWM+0x1bc>)
    seconds_finito = 0;
    1aee:	4f3f      	ldr	r7, [pc, #252]	; (1bec <SET_DATE_PWM+0x1c0>)
    printk("\n");
    1af0:	4837      	ldr	r0, [pc, #220]	; (1bd0 <SET_DATE_PWM+0x1a4>)
    hours_finito = 0;
    1af2:	2300      	movs	r3, #0
    1af4:	602b      	str	r3, [r5, #0]
    minutes_finito = 0;
    1af6:	6033      	str	r3, [r6, #0]
    seconds_finito = 0;
    1af8:	603b      	str	r3, [r7, #0]
    printk("\n");
    1afa:	f008 f9a0 	bl	9e3e <printk>
    printk("Coloque a hora de fim (ex: 21): ");
    1afe:	483c      	ldr	r0, [pc, #240]	; (1bf0 <SET_DATE_PWM+0x1c4>)
    1b00:	f008 f99d 	bl	9e3e <printk>
    1b04:	f04f 0b03 	mov.w	fp, #3
    for (int i = 0; i <= 2; i++) {
      scan = console_getchar();
    1b08:	f000 fd92 	bl	2630 <console_getchar>
    1b0c:	6020      	str	r0, [r4, #0]
      console_putchar(scan);
    1b0e:	b2c0      	uxtb	r0, r0
    1b10:	f000 fd80 	bl	2614 <console_putchar>
      scan -= 48;
    1b14:	6823      	ldr	r3, [r4, #0]
    1b16:	3b30      	subs	r3, #48	; 0x30
      if ((scan <= 9) && (scan >= 0)) {
    1b18:	2b09      	cmp	r3, #9
      scan -= 48;
    1b1a:	6023      	str	r3, [r4, #0]
      if ((scan <= 9) && (scan >= 0)) {
    1b1c:	d807      	bhi.n	1b2e <SET_DATE_PWM+0x102>
        hours_finito = hours_finito * 10 + scan;
    1b1e:	6829      	ldr	r1, [r5, #0]
    1b20:	220a      	movs	r2, #10
    1b22:	fb02 3301 	mla	r3, r2, r1, r3
    for (int i = 0; i <= 2; i++) {
    1b26:	f1bb 0b01 	subs.w	fp, fp, #1
        hours_finito = hours_finito * 10 + scan;
    1b2a:	602b      	str	r3, [r5, #0]
    for (int i = 0; i <= 2; i++) {
    1b2c:	d1ec      	bne.n	1b08 <SET_DATE_PWM+0xdc>
      } else
        break;
    }
    printk("\n");
    1b2e:	4828      	ldr	r0, [pc, #160]	; (1bd0 <SET_DATE_PWM+0x1a4>)
    1b30:	f008 f985 	bl	9e3e <printk>
    printk("Coloque os minutos de fim (ex: 21): ");
    1b34:	482f      	ldr	r0, [pc, #188]	; (1bf4 <SET_DATE_PWM+0x1c8>)
    1b36:	f008 f982 	bl	9e3e <printk>
    1b3a:	f04f 0b03 	mov.w	fp, #3
    for (int i = 0; i <= 2; i++) {
      scan = console_getchar();
    1b3e:	f000 fd77 	bl	2630 <console_getchar>
    1b42:	6020      	str	r0, [r4, #0]
      console_putchar(scan);
    1b44:	b2c0      	uxtb	r0, r0
    1b46:	f000 fd65 	bl	2614 <console_putchar>
      scan -= 48;
    1b4a:	6823      	ldr	r3, [r4, #0]
    1b4c:	3b30      	subs	r3, #48	; 0x30
      if ((scan <= 9) && (scan >= 0)) {
    1b4e:	2b09      	cmp	r3, #9
      scan -= 48;
    1b50:	6023      	str	r3, [r4, #0]
      if ((scan <= 9) && (scan >= 0)) {
    1b52:	d807      	bhi.n	1b64 <SET_DATE_PWM+0x138>
        minutes_finito = minutes_finito * 10 + scan;
    1b54:	6831      	ldr	r1, [r6, #0]
    1b56:	220a      	movs	r2, #10
    1b58:	fb02 3301 	mla	r3, r2, r1, r3
    for (int i = 0; i <= 2; i++) {
    1b5c:	f1bb 0b01 	subs.w	fp, fp, #1
        minutes_finito = minutes_finito * 10 + scan;
    1b60:	6033      	str	r3, [r6, #0]
    for (int i = 0; i <= 2; i++) {
    1b62:	d1ec      	bne.n	1b3e <SET_DATE_PWM+0x112>
      } else
        break;
    }
    printk("\n");
    1b64:	481a      	ldr	r0, [pc, #104]	; (1bd0 <SET_DATE_PWM+0x1a4>)
    1b66:	f008 f96a 	bl	9e3e <printk>
    printk("Coloque os segundos de fim (ex: 21): ");
    1b6a:	4823      	ldr	r0, [pc, #140]	; (1bf8 <SET_DATE_PWM+0x1cc>)
    1b6c:	f008 f967 	bl	9e3e <printk>
    1b70:	f04f 0b03 	mov.w	fp, #3
    for (int i = 0; i <= 2; i++) {
      scan = console_getchar();
    1b74:	f000 fd5c 	bl	2630 <console_getchar>
    1b78:	6020      	str	r0, [r4, #0]
      console_putchar(scan);
    1b7a:	b2c0      	uxtb	r0, r0
    1b7c:	f000 fd4a 	bl	2614 <console_putchar>
      scan -= 48;
    1b80:	6823      	ldr	r3, [r4, #0]
    1b82:	3b30      	subs	r3, #48	; 0x30
      if ((scan <= 9) && (scan >= 0)) {
    1b84:	2b09      	cmp	r3, #9
      scan -= 48;
    1b86:	6023      	str	r3, [r4, #0]
      if ((scan <= 9) && (scan >= 0)) {
    1b88:	d807      	bhi.n	1b9a <SET_DATE_PWM+0x16e>
        seconds_finito = seconds_finito * 10 + scan;
    1b8a:	6839      	ldr	r1, [r7, #0]
    1b8c:	220a      	movs	r2, #10
    1b8e:	fb02 3301 	mla	r3, r2, r1, r3
    for (int i = 0; i <= 2; i++) {
    1b92:	f1bb 0b01 	subs.w	fp, fp, #1
        seconds_finito = seconds_finito * 10 + scan;
    1b96:	603b      	str	r3, [r7, #0]
    for (int i = 0; i <= 2; i++) {
    1b98:	d1ec      	bne.n	1b74 <SET_DATE_PWM+0x148>
      } else
        break;
    }

    printk("\n");
    1b9a:	480d      	ldr	r0, [pc, #52]	; (1bd0 <SET_DATE_PWM+0x1a4>)
    1b9c:	f008 f94f 	bl	9e3e <printk>
    printk("Hora Inicial -> %d:%d:%d\n", hours_init, minutes_init, seconds_init);
    1ba0:	f8da 3000 	ldr.w	r3, [sl]
    1ba4:	f8d9 2000 	ldr.w	r2, [r9]
    1ba8:	f8d8 1000 	ldr.w	r1, [r8]
    1bac:	4813      	ldr	r0, [pc, #76]	; (1bfc <SET_DATE_PWM+0x1d0>)
    1bae:	f008 f946 	bl	9e3e <printk>
    printk("Hora Final -> %d:%d:%d\n", hours_finito, minutes_finito, seconds_finito);
    1bb2:	683b      	ldr	r3, [r7, #0]
    1bb4:	6832      	ldr	r2, [r6, #0]
    1bb6:	6829      	ldr	r1, [r5, #0]
    1bb8:	4811      	ldr	r0, [pc, #68]	; (1c00 <SET_DATE_PWM+0x1d4>)
}
    1bba:	b001      	add	sp, #4
    1bbc:	e8bd 4ff0 	ldmia.w	sp!, {r4, r5, r6, r7, r8, r9, sl, fp, lr}
    printk("Hora Final -> %d:%d:%d\n", hours_finito, minutes_finito, seconds_finito);
    1bc0:	f008 b93d 	b.w	9e3e <printk>
    1bc4:	20000744 	.word	0x20000744
    1bc8:	20000750 	.word	0x20000750
    1bcc:	2000076c 	.word	0x2000076c
    1bd0:	0000c4f0 	.word	0x0000c4f0
    1bd4:	0000b602 	.word	0x0000b602
    1bd8:	20000760 	.word	0x20000760
    1bdc:	0000b625 	.word	0x0000b625
    1be0:	0000b64d 	.word	0x0000b64d
    1be4:	20000740 	.word	0x20000740
    1be8:	2000074c 	.word	0x2000074c
    1bec:	20000768 	.word	0x20000768
    1bf0:	0000b676 	.word	0x0000b676
    1bf4:	0000b697 	.word	0x0000b697
    1bf8:	0000b6bc 	.word	0x0000b6bc
    1bfc:	0000b6e2 	.word	0x0000b6e2
    1c00:	0000b6fc 	.word	0x0000b6fc

00001c04 <SET_PWM>:

void SET_PWM() {
    1c04:	b5f8      	push	{r3, r4, r5, r6, r7, lr}
    printk("\n");
    1c06:	4813      	ldr	r0, [pc, #76]	; (1c54 <SET_PWM+0x50>)
    printk("Coloque a iluminusiao pretendida em %(ex: 21): ");
    nits_pret = 0;
    1c08:	4c13      	ldr	r4, [pc, #76]	; (1c58 <SET_PWM+0x54>)
    for (int i = 0; i <= 2; i++) {
      scan = console_getchar();
    1c0a:	4e14      	ldr	r6, [pc, #80]	; (1c5c <SET_PWM+0x58>)
    printk("\n");
    1c0c:	f008 f917 	bl	9e3e <printk>
    printk("Coloque a iluminusiao pretendida em %(ex: 21): ");
    1c10:	4813      	ldr	r0, [pc, #76]	; (1c60 <SET_PWM+0x5c>)
    1c12:	f008 f914 	bl	9e3e <printk>
    nits_pret = 0;
    1c16:	2300      	movs	r3, #0
    1c18:	6023      	str	r3, [r4, #0]
    1c1a:	2503      	movs	r5, #3
      console_putchar(scan);
      scan -= 48;
      if ((scan <= 9) && (scan >= 0)) {
        nits_pret = nits_pret * 10 + scan;
    1c1c:	270a      	movs	r7, #10
      scan = console_getchar();
    1c1e:	f000 fd07 	bl	2630 <console_getchar>
    1c22:	6030      	str	r0, [r6, #0]
      console_putchar(scan);
    1c24:	b2c0      	uxtb	r0, r0
    1c26:	f000 fcf5 	bl	2614 <console_putchar>
      scan -= 48;
    1c2a:	6833      	ldr	r3, [r6, #0]
    1c2c:	3b30      	subs	r3, #48	; 0x30
      if ((scan <= 9) && (scan >= 0)) {
    1c2e:	2b09      	cmp	r3, #9
      scan -= 48;
    1c30:	6033      	str	r3, [r6, #0]
      if ((scan <= 9) && (scan >= 0)) {
    1c32:	d805      	bhi.n	1c40 <SET_PWM+0x3c>
        nits_pret = nits_pret * 10 + scan;
    1c34:	6822      	ldr	r2, [r4, #0]
    for (int i = 0; i <= 2; i++) {
    1c36:	3d01      	subs	r5, #1
        nits_pret = nits_pret * 10 + scan;
    1c38:	fb07 3302 	mla	r3, r7, r2, r3
    1c3c:	6023      	str	r3, [r4, #0]
    for (int i = 0; i <= 2; i++) {
    1c3e:	d1ee      	bne.n	1c1e <SET_PWM+0x1a>
      } else
        break;
    }

    printk("\n");
    1c40:	4804      	ldr	r0, [pc, #16]	; (1c54 <SET_PWM+0x50>)
    1c42:	f008 f8fc 	bl	9e3e <printk>
    printk("Luminosidade -> %d\n", nits_pret);
    1c46:	6821      	ldr	r1, [r4, #0]
    1c48:	4806      	ldr	r0, [pc, #24]	; (1c64 <SET_PWM+0x60>)
}
    1c4a:	e8bd 40f8 	ldmia.w	sp!, {r3, r4, r5, r6, r7, lr}
    printk("Luminosidade -> %d\n", nits_pret);
    1c4e:	f008 b8f6 	b.w	9e3e <printk>
    1c52:	bf00      	nop
    1c54:	0000c4f0 	.word	0x0000c4f0
    1c58:	20000758 	.word	0x20000758
    1c5c:	20000760 	.word	0x20000760
    1c60:	0000b714 	.word	0x0000b714
    1c64:	0000b745 	.word	0x0000b745

00001c68 <main>:
{    
    1c68:	b5f0      	push	{r4, r5, r6, r7, lr}
    1c6a:	b089      	sub	sp, #36	; 0x24
    1c6c:	485f      	ldr	r0, [pc, #380]	; (1dec <main+0x184>)
    adc_dev = device_get_binding(DT_LABEL(ADC_NID));
    1c6e:	4c60      	ldr	r4, [pc, #384]	; (1df0 <main+0x188>)
    1c70:	f004 fdaa 	bl	67c8 <z_impl_device_get_binding>
    1c74:	6020      	str	r0, [r4, #0]
	if (!adc_dev) {
    1c76:	b910      	cbnz	r0, 1c7e <main+0x16>
        printk("ADC device_get_binding() failed\n");
    1c78:	485e      	ldr	r0, [pc, #376]	; (1df4 <main+0x18c>)
    1c7a:	f008 f8e0 	bl	9e3e <printk>
    err = adc_channel_setup(adc_dev, &my_channel_cfg);
    1c7e:	6820      	ldr	r0, [r4, #0]
	return api->channel_setup(dev, channel_cfg);
    1c80:	6883      	ldr	r3, [r0, #8]
    1c82:	495d      	ldr	r1, [pc, #372]	; (1df8 <main+0x190>)
    1c84:	681b      	ldr	r3, [r3, #0]
    1c86:	4798      	blx	r3
    if (err) {
    1c88:	4601      	mov	r1, r0
    1c8a:	b110      	cbz	r0, 1c92 <main+0x2a>
        printk("adc_channel_setup() failed with error code %d\n", err);
    1c8c:	485b      	ldr	r0, [pc, #364]	; (1dfc <main+0x194>)
    1c8e:	f008 f8d6 	bl	9e3e <printk>
    NRF_SAADC->TASKS_CALIBRATEOFFSET = 1;
    1c92:	4b5b      	ldr	r3, [pc, #364]	; (1e00 <main+0x198>)
    1c94:	2501      	movs	r5, #1
    1c96:	60dd      	str	r5, [r3, #12]
    CONFIG_BUTTONS();
    1c98:	f7ff fda4 	bl	17e4 <CONFIG_BUTTONS>
	return z_impl_k_sem_init(sem, initial_count, limit);
    1c9c:	2100      	movs	r1, #0
    1c9e:	462a      	mov	r2, r5
    1ca0:	4858      	ldr	r0, [pc, #352]	; (1e04 <main+0x19c>)
    1ca2:	f008 ffd5 	bl	ac50 <z_impl_k_sem_init>
    1ca6:	2100      	movs	r1, #0
    1ca8:	462a      	mov	r2, r5
    1caa:	4857      	ldr	r0, [pc, #348]	; (1e08 <main+0x1a0>)
    1cac:	f008 ffd0 	bl	ac50 <z_impl_k_sem_init>
    1cb0:	2100      	movs	r1, #0
    1cb2:	462a      	mov	r2, r5
    1cb4:	4855      	ldr	r0, [pc, #340]	; (1e0c <main+0x1a4>)
    1cb6:	f008 ffcb 	bl	ac50 <z_impl_k_sem_init>
    1cba:	2100      	movs	r1, #0
    1cbc:	462a      	mov	r2, r5
    1cbe:	4854      	ldr	r0, [pc, #336]	; (1e10 <main+0x1a8>)
    1cc0:	f008 ffc6 	bl	ac50 <z_impl_k_sem_init>
    thread_1_tid = k_thread_create(&thread_1_data, thread_1_stack,
    1cc4:	2600      	movs	r6, #0
    1cc6:	2700      	movs	r7, #0
	return z_impl_k_thread_create(new_thread, stack, stack_size, entry, p1, p2, p3, prio, options, delay);
    1cc8:	2400      	movs	r4, #0
    1cca:	e9cd 6706 	strd	r6, r7, [sp, #24]
    1cce:	e9cd 5403 	strd	r5, r4, [sp, #12]
    1cd2:	e9cd 4401 	strd	r4, r4, [sp, #4]
    1cd6:	4b4f      	ldr	r3, [pc, #316]	; (1e14 <main+0x1ac>)
    1cd8:	494f      	ldr	r1, [pc, #316]	; (1e18 <main+0x1b0>)
    1cda:	9400      	str	r4, [sp, #0]
    1cdc:	f44f 6280 	mov.w	r2, #1024	; 0x400
    1ce0:	484e      	ldr	r0, [pc, #312]	; (1e1c <main+0x1b4>)
    1ce2:	f006 fde3 	bl	88ac <z_impl_k_thread_create>
    1ce6:	4b4e      	ldr	r3, [pc, #312]	; (1e20 <main+0x1b8>)
    1ce8:	6018      	str	r0, [r3, #0]
    1cea:	4b4e      	ldr	r3, [pc, #312]	; (1e24 <main+0x1bc>)
    1cec:	494e      	ldr	r1, [pc, #312]	; (1e28 <main+0x1c0>)
    1cee:	9400      	str	r4, [sp, #0]
    1cf0:	e9cd 6706 	strd	r6, r7, [sp, #24]
    1cf4:	e9cd 5403 	strd	r5, r4, [sp, #12]
    1cf8:	e9cd 4401 	strd	r4, r4, [sp, #4]
    1cfc:	f44f 6280 	mov.w	r2, #1024	; 0x400
    1d00:	484a      	ldr	r0, [pc, #296]	; (1e2c <main+0x1c4>)
    1d02:	f006 fdd3 	bl	88ac <z_impl_k_thread_create>
    thread_A_tid = k_thread_create(&thread_A_data, thread_A_stack,
    1d06:	4b4a      	ldr	r3, [pc, #296]	; (1e30 <main+0x1c8>)
    1d08:	6018      	str	r0, [r3, #0]
    1d0a:	4b4a      	ldr	r3, [pc, #296]	; (1e34 <main+0x1cc>)
    1d0c:	494a      	ldr	r1, [pc, #296]	; (1e38 <main+0x1d0>)
    1d0e:	9400      	str	r4, [sp, #0]
    1d10:	e9cd 6706 	strd	r6, r7, [sp, #24]
    1d14:	e9cd 5403 	strd	r5, r4, [sp, #12]
    1d18:	e9cd 4401 	strd	r4, r4, [sp, #4]
    1d1c:	f44f 6280 	mov.w	r2, #1024	; 0x400
    1d20:	4846      	ldr	r0, [pc, #280]	; (1e3c <main+0x1d4>)
    1d22:	f006 fdc3 	bl	88ac <z_impl_k_thread_create>
    thread_B_tid = k_thread_create(&thread_B_data, thread_B_stack,
    1d26:	4b46      	ldr	r3, [pc, #280]	; (1e40 <main+0x1d8>)
    1d28:	6018      	str	r0, [r3, #0]
    1d2a:	4b46      	ldr	r3, [pc, #280]	; (1e44 <main+0x1dc>)
    1d2c:	4946      	ldr	r1, [pc, #280]	; (1e48 <main+0x1e0>)
    1d2e:	9400      	str	r4, [sp, #0]
    1d30:	e9cd 6706 	strd	r6, r7, [sp, #24]
    1d34:	e9cd 5403 	strd	r5, r4, [sp, #12]
    1d38:	e9cd 4401 	strd	r4, r4, [sp, #4]
    1d3c:	f44f 6280 	mov.w	r2, #1024	; 0x400
    1d40:	4842      	ldr	r0, [pc, #264]	; (1e4c <main+0x1e4>)
    1d42:	f006 fdb3 	bl	88ac <z_impl_k_thread_create>
    thread_C_tid = k_thread_create(&thread_C_data, thread_C_stack,
    1d46:	4b42      	ldr	r3, [pc, #264]	; (1e50 <main+0x1e8>)
    1d48:	6018      	str	r0, [r3, #0]
    1d4a:	4942      	ldr	r1, [pc, #264]	; (1e54 <main+0x1ec>)
    1d4c:	4b42      	ldr	r3, [pc, #264]	; (1e58 <main+0x1f0>)
    1d4e:	9400      	str	r4, [sp, #0]
    1d50:	e9cd 5403 	strd	r5, r4, [sp, #12]
    1d54:	f44f 6280 	mov.w	r2, #1024	; 0x400
    1d58:	e9cd 6706 	strd	r6, r7, [sp, #24]
    1d5c:	e9cd 4401 	strd	r4, r4, [sp, #4]
    1d60:	483e      	ldr	r0, [pc, #248]	; (1e5c <main+0x1f4>)
        choice = console_getchar();
    1d62:	4d3f      	ldr	r5, [pc, #252]	; (1e60 <main+0x1f8>)
          printk("\n");
    1d64:	4e3f      	ldr	r6, [pc, #252]	; (1e64 <main+0x1fc>)
    1d66:	f006 fda1 	bl	88ac <z_impl_k_thread_create>
    thread_D_tid = k_thread_create(&thread_D_data, thread_D_stack,
    1d6a:	4b3f      	ldr	r3, [pc, #252]	; (1e68 <main+0x200>)
    1d6c:	6018      	str	r0, [r3, #0]
    console_init();  
    1d6e:	f000 fc6f 	bl	2650 <console_init>
    printf("\n\x1b[2J\r");
    1d72:	483e      	ldr	r0, [pc, #248]	; (1e6c <main+0x204>)
    1d74:	f001 fede 	bl	3b34 <printf>
    1d78:	462c      	mov	r4, r5
          flag_setted = 1;
    1d7a:	4f3d      	ldr	r7, [pc, #244]	; (1e70 <main+0x208>)
        MENU();
    1d7c:	f7ff fda6 	bl	18cc <MENU>
        choice = console_getchar();
    1d80:	f000 fc56 	bl	2630 <console_getchar>
    1d84:	b2c0      	uxtb	r0, r0
    1d86:	7028      	strb	r0, [r5, #0]
        console_putchar(choice);
    1d88:	f000 fc44 	bl	2614 <console_putchar>
        if(choice == '1') {
    1d8c:	782b      	ldrb	r3, [r5, #0]
    1d8e:	2b31      	cmp	r3, #49	; 0x31
    1d90:	d101      	bne.n	1d96 <main+0x12e>
          CHANGE_DATE();
    1d92:	f7ff fdc1 	bl	1918 <CHANGE_DATE>
        if(choice == '2') {
    1d96:	7823      	ldrb	r3, [r4, #0]
    1d98:	2b32      	cmp	r3, #50	; 0x32
    1d9a:	d103      	bne.n	1da4 <main+0x13c>
          SET_DATE_PWM();
    1d9c:	f7ff fe46 	bl	1a2c <SET_DATE_PWM>
          flag_setted = 1;
    1da0:	2301      	movs	r3, #1
    1da2:	603b      	str	r3, [r7, #0]
        if(choice == '3') {
    1da4:	7823      	ldrb	r3, [r4, #0]
    1da6:	2b33      	cmp	r3, #51	; 0x33
    1da8:	d101      	bne.n	1dae <main+0x146>
          SET_PWM();
    1daa:	f7ff ff2b 	bl	1c04 <SET_PWM>
        if(choice == '4') {
    1dae:	7823      	ldrb	r3, [r4, #0]
    1db0:	2b34      	cmp	r3, #52	; 0x34
    1db2:	d10b      	bne.n	1dcc <main+0x164>
          printk("\n");
    1db4:	4630      	mov	r0, r6
    1db6:	f008 f842 	bl	9e3e <printk>
          printk("Hora Atual -> %d:%d:%d\n", hours, minutes, seconds);
    1dba:	4b2e      	ldr	r3, [pc, #184]	; (1e74 <main+0x20c>)
    1dbc:	4a2e      	ldr	r2, [pc, #184]	; (1e78 <main+0x210>)
    1dbe:	492f      	ldr	r1, [pc, #188]	; (1e7c <main+0x214>)
    1dc0:	681b      	ldr	r3, [r3, #0]
    1dc2:	6812      	ldr	r2, [r2, #0]
    1dc4:	6809      	ldr	r1, [r1, #0]
    1dc6:	482e      	ldr	r0, [pc, #184]	; (1e80 <main+0x218>)
    1dc8:	f008 f839 	bl	9e3e <printk>
        if(choice == '5') {
    1dcc:	7823      	ldrb	r3, [r4, #0]
    1dce:	2b35      	cmp	r3, #53	; 0x35
    1dd0:	d1d4      	bne.n	1d7c <main+0x114>
          printk("\n");
    1dd2:	4630      	mov	r0, r6
    1dd4:	f008 f833 	bl	9e3e <printk>
          printk("ACTUAL -> %d    //    LUMINOSITY -> %d    //    PWM -> %d",ref, nits,pwm);
    1dd8:	4b2a      	ldr	r3, [pc, #168]	; (1e84 <main+0x21c>)
    1dda:	492b      	ldr	r1, [pc, #172]	; (1e88 <main+0x220>)
    1ddc:	681a      	ldr	r2, [r3, #0]
    1dde:	4b2b      	ldr	r3, [pc, #172]	; (1e8c <main+0x224>)
    1de0:	6809      	ldr	r1, [r1, #0]
    1de2:	681b      	ldr	r3, [r3, #0]
    1de4:	482a      	ldr	r0, [pc, #168]	; (1e90 <main+0x228>)
    1de6:	f008 f82a 	bl	9e3e <printk>
    1dea:	e7c6      	b.n	1d7a <main+0x112>
    1dec:	0000b759 	.word	0x0000b759
    1df0:	200006e8 	.word	0x200006e8
    1df4:	0000b75f 	.word	0x0000b75f
    1df8:	0000b25c 	.word	0x0000b25c
    1dfc:	0000b780 	.word	0x0000b780
    1e00:	40007000 	.word	0x40007000
    1e04:	20000770 	.word	0x20000770
    1e08:	20000788 	.word	0x20000788
    1e0c:	200007a0 	.word	0x200007a0
    1e10:	200007b8 	.word	0x200007b8
    1e14:	00001641 	.word	0x00001641
    1e18:	20001320 	.word	0x20001320
    1e1c:	200002a0 	.word	0x200002a0
    1e20:	200007d0 	.word	0x200007d0
    1e24:	00001439 	.word	0x00001439
    1e28:	20001740 	.word	0x20001740
    1e2c:	20000320 	.word	0x20000320
    1e30:	200007d4 	.word	0x200007d4
    1e34:	000011e9 	.word	0x000011e9
    1e38:	20001b60 	.word	0x20001b60
    1e3c:	200003a0 	.word	0x200003a0
    1e40:	200007d8 	.word	0x200007d8
    1e44:	00001121 	.word	0x00001121
    1e48:	20001f80 	.word	0x20001f80
    1e4c:	20000420 	.word	0x20000420
    1e50:	200007dc 	.word	0x200007dc
    1e54:	200023a0 	.word	0x200023a0
    1e58:	000014cd 	.word	0x000014cd
    1e5c:	200004a0 	.word	0x200004a0
    1e60:	20000edc 	.word	0x20000edc
    1e64:	0000c4f0 	.word	0x0000c4f0
    1e68:	200007e0 	.word	0x200007e0
    1e6c:	0000b7af 	.word	0x0000b7af
    1e70:	20000738 	.word	0x20000738
    1e74:	20000764 	.word	0x20000764
    1e78:	20000748 	.word	0x20000748
    1e7c:	2000073c 	.word	0x2000073c
    1e80:	0000b5ea 	.word	0x0000b5ea
    1e84:	20000754 	.word	0x20000754
    1e88:	200000b0 	.word	0x200000b0
    1e8c:	2000075c 	.word	0x2000075c
    1e90:	0000b7b6 	.word	0x0000b7b6

00001e94 <cbvprintf>:

	return (int)count;
}

int cbvprintf(cbprintf_cb out, void *ctx, const char *fp, va_list ap)
{
    1e94:	e92d 4ff0 	stmdb	sp!, {r4, r5, r6, r7, r8, r9, sl, fp, lr}
    1e98:	b091      	sub	sp, #68	; 0x44
    1e9a:	468b      	mov	fp, r1
    1e9c:	9002      	str	r0, [sp, #8]
    1e9e:	4692      	mov	sl, r2
    1ea0:	461c      	mov	r4, r3
	char buf[CONVERTED_BUFLEN];
	size_t count = 0;
    1ea2:	2500      	movs	r5, #0
		return rc; \
	} \
	count += rc; \
} while (false)

	while (*fp != 0) {
    1ea4:	f89a 0000 	ldrb.w	r0, [sl]
    1ea8:	b908      	cbnz	r0, 1eae <cbvprintf+0x1a>
			OUTC(' ');
			--width;
		}
	}

	return count;
    1eaa:	4628      	mov	r0, r5
    1eac:	e35e      	b.n	256c <cbvprintf+0x6d8>
		if (*fp != '%') {
    1eae:	2825      	cmp	r0, #37	; 0x25
    1eb0:	f10a 0701 	add.w	r7, sl, #1
    1eb4:	d007      	beq.n	1ec6 <cbvprintf+0x32>
			OUTC('%');
    1eb6:	9b02      	ldr	r3, [sp, #8]
    1eb8:	4659      	mov	r1, fp
    1eba:	4798      	blx	r3
    1ebc:	2800      	cmp	r0, #0
    1ebe:	f2c0 8355 	blt.w	256c <cbvprintf+0x6d8>
    1ec2:	3501      	adds	r5, #1
			break;
    1ec4:	e210      	b.n	22e8 <cbvprintf+0x454>
		} state = {
    1ec6:	2218      	movs	r2, #24
    1ec8:	2100      	movs	r1, #0
    1eca:	a80a      	add	r0, sp, #40	; 0x28
    1ecc:	f008 f9ab 	bl	a226 <memset>
	if (*sp == '%') {
    1ed0:	f89a 3001 	ldrb.w	r3, [sl, #1]
    1ed4:	2b25      	cmp	r3, #37	; 0x25
    1ed6:	d078      	beq.n	1fca <cbvprintf+0x136>
    1ed8:	2200      	movs	r2, #0
    1eda:	4694      	mov	ip, r2
    1edc:	4616      	mov	r6, r2
    1ede:	4696      	mov	lr, r2
    1ee0:	4610      	mov	r0, r2
    1ee2:	4639      	mov	r1, r7
		switch (*sp) {
    1ee4:	f817 3b01 	ldrb.w	r3, [r7], #1
    1ee8:	2b2b      	cmp	r3, #43	; 0x2b
    1eea:	f000 809d 	beq.w	2028 <cbvprintf+0x194>
    1eee:	f200 8094 	bhi.w	201a <cbvprintf+0x186>
    1ef2:	2b20      	cmp	r3, #32
    1ef4:	f000 809b 	beq.w	202e <cbvprintf+0x19a>
    1ef8:	2b23      	cmp	r3, #35	; 0x23
    1efa:	f000 809a 	beq.w	2032 <cbvprintf+0x19e>
    1efe:	b128      	cbz	r0, 1f0c <cbvprintf+0x78>
    1f00:	f89d 0030 	ldrb.w	r0, [sp, #48]	; 0x30
    1f04:	f040 0004 	orr.w	r0, r0, #4
    1f08:	f88d 0030 	strb.w	r0, [sp, #48]	; 0x30
    1f0c:	f1be 0f00 	cmp.w	lr, #0
    1f10:	d005      	beq.n	1f1e <cbvprintf+0x8a>
    1f12:	f89d 0030 	ldrb.w	r0, [sp, #48]	; 0x30
    1f16:	f040 0008 	orr.w	r0, r0, #8
    1f1a:	f88d 0030 	strb.w	r0, [sp, #48]	; 0x30
    1f1e:	b12e      	cbz	r6, 1f2c <cbvprintf+0x98>
    1f20:	f89d 0030 	ldrb.w	r0, [sp, #48]	; 0x30
    1f24:	f040 0010 	orr.w	r0, r0, #16
    1f28:	f88d 0030 	strb.w	r0, [sp, #48]	; 0x30
    1f2c:	f1bc 0f00 	cmp.w	ip, #0
    1f30:	d005      	beq.n	1f3e <cbvprintf+0xaa>
    1f32:	f89d 0030 	ldrb.w	r0, [sp, #48]	; 0x30
    1f36:	f040 0020 	orr.w	r0, r0, #32
    1f3a:	f88d 0030 	strb.w	r0, [sp, #48]	; 0x30
    1f3e:	b12a      	cbz	r2, 1f4c <cbvprintf+0xb8>
    1f40:	f89d 2030 	ldrb.w	r2, [sp, #48]	; 0x30
    1f44:	f042 0240 	orr.w	r2, r2, #64	; 0x40
    1f48:	f88d 2030 	strb.w	r2, [sp, #48]	; 0x30
	if (conv->flag_zero && conv->flag_dash) {
    1f4c:	f89d 2030 	ldrb.w	r2, [sp, #48]	; 0x30
    1f50:	f002 0044 	and.w	r0, r2, #68	; 0x44
    1f54:	2844      	cmp	r0, #68	; 0x44
    1f56:	d103      	bne.n	1f60 <cbvprintf+0xcc>
		conv->flag_zero = false;
    1f58:	f36f 1286 	bfc	r2, #6, #1
    1f5c:	f88d 2030 	strb.w	r2, [sp, #48]	; 0x30
	conv->width_present = true;
    1f60:	f89d 2030 	ldrb.w	r2, [sp, #48]	; 0x30
	if (*sp == '*') {
    1f64:	2b2a      	cmp	r3, #42	; 0x2a
	conv->width_present = true;
    1f66:	f042 0280 	orr.w	r2, r2, #128	; 0x80
    1f6a:	f88d 2030 	strb.w	r2, [sp, #48]	; 0x30
	if (*sp == '*') {
    1f6e:	d17b      	bne.n	2068 <cbvprintf+0x1d4>
		conv->width_star = true;
    1f70:	f89d 2031 	ldrb.w	r2, [sp, #49]	; 0x31
    1f74:	f042 0201 	orr.w	r2, r2, #1
    1f78:	1c4b      	adds	r3, r1, #1
    1f7a:	f88d 2031 	strb.w	r2, [sp, #49]	; 0x31
	conv->prec_present = (*sp == '.');
    1f7e:	781a      	ldrb	r2, [r3, #0]
    1f80:	2a2e      	cmp	r2, #46	; 0x2e
    1f82:	f89d 2031 	ldrb.w	r2, [sp, #49]	; 0x31
    1f86:	bf0c      	ite	eq
    1f88:	2101      	moveq	r1, #1
    1f8a:	2100      	movne	r1, #0
    1f8c:	f361 0241 	bfi	r2, r1, #1, #1
    1f90:	f88d 2031 	strb.w	r2, [sp, #49]	; 0x31
	if (!conv->prec_present) {
    1f94:	d174      	bne.n	2080 <cbvprintf+0x1ec>
	if (*sp == '*') {
    1f96:	785a      	ldrb	r2, [r3, #1]
    1f98:	2a2a      	cmp	r2, #42	; 0x2a
    1f9a:	d06a      	beq.n	2072 <cbvprintf+0x1de>
    1f9c:	3301      	adds	r3, #1
	size_t val = 0;
    1f9e:	2100      	movs	r1, #0
		val = 10U * val + *sp++ - '0';
    1fa0:	260a      	movs	r6, #10
			(((unsigned)c) <= (unsigned)'~'));
}

static inline int isdigit(int a)
{
	return (int)(((unsigned)(a)-(unsigned)'0') < 10U);
    1fa2:	4618      	mov	r0, r3
    1fa4:	f810 2b01 	ldrb.w	r2, [r0], #1
    1fa8:	f1a2 0730 	sub.w	r7, r2, #48	; 0x30
	while (isdigit((int)(unsigned char)*sp)) {
    1fac:	2f09      	cmp	r7, #9
    1fae:	f240 808e 	bls.w	20ce <cbvprintf+0x23a>
	conv->unsupported |= ((conv->prec_value < 0)
    1fb2:	f89d 2030 	ldrb.w	r2, [sp, #48]	; 0x30
	conv->prec_value = prec;
    1fb6:	910e      	str	r1, [sp, #56]	; 0x38
	conv->unsupported |= ((conv->prec_value < 0)
    1fb8:	f3c2 0040 	ubfx	r0, r2, #1, #1
    1fbc:	ea40 71d1 	orr.w	r1, r0, r1, lsr #31
    1fc0:	f361 0241 	bfi	r2, r1, #1, #1
    1fc4:	f88d 2030 	strb.w	r2, [sp, #48]	; 0x30
	return sp;
    1fc8:	e05a      	b.n	2080 <cbvprintf+0x1ec>
		conv->specifier = *sp++;
    1fca:	f10a 0702 	add.w	r7, sl, #2
    1fce:	f88d 3033 	strb.w	r3, [sp, #51]	; 0x33
		if (conv->width_star) {
    1fd2:	f89d 3031 	ldrb.w	r3, [sp, #49]	; 0x31
    1fd6:	07d9      	lsls	r1, r3, #31
    1fd8:	f140 8149 	bpl.w	226e <cbvprintf+0x3da>
			width = va_arg(ap, int);
    1fdc:	f854 9b04 	ldr.w	r9, [r4], #4
			if (width < 0) {
    1fe0:	f1b9 0f00 	cmp.w	r9, #0
    1fe4:	da07      	bge.n	1ff6 <cbvprintf+0x162>
				conv->flag_dash = true;
    1fe6:	f89d 2030 	ldrb.w	r2, [sp, #48]	; 0x30
    1fea:	f042 0204 	orr.w	r2, r2, #4
    1fee:	f88d 2030 	strb.w	r2, [sp, #48]	; 0x30
				width = -width;
    1ff2:	f1c9 0900 	rsb	r9, r9, #0
		if (conv->prec_star) {
    1ff6:	075a      	lsls	r2, r3, #29
    1ff8:	f140 8142 	bpl.w	2280 <cbvprintf+0x3ec>
			int arg = va_arg(ap, int);
    1ffc:	f854 8b04 	ldr.w	r8, [r4], #4
			if (arg < 0) {
    2000:	f1b8 0f00 	cmp.w	r8, #0
    2004:	f280 8141 	bge.w	228a <cbvprintf+0x3f6>
				conv->prec_present = false;
    2008:	f89d 3031 	ldrb.w	r3, [sp, #49]	; 0x31
    200c:	f36f 0341 	bfc	r3, #1, #1
    2010:	f88d 3031 	strb.w	r3, [sp, #49]	; 0x31
		int precision = -1;
    2014:	f04f 38ff 	mov.w	r8, #4294967295
    2018:	e137      	b.n	228a <cbvprintf+0x3f6>
		switch (*sp) {
    201a:	2b2d      	cmp	r3, #45	; 0x2d
    201c:	d00c      	beq.n	2038 <cbvprintf+0x1a4>
    201e:	2b30      	cmp	r3, #48	; 0x30
    2020:	f47f af6d 	bne.w	1efe <cbvprintf+0x6a>
			conv->flag_zero = true;
    2024:	2201      	movs	r2, #1
	} while (loop);
    2026:	e75c      	b.n	1ee2 <cbvprintf+0x4e>
			conv->flag_plus = true;
    2028:	f04f 0e01 	mov.w	lr, #1
    202c:	e759      	b.n	1ee2 <cbvprintf+0x4e>
			conv->flag_space = true;
    202e:	2601      	movs	r6, #1
    2030:	e757      	b.n	1ee2 <cbvprintf+0x4e>
			conv->flag_hash = true;
    2032:	f04f 0c01 	mov.w	ip, #1
    2036:	e754      	b.n	1ee2 <cbvprintf+0x4e>
		switch (*sp) {
    2038:	2001      	movs	r0, #1
    203a:	e752      	b.n	1ee2 <cbvprintf+0x4e>
		val = 10U * val + *sp++ - '0';
    203c:	fb0c 0202 	mla	r2, ip, r2, r0
    2040:	3a30      	subs	r2, #48	; 0x30
    2042:	4633      	mov	r3, r6
    2044:	461e      	mov	r6, r3
    2046:	f816 0b01 	ldrb.w	r0, [r6], #1
    204a:	f1a0 0730 	sub.w	r7, r0, #48	; 0x30
	while (isdigit((int)(unsigned char)*sp)) {
    204e:	2f09      	cmp	r7, #9
    2050:	d9f4      	bls.n	203c <cbvprintf+0x1a8>
	if (sp != wp) {
    2052:	4299      	cmp	r1, r3
    2054:	d093      	beq.n	1f7e <cbvprintf+0xea>
		conv->unsupported |= ((conv->width_value < 0)
    2056:	f89d 1030 	ldrb.w	r1, [sp, #48]	; 0x30
		conv->width_value = width;
    205a:	920d      	str	r2, [sp, #52]	; 0x34
				      || (width != (size_t)conv->width_value));
    205c:	0fd2      	lsrs	r2, r2, #31
		conv->unsupported |= ((conv->width_value < 0)
    205e:	f362 0141 	bfi	r1, r2, #1, #1
    2062:	f88d 1030 	strb.w	r1, [sp, #48]	; 0x30
    2066:	e78a      	b.n	1f7e <cbvprintf+0xea>
    2068:	460b      	mov	r3, r1
	size_t val = 0;
    206a:	2200      	movs	r2, #0
		val = 10U * val + *sp++ - '0';
    206c:	f04f 0c0a 	mov.w	ip, #10
    2070:	e7e8      	b.n	2044 <cbvprintf+0x1b0>
		conv->prec_star = true;
    2072:	f89d 2031 	ldrb.w	r2, [sp, #49]	; 0x31
    2076:	f042 0204 	orr.w	r2, r2, #4
    207a:	f88d 2031 	strb.w	r2, [sp, #49]	; 0x31
		return ++sp;
    207e:	3302      	adds	r3, #2
	switch (*sp) {
    2080:	461f      	mov	r7, r3
    2082:	f817 2b01 	ldrb.w	r2, [r7], #1
    2086:	2a6c      	cmp	r2, #108	; 0x6c
    2088:	d041      	beq.n	210e <cbvprintf+0x27a>
    208a:	d825      	bhi.n	20d8 <cbvprintf+0x244>
    208c:	2a68      	cmp	r2, #104	; 0x68
    208e:	d02b      	beq.n	20e8 <cbvprintf+0x254>
    2090:	2a6a      	cmp	r2, #106	; 0x6a
    2092:	d046      	beq.n	2122 <cbvprintf+0x28e>
    2094:	2a4c      	cmp	r2, #76	; 0x4c
    2096:	d04c      	beq.n	2132 <cbvprintf+0x29e>
    2098:	461f      	mov	r7, r3
	conv->specifier = *sp++;
    209a:	f817 2b01 	ldrb.w	r2, [r7], #1
    209e:	f89d 3031 	ldrb.w	r3, [sp, #49]	; 0x31
    20a2:	f88d 2033 	strb.w	r2, [sp, #51]	; 0x33
	switch (conv->specifier) {
    20a6:	2a78      	cmp	r2, #120	; 0x78
    20a8:	f200 80d9 	bhi.w	225e <cbvprintf+0x3ca>
    20ac:	2a57      	cmp	r2, #87	; 0x57
    20ae:	d84d      	bhi.n	214c <cbvprintf+0x2b8>
    20b0:	2a41      	cmp	r2, #65	; 0x41
    20b2:	d003      	beq.n	20bc <cbvprintf+0x228>
    20b4:	3a45      	subs	r2, #69	; 0x45
    20b6:	2a02      	cmp	r2, #2
    20b8:	f200 80d1 	bhi.w	225e <cbvprintf+0x3ca>
		conv->specifier_cat = SPECIFIER_FP;
    20bc:	f89d 3032 	ldrb.w	r3, [sp, #50]	; 0x32
    20c0:	2204      	movs	r2, #4
    20c2:	f362 0302 	bfi	r3, r2, #0, #3
    20c6:	f88d 3032 	strb.w	r3, [sp, #50]	; 0x32
			unsupported = true;
    20ca:	2301      	movs	r3, #1
			break;
    20cc:	e09e      	b.n	220c <cbvprintf+0x378>
		val = 10U * val + *sp++ - '0';
    20ce:	fb06 2101 	mla	r1, r6, r1, r2
    20d2:	3930      	subs	r1, #48	; 0x30
    20d4:	4603      	mov	r3, r0
    20d6:	e764      	b.n	1fa2 <cbvprintf+0x10e>
	switch (*sp) {
    20d8:	2a74      	cmp	r2, #116	; 0x74
    20da:	d026      	beq.n	212a <cbvprintf+0x296>
    20dc:	2a7a      	cmp	r2, #122	; 0x7a
    20de:	d1db      	bne.n	2098 <cbvprintf+0x204>
		conv->length_mod = LENGTH_Z;
    20e0:	f89d 3031 	ldrb.w	r3, [sp, #49]	; 0x31
    20e4:	2206      	movs	r2, #6
    20e6:	e00d      	b.n	2104 <cbvprintf+0x270>
		if (*++sp == 'h') {
    20e8:	785a      	ldrb	r2, [r3, #1]
    20ea:	2a68      	cmp	r2, #104	; 0x68
    20ec:	f89d 2031 	ldrb.w	r2, [sp, #49]	; 0x31
    20f0:	d106      	bne.n	2100 <cbvprintf+0x26c>
			conv->length_mod = LENGTH_HH;
    20f2:	2101      	movs	r1, #1
			conv->length_mod = LENGTH_LL;
    20f4:	f361 02c6 	bfi	r2, r1, #3, #4
    20f8:	f88d 2031 	strb.w	r2, [sp, #49]	; 0x31
			++sp;
    20fc:	1c9f      	adds	r7, r3, #2
    20fe:	e7cc      	b.n	209a <cbvprintf+0x206>
			conv->length_mod = LENGTH_H;
    2100:	4613      	mov	r3, r2
    2102:	2202      	movs	r2, #2
		conv->length_mod = LENGTH_T;
    2104:	f362 03c6 	bfi	r3, r2, #3, #4
    2108:	f88d 3031 	strb.w	r3, [sp, #49]	; 0x31
		break;
    210c:	e7c5      	b.n	209a <cbvprintf+0x206>
		if (*++sp == 'l') {
    210e:	785a      	ldrb	r2, [r3, #1]
    2110:	2a6c      	cmp	r2, #108	; 0x6c
    2112:	f89d 2031 	ldrb.w	r2, [sp, #49]	; 0x31
    2116:	d101      	bne.n	211c <cbvprintf+0x288>
			conv->length_mod = LENGTH_LL;
    2118:	2104      	movs	r1, #4
    211a:	e7eb      	b.n	20f4 <cbvprintf+0x260>
			conv->length_mod = LENGTH_L;
    211c:	4613      	mov	r3, r2
    211e:	2203      	movs	r2, #3
    2120:	e7f0      	b.n	2104 <cbvprintf+0x270>
		conv->length_mod = LENGTH_J;
    2122:	f89d 3031 	ldrb.w	r3, [sp, #49]	; 0x31
    2126:	2205      	movs	r2, #5
    2128:	e7ec      	b.n	2104 <cbvprintf+0x270>
		conv->length_mod = LENGTH_T;
    212a:	f89d 3031 	ldrb.w	r3, [sp, #49]	; 0x31
    212e:	2207      	movs	r2, #7
    2130:	e7e8      	b.n	2104 <cbvprintf+0x270>
		conv->unsupported = true;
    2132:	f8bd 3030 	ldrh.w	r3, [sp, #48]	; 0x30
    2136:	f423 43f0 	bic.w	r3, r3, #30720	; 0x7800
    213a:	f023 0302 	bic.w	r3, r3, #2
    213e:	f443 4380 	orr.w	r3, r3, #16384	; 0x4000
    2142:	f043 0302 	orr.w	r3, r3, #2
    2146:	f8ad 3030 	strh.w	r3, [sp, #48]	; 0x30
		break;
    214a:	e7a6      	b.n	209a <cbvprintf+0x206>
    214c:	f1a2 0158 	sub.w	r1, r2, #88	; 0x58
    2150:	2920      	cmp	r1, #32
    2152:	f200 8084 	bhi.w	225e <cbvprintf+0x3ca>
    2156:	a001      	add	r0, pc, #4	; (adr r0, 215c <cbvprintf+0x2c8>)
    2158:	f850 f021 	ldr.w	pc, [r0, r1, lsl #2]
    215c:	00002221 	.word	0x00002221
    2160:	0000225f 	.word	0x0000225f
    2164:	0000225f 	.word	0x0000225f
    2168:	0000225f 	.word	0x0000225f
    216c:	0000225f 	.word	0x0000225f
    2170:	0000225f 	.word	0x0000225f
    2174:	0000225f 	.word	0x0000225f
    2178:	0000225f 	.word	0x0000225f
    217c:	0000225f 	.word	0x0000225f
    2180:	000020bd 	.word	0x000020bd
    2184:	0000225f 	.word	0x0000225f
    2188:	00002221 	.word	0x00002221
    218c:	000021e1 	.word	0x000021e1
    2190:	000020bd 	.word	0x000020bd
    2194:	000020bd 	.word	0x000020bd
    2198:	000020bd 	.word	0x000020bd
    219c:	0000225f 	.word	0x0000225f
    21a0:	000021e1 	.word	0x000021e1
    21a4:	0000225f 	.word	0x0000225f
    21a8:	0000225f 	.word	0x0000225f
    21ac:	0000225f 	.word	0x0000225f
    21b0:	0000225f 	.word	0x0000225f
    21b4:	00002229 	.word	0x00002229
    21b8:	00002221 	.word	0x00002221
    21bc:	00002245 	.word	0x00002245
    21c0:	0000225f 	.word	0x0000225f
    21c4:	0000225f 	.word	0x0000225f
    21c8:	00002245 	.word	0x00002245
    21cc:	0000225f 	.word	0x0000225f
    21d0:	00002221 	.word	0x00002221
    21d4:	0000225f 	.word	0x0000225f
    21d8:	0000225f 	.word	0x0000225f
    21dc:	00002221 	.word	0x00002221
		conv->specifier_cat = SPECIFIER_SINT;
    21e0:	f89d 1032 	ldrb.w	r1, [sp, #50]	; 0x32
    21e4:	2001      	movs	r0, #1
		if (conv->length_mod == LENGTH_UPPER_L) {
    21e6:	f003 0378 	and.w	r3, r3, #120	; 0x78
		conv->specifier_cat = SPECIFIER_UINT;
    21ea:	f360 0102 	bfi	r1, r0, #0, #3
		if (conv->length_mod == LENGTH_UPPER_L) {
    21ee:	2b40      	cmp	r3, #64	; 0x40
		conv->specifier_cat = SPECIFIER_UINT;
    21f0:	f88d 1032 	strb.w	r1, [sp, #50]	; 0x32
			conv->invalid = true;
    21f4:	bf02      	ittt	eq
    21f6:	f89d 1030 	ldrbeq.w	r1, [sp, #48]	; 0x30
    21fa:	f041 0101 	orreq.w	r1, r1, #1
    21fe:	f88d 1030 	strbeq.w	r1, [sp, #48]	; 0x30
		if (conv->specifier == 'c') {
    2202:	2a63      	cmp	r2, #99	; 0x63
    2204:	d131      	bne.n	226a <cbvprintf+0x3d6>
			unsupported = (conv->length_mod != LENGTH_NONE);
    2206:	3b00      	subs	r3, #0
    2208:	bf18      	it	ne
    220a:	2301      	movne	r3, #1
	conv->unsupported |= unsupported;
    220c:	f89d 2030 	ldrb.w	r2, [sp, #48]	; 0x30
    2210:	f3c2 0140 	ubfx	r1, r2, #1, #1
    2214:	430b      	orrs	r3, r1
    2216:	f363 0241 	bfi	r2, r3, #1, #1
    221a:	f88d 2030 	strb.w	r2, [sp, #48]	; 0x30
	return sp;
    221e:	e6d8      	b.n	1fd2 <cbvprintf+0x13e>
		conv->specifier_cat = SPECIFIER_UINT;
    2220:	f89d 1032 	ldrb.w	r1, [sp, #50]	; 0x32
    2224:	2002      	movs	r0, #2
    2226:	e7de      	b.n	21e6 <cbvprintf+0x352>
		conv->specifier_cat = SPECIFIER_PTR;
    2228:	f89d 2032 	ldrb.w	r2, [sp, #50]	; 0x32
		if (conv->length_mod == LENGTH_UPPER_L) {
    222c:	f003 0378 	and.w	r3, r3, #120	; 0x78
    2230:	f1a3 0040 	sub.w	r0, r3, #64	; 0x40
		conv->specifier_cat = SPECIFIER_PTR;
    2234:	2103      	movs	r1, #3
    2236:	f361 0202 	bfi	r2, r1, #0, #3
		if (conv->length_mod == LENGTH_UPPER_L) {
    223a:	4243      	negs	r3, r0
		conv->specifier_cat = SPECIFIER_PTR;
    223c:	f88d 2032 	strb.w	r2, [sp, #50]	; 0x32
		if (conv->length_mod == LENGTH_UPPER_L) {
    2240:	4143      	adcs	r3, r0
    2242:	e7e3      	b.n	220c <cbvprintf+0x378>
		conv->specifier_cat = SPECIFIER_PTR;
    2244:	f89d 2032 	ldrb.w	r2, [sp, #50]	; 0x32
    2248:	2103      	movs	r1, #3
		if (conv->length_mod != LENGTH_NONE) {
    224a:	f013 0f78 	tst.w	r3, #120	; 0x78
		conv->specifier_cat = SPECIFIER_PTR;
    224e:	f361 0202 	bfi	r2, r1, #0, #3
    2252:	f88d 2032 	strb.w	r2, [sp, #50]	; 0x32
		if (conv->length_mod != LENGTH_NONE) {
    2256:	bf14      	ite	ne
    2258:	2301      	movne	r3, #1
    225a:	2300      	moveq	r3, #0
    225c:	e7d6      	b.n	220c <cbvprintf+0x378>
		conv->invalid = true;
    225e:	f89d 3030 	ldrb.w	r3, [sp, #48]	; 0x30
    2262:	f043 0301 	orr.w	r3, r3, #1
    2266:	f88d 3030 	strb.w	r3, [sp, #48]	; 0x30
	bool unsupported = false;
    226a:	2300      	movs	r3, #0
    226c:	e7ce      	b.n	220c <cbvprintf+0x378>
		} else if (conv->width_present) {
    226e:	f99d 2030 	ldrsb.w	r2, [sp, #48]	; 0x30
    2272:	2a00      	cmp	r2, #0
			width = conv->width_value;
    2274:	bfb4      	ite	lt
    2276:	f8dd 9034 	ldrlt.w	r9, [sp, #52]	; 0x34
		int width = -1;
    227a:	f04f 39ff 	movge.w	r9, #4294967295
    227e:	e6ba      	b.n	1ff6 <cbvprintf+0x162>
		} else if (conv->prec_present) {
    2280:	079b      	lsls	r3, r3, #30
    2282:	f57f aec7 	bpl.w	2014 <cbvprintf+0x180>
			precision = conv->prec_value;
    2286:	f8dd 8038 	ldr.w	r8, [sp, #56]	; 0x38
			= (enum length_mod_enum)conv->length_mod;
    228a:	f89d 2031 	ldrb.w	r2, [sp, #49]	; 0x31
		conv->pad0_value = 0;
    228e:	2300      	movs	r3, #0
		conv->pad0_pre_exp = 0;
    2290:	e9cd 330d 	strd	r3, r3, [sp, #52]	; 0x34
			= (enum specifier_cat_enum)conv->specifier_cat;
    2294:	f89d 3032 	ldrb.w	r3, [sp, #50]	; 0x32
		enum specifier_cat_enum specifier_cat
    2298:	f003 0307 	and.w	r3, r3, #7
		if (specifier_cat == SPECIFIER_SINT) {
    229c:	2b01      	cmp	r3, #1
			= (enum length_mod_enum)conv->length_mod;
    229e:	f3c2 02c3 	ubfx	r2, r2, #3, #4
		if (specifier_cat == SPECIFIER_SINT) {
    22a2:	d136      	bne.n	2312 <cbvprintf+0x47e>
			switch (length_mod) {
    22a4:	1ed3      	subs	r3, r2, #3
    22a6:	2b04      	cmp	r3, #4
    22a8:	d820      	bhi.n	22ec <cbvprintf+0x458>
    22aa:	e8df f003 	tbb	[pc, r3]
    22ae:	0703      	.short	0x0703
    22b0:	1f07      	.short	0x1f07
    22b2:	1f          	.byte	0x1f
    22b3:	00          	.byte	0x00
					value->sint = va_arg(ap, long);
    22b4:	f854 0b04 	ldr.w	r0, [r4], #4
				value->sint = (short)value->sint;
    22b8:	17c1      	asrs	r1, r0, #31
    22ba:	e004      	b.n	22c6 <cbvprintf+0x432>
					(sint_value_type)va_arg(ap, intmax_t);
    22bc:	3407      	adds	r4, #7
    22be:	f024 0407 	bic.w	r4, r4, #7
				value->sint =
    22c2:	e8f4 0102 	ldrd	r0, r1, [r4], #8
				value->sint = (short)value->sint;
    22c6:	e9cd 010a 	strd	r0, r1, [sp, #40]	; 0x28
		if (conv->invalid || conv->unsupported) {
    22ca:	f89d 3030 	ldrb.w	r3, [sp, #48]	; 0x30
    22ce:	f013 0603 	ands.w	r6, r3, #3
    22d2:	d054      	beq.n	237e <cbvprintf+0x4ea>
			OUTS(sp, fp);
    22d4:	9802      	ldr	r0, [sp, #8]
    22d6:	463b      	mov	r3, r7
    22d8:	4652      	mov	r2, sl
    22da:	4659      	mov	r1, fp
    22dc:	f007 fcfe 	bl	9cdc <outs>
    22e0:	2800      	cmp	r0, #0
    22e2:	f2c0 8143 	blt.w	256c <cbvprintf+0x6d8>
    22e6:	4405      	add	r5, r0
			continue;
    22e8:	46ba      	mov	sl, r7
    22ea:	e5db      	b.n	1ea4 <cbvprintf+0x10>
					(sint_value_type)va_arg(ap, ptrdiff_t);
    22ec:	f854 0b04 	ldr.w	r0, [r4], #4
			if (length_mod == LENGTH_HH) {
    22f0:	2a01      	cmp	r2, #1
					(sint_value_type)va_arg(ap, ptrdiff_t);
    22f2:	ea4f 71e0 	mov.w	r1, r0, asr #31
    22f6:	e9cd 010a 	strd	r0, r1, [sp, #40]	; 0x28
			if (length_mod == LENGTH_HH) {
    22fa:	d105      	bne.n	2308 <cbvprintf+0x474>
				value->uint = (unsigned char)value->uint;
    22fc:	f89d 3028 	ldrb.w	r3, [sp, #40]	; 0x28
				value->uint = (unsigned short)value->uint;
    2300:	930a      	str	r3, [sp, #40]	; 0x28
    2302:	2300      	movs	r3, #0
    2304:	930b      	str	r3, [sp, #44]	; 0x2c
    2306:	e7e0      	b.n	22ca <cbvprintf+0x436>
			} else if (length_mod == LENGTH_H) {
    2308:	2a02      	cmp	r2, #2
    230a:	d1de      	bne.n	22ca <cbvprintf+0x436>
				value->sint = (short)value->sint;
    230c:	f9bd 0028 	ldrsh.w	r0, [sp, #40]	; 0x28
    2310:	e7d2      	b.n	22b8 <cbvprintf+0x424>
		} else if (specifier_cat == SPECIFIER_UINT) {
    2312:	2b02      	cmp	r3, #2
    2314:	d123      	bne.n	235e <cbvprintf+0x4ca>
			switch (length_mod) {
    2316:	1ed3      	subs	r3, r2, #3
    2318:	2b04      	cmp	r3, #4
    231a:	d813      	bhi.n	2344 <cbvprintf+0x4b0>
    231c:	e8df f003 	tbb	[pc, r3]
    2320:	120a0a03 	.word	0x120a0a03
    2324:	12          	.byte	0x12
    2325:	00          	.byte	0x00
					value->uint = (wchar_t)va_arg(ap,
    2326:	6820      	ldr	r0, [r4, #0]
    2328:	900a      	str	r0, [sp, #40]	; 0x28
    232a:	2100      	movs	r1, #0
    232c:	1d23      	adds	r3, r4, #4
    232e:	910b      	str	r1, [sp, #44]	; 0x2c
					(uint_value_type)va_arg(ap, size_t);
    2330:	461c      	mov	r4, r3
    2332:	e7ca      	b.n	22ca <cbvprintf+0x436>
					(uint_value_type)va_arg(ap,
    2334:	3407      	adds	r4, #7
    2336:	f024 0307 	bic.w	r3, r4, #7
				value->uint =
    233a:	e8f3 0102 	ldrd	r0, r1, [r3], #8
    233e:	e9cd 010a 	strd	r0, r1, [sp, #40]	; 0x28
				break;
    2342:	e7f5      	b.n	2330 <cbvprintf+0x49c>
					(uint_value_type)va_arg(ap, size_t);
    2344:	f854 3b04 	ldr.w	r3, [r4], #4
    2348:	930a      	str	r3, [sp, #40]	; 0x28
			if (length_mod == LENGTH_HH) {
    234a:	2a01      	cmp	r2, #1
					(uint_value_type)va_arg(ap, size_t);
    234c:	f04f 0300 	mov.w	r3, #0
    2350:	930b      	str	r3, [sp, #44]	; 0x2c
			if (length_mod == LENGTH_HH) {
    2352:	d0d3      	beq.n	22fc <cbvprintf+0x468>
			} else if (length_mod == LENGTH_H) {
    2354:	2a02      	cmp	r2, #2
    2356:	d1b8      	bne.n	22ca <cbvprintf+0x436>
				value->uint = (unsigned short)value->uint;
    2358:	f8bd 3028 	ldrh.w	r3, [sp, #40]	; 0x28
    235c:	e7d0      	b.n	2300 <cbvprintf+0x46c>
		} else if (specifier_cat == SPECIFIER_FP) {
    235e:	2b04      	cmp	r3, #4
    2360:	d107      	bne.n	2372 <cbvprintf+0x4de>
			if (length_mod == LENGTH_UPPER_L) {
    2362:	3407      	adds	r4, #7
    2364:	f024 0407 	bic.w	r4, r4, #7
    2368:	e8f4 0102 	ldrd	r0, r1, [r4], #8
				value->ldbl = va_arg(ap, long double);
    236c:	e9cd 010a 	strd	r0, r1, [sp, #40]	; 0x28
    2370:	e7ab      	b.n	22ca <cbvprintf+0x436>
		} else if (specifier_cat == SPECIFIER_PTR) {
    2372:	2b03      	cmp	r3, #3
			value->ptr = va_arg(ap, void *);
    2374:	bf04      	itt	eq
    2376:	f854 3b04 	ldreq.w	r3, [r4], #4
    237a:	930a      	streq	r3, [sp, #40]	; 0x28
    237c:	e7a5      	b.n	22ca <cbvprintf+0x436>
		switch (conv->specifier) {
    237e:	f89d 0033 	ldrb.w	r0, [sp, #51]	; 0x33
    2382:	2878      	cmp	r0, #120	; 0x78
    2384:	d8b0      	bhi.n	22e8 <cbvprintf+0x454>
    2386:	2862      	cmp	r0, #98	; 0x62
    2388:	d822      	bhi.n	23d0 <cbvprintf+0x53c>
    238a:	2825      	cmp	r0, #37	; 0x25
    238c:	f43f ad93 	beq.w	1eb6 <cbvprintf+0x22>
    2390:	2858      	cmp	r0, #88	; 0x58
    2392:	d1a9      	bne.n	22e8 <cbvprintf+0x454>
			bps = encode_uint(value->uint, conv, buf, bpe);
    2394:	f10d 0326 	add.w	r3, sp, #38	; 0x26
    2398:	9300      	str	r3, [sp, #0]
    239a:	e9dd 010a 	ldrd	r0, r1, [sp, #40]	; 0x28
    239e:	ab04      	add	r3, sp, #16
    23a0:	aa0c      	add	r2, sp, #48	; 0x30
    23a2:	f007 fc50 	bl	9c46 <encode_uint>
    23a6:	4682      	mov	sl, r0
			if (precision >= 0) {
    23a8:	f1b8 0f00 	cmp.w	r8, #0
    23ac:	f10d 0026 	add.w	r0, sp, #38	; 0x26
    23b0:	db0c      	blt.n	23cc <cbvprintf+0x538>
				conv->flag_zero = false;
    23b2:	f89d 2030 	ldrb.w	r2, [sp, #48]	; 0x30
				size_t len = bpe - bps;
    23b6:	eba0 030a 	sub.w	r3, r0, sl
				conv->flag_zero = false;
    23ba:	f36f 1286 	bfc	r2, #6, #1
				if (len < (size_t)precision) {
    23be:	4598      	cmp	r8, r3
				conv->flag_zero = false;
    23c0:	f88d 2030 	strb.w	r2, [sp, #48]	; 0x30
				if (len < (size_t)precision) {
    23c4:	d902      	bls.n	23cc <cbvprintf+0x538>
					conv->pad0_value = precision - (int)len;
    23c6:	eba8 0303 	sub.w	r3, r8, r3
    23ca:	930d      	str	r3, [sp, #52]	; 0x34
		const char *bpe = buf + sizeof(buf);
    23cc:	4680      	mov	r8, r0
    23ce:	e03d      	b.n	244c <cbvprintf+0x5b8>
    23d0:	3863      	subs	r0, #99	; 0x63
    23d2:	2815      	cmp	r0, #21
    23d4:	d888      	bhi.n	22e8 <cbvprintf+0x454>
    23d6:	a101      	add	r1, pc, #4	; (adr r1, 23dc <cbvprintf+0x548>)
    23d8:	f851 f020 	ldr.w	pc, [r1, r0, lsl #2]
    23dc:	0000245d 	.word	0x0000245d
    23e0:	000024c1 	.word	0x000024c1
    23e4:	000022e9 	.word	0x000022e9
    23e8:	000022e9 	.word	0x000022e9
    23ec:	000022e9 	.word	0x000022e9
    23f0:	000022e9 	.word	0x000022e9
    23f4:	000024c1 	.word	0x000024c1
    23f8:	000022e9 	.word	0x000022e9
    23fc:	000022e9 	.word	0x000022e9
    2400:	000022e9 	.word	0x000022e9
    2404:	000022e9 	.word	0x000022e9
    2408:	0000251f 	.word	0x0000251f
    240c:	000024ed 	.word	0x000024ed
    2410:	000024f1 	.word	0x000024f1
    2414:	000022e9 	.word	0x000022e9
    2418:	000022e9 	.word	0x000022e9
    241c:	00002435 	.word	0x00002435
    2420:	000022e9 	.word	0x000022e9
    2424:	000024ed 	.word	0x000024ed
    2428:	000022e9 	.word	0x000022e9
    242c:	000022e9 	.word	0x000022e9
    2430:	000024ed 	.word	0x000024ed
			if (precision >= 0) {
    2434:	f1b8 0f00 	cmp.w	r8, #0
			bps = (const char *)value->ptr;
    2438:	f8dd a028 	ldr.w	sl, [sp, #40]	; 0x28
			if (precision >= 0) {
    243c:	db0a      	blt.n	2454 <cbvprintf+0x5c0>
				len = strnlen(bps, precision);
    243e:	4641      	mov	r1, r8
    2440:	4650      	mov	r0, sl
    2442:	f007 fed0 	bl	a1e6 <strnlen>
			bpe = bps + len;
    2446:	eb0a 0800 	add.w	r8, sl, r0
		char sign = 0;
    244a:	2600      	movs	r6, #0
		if (bps == NULL) {
    244c:	f1ba 0f00 	cmp.w	sl, #0
    2450:	d10c      	bne.n	246c <cbvprintf+0x5d8>
    2452:	e749      	b.n	22e8 <cbvprintf+0x454>
				len = strlen(bps);
    2454:	4650      	mov	r0, sl
    2456:	f007 febf 	bl	a1d8 <strlen>
    245a:	e7f4      	b.n	2446 <cbvprintf+0x5b2>
			buf[0] = CHAR_IS_SIGNED ? value->sint : value->uint;
    245c:	9b0a      	ldr	r3, [sp, #40]	; 0x28
    245e:	f88d 3010 	strb.w	r3, [sp, #16]
			break;
    2462:	2600      	movs	r6, #0
			bpe = buf + 1;
    2464:	f10d 0811 	add.w	r8, sp, #17
			bps = buf;
    2468:	f10d 0a10 	add.w	sl, sp, #16
		size_t nj_len = (bpe - bps);
    246c:	eba8 030a 	sub.w	r3, r8, sl
		if (sign != 0) {
    2470:	b106      	cbz	r6, 2474 <cbvprintf+0x5e0>
			nj_len += 1U;
    2472:	3301      	adds	r3, #1
		if (conv->altform_0c) {
    2474:	f89d 2032 	ldrb.w	r2, [sp, #50]	; 0x32
    2478:	06d0      	lsls	r0, r2, #27
    247a:	d56b      	bpl.n	2554 <cbvprintf+0x6c0>
			nj_len += 2U;
    247c:	3302      	adds	r3, #2
		if (conv->pad_fp) {
    247e:	0652      	lsls	r2, r2, #25
		nj_len += conv->pad0_value;
    2480:	990d      	ldr	r1, [sp, #52]	; 0x34
			nj_len += conv->pad0_pre_exp;
    2482:	bf48      	it	mi
    2484:	9a0e      	ldrmi	r2, [sp, #56]	; 0x38
		nj_len += conv->pad0_value;
    2486:	440b      	add	r3, r1
			nj_len += conv->pad0_pre_exp;
    2488:	bf48      	it	mi
    248a:	189b      	addmi	r3, r3, r2
		if (width > 0) {
    248c:	f1b9 0f00 	cmp.w	r9, #0
    2490:	dd79      	ble.n	2586 <cbvprintf+0x6f2>
			if (!conv->flag_dash) {
    2492:	f89d 2030 	ldrb.w	r2, [sp, #48]	; 0x30
			width -= (int)nj_len;
    2496:	eba9 0903 	sub.w	r9, r9, r3
			if (!conv->flag_dash) {
    249a:	f3c2 0380 	ubfx	r3, r2, #2, #1
    249e:	9303      	str	r3, [sp, #12]
    24a0:	0753      	lsls	r3, r2, #29
    24a2:	d470      	bmi.n	2586 <cbvprintf+0x6f2>
				if (conv->flag_zero) {
    24a4:	0650      	lsls	r0, r2, #25
    24a6:	d564      	bpl.n	2572 <cbvprintf+0x6de>
					if (sign != 0) {
    24a8:	b146      	cbz	r6, 24bc <cbvprintf+0x628>
						OUTC(sign);
    24aa:	9b02      	ldr	r3, [sp, #8]
    24ac:	4659      	mov	r1, fp
    24ae:	4630      	mov	r0, r6
    24b0:	4798      	blx	r3
    24b2:	2800      	cmp	r0, #0
    24b4:	db5a      	blt.n	256c <cbvprintf+0x6d8>
						sign = 0;
    24b6:	9b03      	ldr	r3, [sp, #12]
						OUTC(sign);
    24b8:	3501      	adds	r5, #1
						sign = 0;
    24ba:	461e      	mov	r6, r3
					pad = '0';
    24bc:	2330      	movs	r3, #48	; 0x30
    24be:	e059      	b.n	2574 <cbvprintf+0x6e0>
			if (conv->flag_plus) {
    24c0:	071e      	lsls	r6, r3, #28
    24c2:	d411      	bmi.n	24e8 <cbvprintf+0x654>
				sign = ' ';
    24c4:	f013 0610 	ands.w	r6, r3, #16
    24c8:	bf18      	it	ne
    24ca:	2620      	movne	r6, #32
			sint = value->sint;
    24cc:	e9dd 230a 	ldrd	r2, r3, [sp, #40]	; 0x28
			if (sint < 0) {
    24d0:	2a00      	cmp	r2, #0
    24d2:	f173 0100 	sbcs.w	r1, r3, #0
    24d6:	f6bf af5d 	bge.w	2394 <cbvprintf+0x500>
				value->uint = (uint_value_type)-sint;
    24da:	4252      	negs	r2, r2
    24dc:	eb63 0343 	sbc.w	r3, r3, r3, lsl #1
    24e0:	e9cd 230a 	strd	r2, r3, [sp, #40]	; 0x28
				sign = '-';
    24e4:	262d      	movs	r6, #45	; 0x2d
    24e6:	e755      	b.n	2394 <cbvprintf+0x500>
				sign = '+';
    24e8:	262b      	movs	r6, #43	; 0x2b
    24ea:	e7ef      	b.n	24cc <cbvprintf+0x638>
		switch (conv->specifier) {
    24ec:	2600      	movs	r6, #0
    24ee:	e751      	b.n	2394 <cbvprintf+0x500>
			if (value->ptr != NULL) {
    24f0:	980a      	ldr	r0, [sp, #40]	; 0x28
    24f2:	b348      	cbz	r0, 2548 <cbvprintf+0x6b4>
				bps = encode_uint((uintptr_t)value->ptr, conv,
    24f4:	f10d 0326 	add.w	r3, sp, #38	; 0x26
    24f8:	9300      	str	r3, [sp, #0]
    24fa:	aa0c      	add	r2, sp, #48	; 0x30
    24fc:	ab04      	add	r3, sp, #16
    24fe:	2100      	movs	r1, #0
    2500:	f007 fba1 	bl	9c46 <encode_uint>
				conv->altform_0c = true;
    2504:	f8bd 3032 	ldrh.w	r3, [sp, #50]	; 0x32
    2508:	f003 03ef 	and.w	r3, r3, #239	; 0xef
    250c:	f443 43f0 	orr.w	r3, r3, #30720	; 0x7800
    2510:	f043 0310 	orr.w	r3, r3, #16
				bps = encode_uint((uintptr_t)value->ptr, conv,
    2514:	4682      	mov	sl, r0
				conv->altform_0c = true;
    2516:	f8ad 3032 	strh.w	r3, [sp, #50]	; 0x32
		char sign = 0;
    251a:	2600      	movs	r6, #0
				goto prec_int_pad0;
    251c:	e744      	b.n	23a8 <cbvprintf+0x514>
				store_count(conv, value->ptr, count);
    251e:	9b0a      	ldr	r3, [sp, #40]	; 0x28
	switch ((enum length_mod_enum)conv->length_mod) {
    2520:	2a07      	cmp	r2, #7
    2522:	f63f aee1 	bhi.w	22e8 <cbvprintf+0x454>
    2526:	e8df f002 	tbb	[pc, r2]
    252a:	040d      	.short	0x040d
    252c:	08080d06 	.word	0x08080d06
    2530:	0d0d      	.short	0x0d0d
		*(signed char *)dp = (signed char)count;
    2532:	701d      	strb	r5, [r3, #0]
		break;
    2534:	e6d8      	b.n	22e8 <cbvprintf+0x454>
		*(short *)dp = (short)count;
    2536:	801d      	strh	r5, [r3, #0]
		break;
    2538:	e6d6      	b.n	22e8 <cbvprintf+0x454>
		*(intmax_t *)dp = (intmax_t)count;
    253a:	4628      	mov	r0, r5
    253c:	17e9      	asrs	r1, r5, #31
    253e:	e9c3 0100 	strd	r0, r1, [r3]
		break;
    2542:	e6d1      	b.n	22e8 <cbvprintf+0x454>
		*(ptrdiff_t *)dp = (ptrdiff_t)count;
    2544:	601d      	str	r5, [r3, #0]
		break;
    2546:	e6cf      	b.n	22e8 <cbvprintf+0x454>
			bpe = bps + 5;
    2548:	f8df 80c4 	ldr.w	r8, [pc, #196]	; 2610 <cbvprintf+0x77c>
    254c:	4606      	mov	r6, r0
			bps = "(nil)";
    254e:	f1a8 0a05 	sub.w	sl, r8, #5
    2552:	e78b      	b.n	246c <cbvprintf+0x5d8>
		} else if (conv->altform_0) {
    2554:	0711      	lsls	r1, r2, #28
			nj_len += 1U;
    2556:	bf48      	it	mi
    2558:	3301      	addmi	r3, #1
    255a:	e790      	b.n	247e <cbvprintf+0x5ea>
					OUTC(pad);
    255c:	4618      	mov	r0, r3
    255e:	9303      	str	r3, [sp, #12]
    2560:	4659      	mov	r1, fp
    2562:	9b02      	ldr	r3, [sp, #8]
    2564:	4798      	blx	r3
    2566:	2800      	cmp	r0, #0
    2568:	9b03      	ldr	r3, [sp, #12]
    256a:	da04      	bge.n	2576 <cbvprintf+0x6e2>
#undef OUTS
#undef OUTC
}
    256c:	b011      	add	sp, #68	; 0x44
    256e:	e8bd 8ff0 	ldmia.w	sp!, {r4, r5, r6, r7, r8, r9, sl, fp, pc}
				char pad = ' ';
    2572:	2320      	movs	r3, #32
    2574:	444d      	add	r5, r9
    2576:	464a      	mov	r2, r9
				while (width-- > 0) {
    2578:	2a00      	cmp	r2, #0
    257a:	eba5 0109 	sub.w	r1, r5, r9
    257e:	f109 39ff 	add.w	r9, r9, #4294967295
    2582:	dceb      	bgt.n	255c <cbvprintf+0x6c8>
    2584:	460d      	mov	r5, r1
		if (sign != 0) {
    2586:	b136      	cbz	r6, 2596 <cbvprintf+0x702>
			OUTC(sign);
    2588:	9b02      	ldr	r3, [sp, #8]
    258a:	4659      	mov	r1, fp
    258c:	4630      	mov	r0, r6
    258e:	4798      	blx	r3
    2590:	2800      	cmp	r0, #0
    2592:	dbeb      	blt.n	256c <cbvprintf+0x6d8>
    2594:	3501      	adds	r5, #1
			if (conv->altform_0c | conv->altform_0) {
    2596:	f89d 3032 	ldrb.w	r3, [sp, #50]	; 0x32
    259a:	06d9      	lsls	r1, r3, #27
    259c:	d401      	bmi.n	25a2 <cbvprintf+0x70e>
    259e:	071a      	lsls	r2, r3, #28
    25a0:	d506      	bpl.n	25b0 <cbvprintf+0x71c>
				OUTC('0');
    25a2:	9b02      	ldr	r3, [sp, #8]
    25a4:	4659      	mov	r1, fp
    25a6:	2030      	movs	r0, #48	; 0x30
    25a8:	4798      	blx	r3
    25aa:	2800      	cmp	r0, #0
    25ac:	dbde      	blt.n	256c <cbvprintf+0x6d8>
    25ae:	3501      	adds	r5, #1
			if (conv->altform_0c) {
    25b0:	f89d 3032 	ldrb.w	r3, [sp, #50]	; 0x32
    25b4:	06db      	lsls	r3, r3, #27
    25b6:	d507      	bpl.n	25c8 <cbvprintf+0x734>
				OUTC(conv->specifier);
    25b8:	f89d 0033 	ldrb.w	r0, [sp, #51]	; 0x33
    25bc:	9b02      	ldr	r3, [sp, #8]
    25be:	4659      	mov	r1, fp
    25c0:	4798      	blx	r3
    25c2:	2800      	cmp	r0, #0
    25c4:	dbd2      	blt.n	256c <cbvprintf+0x6d8>
    25c6:	3501      	adds	r5, #1
			while (pad_len-- > 0) {
    25c8:	9e0d      	ldr	r6, [sp, #52]	; 0x34
    25ca:	442e      	add	r6, r5
    25cc:	1b73      	subs	r3, r6, r5
    25ce:	2b00      	cmp	r3, #0
    25d0:	dc16      	bgt.n	2600 <cbvprintf+0x76c>
			OUTS(bps, bpe);
    25d2:	9802      	ldr	r0, [sp, #8]
    25d4:	4643      	mov	r3, r8
    25d6:	4652      	mov	r2, sl
    25d8:	4659      	mov	r1, fp
    25da:	f007 fb7f 	bl	9cdc <outs>
    25de:	2800      	cmp	r0, #0
    25e0:	dbc4      	blt.n	256c <cbvprintf+0x6d8>
    25e2:	4405      	add	r5, r0
		while (width > 0) {
    25e4:	44a9      	add	r9, r5
    25e6:	eba9 0305 	sub.w	r3, r9, r5
    25ea:	2b00      	cmp	r3, #0
    25ec:	f77f ae7c 	ble.w	22e8 <cbvprintf+0x454>
			OUTC(' ');
    25f0:	9b02      	ldr	r3, [sp, #8]
    25f2:	4659      	mov	r1, fp
    25f4:	2020      	movs	r0, #32
    25f6:	4798      	blx	r3
    25f8:	2800      	cmp	r0, #0
    25fa:	dbb7      	blt.n	256c <cbvprintf+0x6d8>
    25fc:	3501      	adds	r5, #1
			--width;
    25fe:	e7f2      	b.n	25e6 <cbvprintf+0x752>
				OUTC('0');
    2600:	9b02      	ldr	r3, [sp, #8]
    2602:	4659      	mov	r1, fp
    2604:	2030      	movs	r0, #48	; 0x30
    2606:	4798      	blx	r3
    2608:	2800      	cmp	r0, #0
    260a:	dbaf      	blt.n	256c <cbvprintf+0x6d8>
    260c:	3501      	adds	r5, #1
    260e:	e7dd      	b.n	25cc <cbvprintf+0x738>
    2610:	0000b7f5 	.word	0x0000b7f5

00002614 <console_putchar>:

	return tty_read(&console_serial, buf, size);
}

int console_putchar(char c)
{
    2614:	b507      	push	{r0, r1, r2, lr}
	return tty_write(&console_serial, &c, 1);
    2616:	2201      	movs	r2, #1
{
    2618:	f88d 0007 	strb.w	r0, [sp, #7]
	return tty_write(&console_serial, &c, 1);
    261c:	f10d 0107 	add.w	r1, sp, #7
    2620:	4802      	ldr	r0, [pc, #8]	; (262c <console_putchar+0x18>)
    2622:	f007 fcdf 	bl	9fe4 <tty_write>
}
    2626:	b003      	add	sp, #12
    2628:	f85d fb04 	ldr.w	pc, [sp], #4
    262c:	200007f0 	.word	0x200007f0

00002630 <console_getchar>:

int console_getchar(void)
{
    2630:	b507      	push	{r0, r1, r2, lr}
	uint8_t c;
	int res;

	res = tty_read(&console_serial, &c, 1);
    2632:	2201      	movs	r2, #1
    2634:	f10d 0107 	add.w	r1, sp, #7
    2638:	4804      	ldr	r0, [pc, #16]	; (264c <console_getchar+0x1c>)
    263a:	f007 fcfc 	bl	a036 <tty_read>
	if (res < 0) {
    263e:	2800      	cmp	r0, #0
		return res;
	}

	return c;
    2640:	bfa8      	it	ge
    2642:	f89d 0007 	ldrbge.w	r0, [sp, #7]
}
    2646:	b003      	add	sp, #12
    2648:	f85d fb04 	ldr.w	pc, [sp], #4
    264c:	200007f0 	.word	0x200007f0

00002650 <console_init>:

int console_init(void)
{
    2650:	b538      	push	{r3, r4, r5, lr}
 *
 * @return a non-positive integer as documented in device_usable_check().
 */
static inline int z_device_usable_check(const struct device *dev)
{
	return z_device_ready(dev) ? 0 : -ENODEV;
    2652:	4d10      	ldr	r5, [pc, #64]	; (2694 <console_init+0x44>)
    2654:	4628      	mov	r0, r5
    2656:	f008 fa99 	bl	ab8c <z_device_ready>
    265a:	b1a8      	cbz	r0, 2688 <console_init+0x38>
	uart_dev = DEVICE_DT_GET(DT_CHOSEN(zephyr_console));
	if (!device_is_ready(uart_dev)) {
		return -ENODEV;
	}

	ret = tty_init(&console_serial, uart_dev);
    265c:	480e      	ldr	r0, [pc, #56]	; (2698 <console_init+0x48>)
    265e:	4629      	mov	r1, r5
    2660:	f000 fde8 	bl	3234 <tty_init>

	if (ret) {
    2664:	4604      	mov	r4, r0
    2666:	b968      	cbnz	r0, 2684 <console_init+0x34>

	/* Checks device driver supports for interrupt driven data transfers. */
	if (CONFIG_CONSOLE_GETCHAR_BUFSIZE + CONFIG_CONSOLE_PUTCHAR_BUFSIZE) {
		const struct uart_driver_api *api =
			(const struct uart_driver_api *)uart_dev->api;
		if (!api->irq_callback_set) {
    2668:	68ab      	ldr	r3, [r5, #8]
    266a:	6e1b      	ldr	r3, [r3, #96]	; 0x60
    266c:	b17b      	cbz	r3, 268e <console_init+0x3e>
			return -ENOTSUP;
		}
	}

	tty_set_tx_buf(&console_serial, console_txbuf, sizeof(console_txbuf));
    266e:	490b      	ldr	r1, [pc, #44]	; (269c <console_init+0x4c>)
    2670:	4809      	ldr	r0, [pc, #36]	; (2698 <console_init+0x48>)
    2672:	f44f 7200 	mov.w	r2, #512	; 0x200
    2676:	f007 fd87 	bl	a188 <tty_set_tx_buf>
	tty_set_rx_buf(&console_serial, console_rxbuf, sizeof(console_rxbuf));
    267a:	4909      	ldr	r1, [pc, #36]	; (26a0 <console_init+0x50>)
    267c:	4806      	ldr	r0, [pc, #24]	; (2698 <console_init+0x48>)
    267e:	2240      	movs	r2, #64	; 0x40
    2680:	f007 fd69 	bl	a156 <tty_set_rx_buf>

	return 0;
}
    2684:	4620      	mov	r0, r4
    2686:	bd38      	pop	{r3, r4, r5, pc}
		return -ENODEV;
    2688:	f06f 0412 	mvn.w	r4, #18
    268c:	e7fa      	b.n	2684 <console_init+0x34>
			return -ENOTSUP;
    268e:	f06f 0485 	mvn.w	r4, #133	; 0x85
    2692:	e7f7      	b.n	2684 <console_init+0x34>
    2694:	0000adf0 	.word	0x0000adf0
    2698:	200007f0 	.word	0x200007f0
    269c:	20000f1d 	.word	0x20000f1d
    26a0:	20000edd 	.word	0x20000edd

000026a4 <sys_heap_init>:

void sys_heap_init(struct sys_heap *heap, void *mem, size_t bytes)
{
	if (IS_ENABLED(CONFIG_SYS_HEAP_SMALL_ONLY)) {
		/* Must fit in a 15 bit count of HUNK_UNIT */
		__ASSERT(bytes / CHUNK_UNIT <= 0x7fffU, "heap size is too big");
    26a4:	f5b2 2f80 	cmp.w	r2, #262144	; 0x40000
{
    26a8:	e92d 41f0 	stmdb	sp!, {r4, r5, r6, r7, r8, lr}
    26ac:	4606      	mov	r6, r0
    26ae:	460d      	mov	r5, r1
    26b0:	4617      	mov	r7, r2
		__ASSERT(bytes / CHUNK_UNIT <= 0x7fffU, "heap size is too big");
    26b2:	d369      	bcc.n	2788 <sys_heap_init+0xe4>
    26b4:	493d      	ldr	r1, [pc, #244]	; (27ac <sys_heap_init+0x108>)
    26b6:	4a3e      	ldr	r2, [pc, #248]	; (27b0 <sys_heap_init+0x10c>)
    26b8:	483e      	ldr	r0, [pc, #248]	; (27b4 <sys_heap_init+0x110>)
    26ba:	f240 13a5 	movw	r3, #421	; 0x1a5
    26be:	f007 fbbe 	bl	9e3e <printk>
    26c2:	483d      	ldr	r0, [pc, #244]	; (27b8 <sys_heap_init+0x114>)
    26c4:	f007 fbbb 	bl	9e3e <printk>
    26c8:	f240 11a5 	movw	r1, #421	; 0x1a5
		/* Must fit in a 31 bit count of HUNK_UNIT */
		__ASSERT(bytes / CHUNK_UNIT <= 0x7fffffffU, "heap size is too big");
	}

	/* Reserve the end marker chunk's header */
	__ASSERT(bytes > heap_footer_bytes(bytes), "heap size is too small");
    26cc:	4838      	ldr	r0, [pc, #224]	; (27b0 <sys_heap_init+0x10c>)
    26ce:	f007 fab3 	bl	9c38 <assert_post_action>
	bytes -= heap_footer_bytes(bytes);
    26d2:	3f04      	subs	r7, #4

	/* Round the start up, the end down */
	uintptr_t addr = ROUND_UP(mem, CHUNK_UNIT);
    26d4:	1dec      	adds	r4, r5, #7
	uintptr_t end = ROUND_DOWN((uint8_t *)mem + bytes, CHUNK_UNIT);
    26d6:	443d      	add	r5, r7
	uintptr_t addr = ROUND_UP(mem, CHUNK_UNIT);
    26d8:	f024 0407 	bic.w	r4, r4, #7
	uintptr_t end = ROUND_DOWN((uint8_t *)mem + bytes, CHUNK_UNIT);
    26dc:	f025 0507 	bic.w	r5, r5, #7
	chunksz_t heap_sz = (end - addr) / CHUNK_UNIT;
    26e0:	1b2d      	subs	r5, r5, r4

	CHECK(end > addr);
	__ASSERT(heap_sz > chunksz(sizeof(struct z_heap)), "heap size is too small");
    26e2:	2d17      	cmp	r5, #23
	chunksz_t heap_sz = (end - addr) / CHUNK_UNIT;
    26e4:	ea4f 07d5 	mov.w	r7, r5, lsr #3
	__ASSERT(heap_sz > chunksz(sizeof(struct z_heap)), "heap size is too small");
    26e8:	d80e      	bhi.n	2708 <sys_heap_init+0x64>
    26ea:	4934      	ldr	r1, [pc, #208]	; (27bc <sys_heap_init+0x118>)
    26ec:	4a30      	ldr	r2, [pc, #192]	; (27b0 <sys_heap_init+0x10c>)
    26ee:	4831      	ldr	r0, [pc, #196]	; (27b4 <sys_heap_init+0x110>)
    26f0:	f240 13b5 	movw	r3, #437	; 0x1b5
    26f4:	f007 fba3 	bl	9e3e <printk>
    26f8:	4831      	ldr	r0, [pc, #196]	; (27c0 <sys_heap_init+0x11c>)
    26fa:	f007 fba0 	bl	9e3e <printk>
    26fe:	482c      	ldr	r0, [pc, #176]	; (27b0 <sys_heap_init+0x10c>)
    2700:	f240 11b5 	movw	r1, #437	; 0x1b5
    2704:	f007 fa98 	bl	9c38 <assert_post_action>
}

static inline int bucket_idx(struct z_heap *h, chunksz_t sz)
{
	unsigned int usable_sz = sz - min_chunk_size(h) + 1;
	return 31 - __builtin_clz(usable_sz);
    2708:	fab7 f887 	clz	r8, r7
	h->free_bytes = 0;
	h->allocated_bytes = 0;
#endif

	int nb_buckets = bucket_idx(h, heap_sz) + 1;
	chunksz_t chunk0_size = chunksz(sizeof(struct z_heap) +
    270c:	f1c8 0824 	rsb	r8, r8, #36	; 0x24
    2710:	ea4f 0888 	mov.w	r8, r8, lsl #2
	heap->heap = h;
    2714:	6034      	str	r4, [r6, #0]
	return (bytes + CHUNK_UNIT - 1U) / CHUNK_UNIT;
    2716:	f108 0607 	add.w	r6, r8, #7
	h->avail_buckets = 0;
    271a:	2300      	movs	r3, #0
    271c:	08f6      	lsrs	r6, r6, #3
    271e:	60e3      	str	r3, [r4, #12]
				     nb_buckets * sizeof(struct z_heap_bucket));

	__ASSERT(chunk0_size + min_chunk_size(h) <= heap_sz, "heap size is too small");
    2720:	1c73      	adds	r3, r6, #1
    2722:	42bb      	cmp	r3, r7
	h->end_chunk = heap_sz;
    2724:	60a7      	str	r7, [r4, #8]
	__ASSERT(chunk0_size + min_chunk_size(h) <= heap_sz, "heap size is too small");
    2726:	d90e      	bls.n	2746 <sys_heap_init+0xa2>
    2728:	4926      	ldr	r1, [pc, #152]	; (27c4 <sys_heap_init+0x120>)
    272a:	4a21      	ldr	r2, [pc, #132]	; (27b0 <sys_heap_init+0x10c>)
    272c:	4821      	ldr	r0, [pc, #132]	; (27b4 <sys_heap_init+0x110>)
    272e:	f240 13c5 	movw	r3, #453	; 0x1c5
    2732:	f007 fb84 	bl	9e3e <printk>
    2736:	4822      	ldr	r0, [pc, #136]	; (27c0 <sys_heap_init+0x11c>)
    2738:	f007 fb81 	bl	9e3e <printk>
    273c:	481c      	ldr	r0, [pc, #112]	; (27b0 <sys_heap_init+0x10c>)
    273e:	f240 11c5 	movw	r1, #453	; 0x1c5
    2742:	f007 fa79 	bl	9c38 <assert_post_action>
    2746:	f104 0210 	add.w	r2, r4, #16
    274a:	44a0      	add	r8, r4
    274c:	2300      	movs	r3, #0

	for (int i = 0; i < nb_buckets; i++) {
    274e:	4590      	cmp	r8, r2
    2750:	d129      	bne.n	27a6 <sys_heap_init+0x102>
	chunk_set(h, c, SIZE_AND_USED, size << 1);
    2752:	0072      	lsls	r2, r6, #1
			((uint16_t *)cmem)[SIZE_AND_USED] |= 1U;
    2754:	f042 0201 	orr.w	r2, r2, #1
    2758:	8062      	strh	r2, [r4, #2]
		((uint16_t *)cmem)[f] = val;
    275a:	eb04 01c6 	add.w	r1, r4, r6, lsl #3
	set_chunk_size(h, 0, chunk0_size);
	set_left_chunk_size(h, 0, 0);
	set_chunk_used(h, 0, true);

	/* chunk containing the free heap */
	set_chunk_size(h, chunk0_size, heap_sz - chunk0_size);
    275e:	1bba      	subs	r2, r7, r6
	chunk_set(h, c, SIZE_AND_USED, size << 1);
    2760:	0050      	lsls	r0, r2, #1
		((uint16_t *)cmem)[f] = val;
    2762:	8023      	strh	r3, [r4, #0]
    2764:	8048      	strh	r0, [r1, #2]
    2766:	1961      	adds	r1, r4, r5
    2768:	f824 6036 	strh.w	r6, [r4, r6, lsl #3]
	void *cmem = &buf[c];
    276c:	eb04 07c7 	add.w	r7, r4, r7, lsl #3
		((uint16_t *)cmem)[f] = val;
    2770:	804b      	strh	r3, [r1, #2]
    2772:	5362      	strh	r2, [r4, r5]
			((uint16_t *)cmem)[SIZE_AND_USED] |= 1U;
    2774:	887b      	ldrh	r3, [r7, #2]
    2776:	f043 0301 	orr.w	r3, r3, #1
    277a:	807b      	strh	r3, [r7, #2]
	/* the end marker chunk */
	set_chunk_size(h, heap_sz, 0);
	set_left_chunk_size(h, heap_sz, heap_sz - chunk0_size);
	set_chunk_used(h, heap_sz, true);

	free_list_add(h, chunk0_size);
    277c:	4631      	mov	r1, r6
    277e:	4620      	mov	r0, r4
}
    2780:	e8bd 41f0 	ldmia.w	sp!, {r4, r5, r6, r7, r8, lr}
	free_list_add(h, chunk0_size);
    2784:	f007 bac6 	b.w	9d14 <free_list_add>
	__ASSERT(bytes > heap_footer_bytes(bytes), "heap size is too small");
    2788:	2a04      	cmp	r2, #4
    278a:	d8a2      	bhi.n	26d2 <sys_heap_init+0x2e>
    278c:	490e      	ldr	r1, [pc, #56]	; (27c8 <sys_heap_init+0x124>)
    278e:	4a08      	ldr	r2, [pc, #32]	; (27b0 <sys_heap_init+0x10c>)
    2790:	4808      	ldr	r0, [pc, #32]	; (27b4 <sys_heap_init+0x110>)
    2792:	f44f 73d6 	mov.w	r3, #428	; 0x1ac
    2796:	f007 fb52 	bl	9e3e <printk>
    279a:	4809      	ldr	r0, [pc, #36]	; (27c0 <sys_heap_init+0x11c>)
    279c:	f007 fb4f 	bl	9e3e <printk>
    27a0:	f44f 71d6 	mov.w	r1, #428	; 0x1ac
    27a4:	e792      	b.n	26cc <sys_heap_init+0x28>
		h->buckets[i].next = 0;
    27a6:	f842 3b04 	str.w	r3, [r2], #4
	for (int i = 0; i < nb_buckets; i++) {
    27aa:	e7d0      	b.n	274e <sys_heap_init+0xaa>
    27ac:	0000b8c2 	.word	0x0000b8c2
    27b0:	0000b7f6 	.word	0x0000b7f6
    27b4:	0000b2d3 	.word	0x0000b2d3
    27b8:	0000b8d8 	.word	0x0000b8d8
    27bc:	0000b929 	.word	0x0000b929
    27c0:	0000b910 	.word	0x0000b910
    27c4:	0000b952 	.word	0x0000b952
    27c8:	0000b8ef 	.word	0x0000b8ef

000027cc <sys_notify_finalize>:
};

/** @internal */
static inline uint32_t sys_notify_get_method(const struct sys_notify *notify)
{
	uint32_t method = notify->flags >> SYS_NOTIFY_METHOD_POS;
    27cc:	6843      	ldr	r3, [r0, #4]

	return method & SYS_NOTIFY_METHOD_MASK;
    27ce:	f003 0303 	and.w	r3, r3, #3

	/* Store the result and capture secondary notification
	 * information.
	 */
	notify->result = res;
	switch (method) {
    27d2:	2b02      	cmp	r3, #2
{
    27d4:	b570      	push	{r4, r5, r6, lr}
    27d6:	4604      	mov	r4, r0
    27d8:	460e      	mov	r6, r1
	notify->result = res;
    27da:	6081      	str	r1, [r0, #8]
	switch (method) {
    27dc:	d010      	beq.n	2800 <sys_notify_finalize+0x34>
    27de:	2b03      	cmp	r3, #3
    27e0:	d004      	beq.n	27ec <sys_notify_finalize+0x20>
    27e2:	2b01      	cmp	r3, #1
    27e4:	d10f      	bne.n	2806 <sys_notify_finalize+0x3a>
    27e6:	2500      	movs	r5, #0
    27e8:	4628      	mov	r0, r5
    27ea:	e001      	b.n	27f0 <sys_notify_finalize+0x24>
	case SYS_NOTIFY_METHOD_SPINWAIT:
		break;
	case SYS_NOTIFY_METHOD_CALLBACK:
		rv = notify->method.callback;
    27ec:	6805      	ldr	r5, [r0, #0]
	struct k_poll_signal *sig = NULL;
    27ee:	2000      	movs	r0, #0
	/* Mark completion by clearing the flags field to the
	 * completed state, releasing any spin-waiters, then complete
	 * secondary notification.
	 */
	compiler_barrier();
	notify->flags = SYS_NOTIFY_METHOD_COMPLETED;
    27f0:	2300      	movs	r3, #0
    27f2:	6063      	str	r3, [r4, #4]

	if (IS_ENABLED(CONFIG_POLL) && (sig != NULL)) {
    27f4:	b110      	cbz	r0, 27fc <sys_notify_finalize+0x30>
		/* coverity[OVERRUN] */
		return (int) arch_syscall_invoke2(*(uintptr_t *)&sig, *(uintptr_t *)&result, K_SYSCALL_K_POLL_SIGNAL_RAISE);
	}
#endif
	compiler_barrier();
	return z_impl_k_poll_signal_raise(sig, result);
    27f6:	4631      	mov	r1, r6
    27f8:	f004 fc82 	bl	7100 <z_impl_k_poll_signal_raise>
		k_poll_signal_raise(sig, res);
	}

	return rv;
}
    27fc:	4628      	mov	r0, r5
    27fe:	bd70      	pop	{r4, r5, r6, pc}
		sig = notify->method.signal;
    2800:	6800      	ldr	r0, [r0, #0]
	sys_notify_generic_callback rv = NULL;
    2802:	2500      	movs	r5, #0
		break;
    2804:	e7f4      	b.n	27f0 <sys_notify_finalize+0x24>
		__ASSERT_NO_MSG(false);
    2806:	4a06      	ldr	r2, [pc, #24]	; (2820 <sys_notify_finalize+0x54>)
    2808:	4906      	ldr	r1, [pc, #24]	; (2824 <sys_notify_finalize+0x58>)
    280a:	4807      	ldr	r0, [pc, #28]	; (2828 <sys_notify_finalize+0x5c>)
    280c:	2345      	movs	r3, #69	; 0x45
    280e:	f007 fb16 	bl	9e3e <printk>
    2812:	4803      	ldr	r0, [pc, #12]	; (2820 <sys_notify_finalize+0x54>)
    2814:	2145      	movs	r1, #69	; 0x45
    2816:	f007 fa0f 	bl	9c38 <assert_post_action>
	sys_notify_generic_callback rv = NULL;
    281a:	2500      	movs	r5, #0
    281c:	e7e7      	b.n	27ee <sys_notify_finalize+0x22>
    281e:	bf00      	nop
    2820:	0000b97d 	.word	0x0000b97d
    2824:	0000b2d1 	.word	0x0000b2d1
    2828:	0000b2d3 	.word	0x0000b2d3

0000282c <nrf_cc3xx_platform_abort_init>:

/** @brief Function to initialize the nrf_cc3xx_platform abort APIs.
 */
void nrf_cc3xx_platform_abort_init(void)
{
	nrf_cc3xx_platform_set_abort(&apis);
    282c:	4801      	ldr	r0, [pc, #4]	; (2834 <nrf_cc3xx_platform_abort_init+0x8>)
    282e:	f007 b869 	b.w	9904 <nrf_cc3xx_platform_set_abort>
    2832:	bf00      	nop
    2834:	0000aff8 	.word	0x0000aff8

00002838 <mutex_unlock_platform>:
    }
}

/** @brief Static function to unlock a mutex
 */
static int32_t mutex_unlock_platform(nrf_cc3xx_platform_mutex_t *mutex) {
    2838:	b508      	push	{r3, lr}
    struct k_mutex * p_mutex;

    /* Ensure that the mutex param is valid (not NULL) */
    if(mutex == NULL) {
    283a:	b1d0      	cbz	r0, 2872 <mutex_unlock_platform+0x3a>
        return NRF_CC3XX_PLATFORM_ERROR_PARAM_NULL;
    }

    switch (mutex->flags)
    283c:	6843      	ldr	r3, [r0, #4]
    283e:	2b04      	cmp	r3, #4
    2840:	d111      	bne.n	2866 <mutex_unlock_platform+0x2e>
 * @return true if @a new_value is written, false otherwise.
 */
static inline bool atomic_cas(atomic_t *target, atomic_val_t old_value,
			  atomic_val_t new_value)
{
	return __atomic_compare_exchange_n(target, &old_value, new_value,
    2842:	2200      	movs	r2, #0
    2844:	6803      	ldr	r3, [r0, #0]
    2846:	f3bf 8f5b 	dmb	ish
    284a:	e853 1f00 	ldrex	r1, [r3]
    284e:	2901      	cmp	r1, #1
    2850:	d103      	bne.n	285a <mutex_unlock_platform+0x22>
    2852:	e843 2000 	strex	r0, r2, [r3]
    2856:	2800      	cmp	r0, #0
    2858:	d1f7      	bne.n	284a <mutex_unlock_platform+0x12>
    285a:	f3bf 8f5b 	dmb	ish
    {
    case NRF_CC3XX_PLATFORM_MUTEX_MASK_IS_ATOMIC:
        return atomic_cas((atomic_t *)mutex->mutex, 1, 0) ?
                       NRF_CC3XX_PLATFORM_SUCCESS :
    285e:	4807      	ldr	r0, [pc, #28]	; (287c <mutex_unlock_platform+0x44>)
    2860:	bf08      	it	eq
    2862:	4610      	moveq	r0, r2
        p_mutex = (struct k_mutex *)mutex->mutex;

        k_mutex_unlock(p_mutex);
        return NRF_CC3XX_PLATFORM_SUCCESS;
    }
}
    2864:	bd08      	pop	{r3, pc}
        if (mutex->flags == NRF_CC3XX_PLATFORM_MUTEX_MASK_INVALID) {
    2866:	b13b      	cbz	r3, 2878 <mutex_unlock_platform+0x40>
        p_mutex = (struct k_mutex *)mutex->mutex;
    2868:	6800      	ldr	r0, [r0, #0]
	return z_impl_k_mutex_unlock(mutex);
    286a:	f004 fb0b 	bl	6e84 <z_impl_k_mutex_unlock>
        return NRF_CC3XX_PLATFORM_SUCCESS;
    286e:	2000      	movs	r0, #0
    2870:	e7f8      	b.n	2864 <mutex_unlock_platform+0x2c>
        return NRF_CC3XX_PLATFORM_ERROR_PARAM_NULL;
    2872:	f46f 40e0 	mvn.w	r0, #28672	; 0x7000
    2876:	e7f5      	b.n	2864 <mutex_unlock_platform+0x2c>
            return NRF_CC3XX_PLATFORM_ERROR_MUTEX_NOT_INITIALIZED;
    2878:	4801      	ldr	r0, [pc, #4]	; (2880 <mutex_unlock_platform+0x48>)
    287a:	e7f3      	b.n	2864 <mutex_unlock_platform+0x2c>
    287c:	ffff8fe9 	.word	0xffff8fe9
    2880:	ffff8fea 	.word	0xffff8fea

00002884 <mutex_free_platform>:
static void mutex_free_platform(nrf_cc3xx_platform_mutex_t *mutex) {
    2884:	b510      	push	{r4, lr}
    if (mutex == NULL) {
    2886:	4604      	mov	r4, r0
    2888:	b918      	cbnz	r0, 2892 <mutex_free_platform+0xe>
        platform_abort_apis.abort_fn(
    288a:	4b0d      	ldr	r3, [pc, #52]	; (28c0 <mutex_free_platform+0x3c>)
    288c:	480d      	ldr	r0, [pc, #52]	; (28c4 <mutex_free_platform+0x40>)
    288e:	685b      	ldr	r3, [r3, #4]
    2890:	4798      	blx	r3
    if (mutex->flags == NRF_CC3XX_PLATFORM_MUTEX_MASK_IS_ATOMIC ||
    2892:	6861      	ldr	r1, [r4, #4]
    2894:	2908      	cmp	r1, #8
    2896:	d00d      	beq.n	28b4 <mutex_free_platform+0x30>
    if (mutex->flags == NRF_CC3XX_PLATFORM_MUTEX_MASK_INVALID) {
    2898:	f031 0304 	bics.w	r3, r1, #4
    289c:	d00a      	beq.n	28b4 <mutex_free_platform+0x30>
    if ((mutex->flags & NRF_CC3XX_PLATFORM_MUTEX_MASK_IS_ALLOCATED) != 0) {
    289e:	f011 0102 	ands.w	r1, r1, #2
    28a2:	d008      	beq.n	28b6 <mutex_free_platform+0x32>
        k_mem_slab_free(&mutex_slab, &mutex->mutex);
    28a4:	4808      	ldr	r0, [pc, #32]	; (28c8 <mutex_free_platform+0x44>)
    28a6:	4621      	mov	r1, r4
    28a8:	f004 f988 	bl	6bbc <k_mem_slab_free>
        mutex->mutex = NULL;
    28ac:	2300      	movs	r3, #0
    28ae:	6023      	str	r3, [r4, #0]
    mutex->flags = NRF_CC3XX_PLATFORM_MUTEX_MASK_INVALID;
    28b0:	2300      	movs	r3, #0
    28b2:	6063      	str	r3, [r4, #4]
}
    28b4:	bd10      	pop	{r4, pc}
        memset(mutex->mutex, 0, sizeof(struct k_mutex));
    28b6:	6820      	ldr	r0, [r4, #0]
    28b8:	2214      	movs	r2, #20
    28ba:	f007 fcb4 	bl	a226 <memset>
    28be:	e7f7      	b.n	28b0 <mutex_free_platform+0x2c>
    28c0:	200001d0 	.word	0x200001d0
    28c4:	0000b9a0 	.word	0x0000b9a0
    28c8:	20000844 	.word	0x20000844

000028cc <mutex_init_platform>:
static void mutex_init_platform(nrf_cc3xx_platform_mutex_t *mutex) {
    28cc:	b510      	push	{r4, lr}
    if (mutex == NULL) {
    28ce:	4604      	mov	r4, r0
    28d0:	b918      	cbnz	r0, 28da <mutex_init_platform+0xe>
        platform_abort_apis.abort_fn(
    28d2:	4b16      	ldr	r3, [pc, #88]	; (292c <mutex_init_platform+0x60>)
    28d4:	4816      	ldr	r0, [pc, #88]	; (2930 <mutex_init_platform+0x64>)
    28d6:	685b      	ldr	r3, [r3, #4]
    28d8:	4798      	blx	r3
    if (mutex->flags == NRF_CC3XX_PLATFORM_MUTEX_MASK_IS_ATOMIC ||
    28da:	6863      	ldr	r3, [r4, #4]
    28dc:	2b04      	cmp	r3, #4
    28de:	d023      	beq.n	2928 <mutex_init_platform+0x5c>
    28e0:	2b08      	cmp	r3, #8
    28e2:	d021      	beq.n	2928 <mutex_init_platform+0x5c>
    if (mutex->flags == NRF_CC3XX_PLATFORM_MUTEX_MASK_INVALID &&
    28e4:	b9cb      	cbnz	r3, 291a <mutex_init_platform+0x4e>
    28e6:	6823      	ldr	r3, [r4, #0]
    28e8:	b9bb      	cbnz	r3, 291a <mutex_init_platform+0x4e>
        ret = k_mem_slab_alloc(&mutex_slab, &mutex->mutex, K_FOREVER);
    28ea:	4812      	ldr	r0, [pc, #72]	; (2934 <mutex_init_platform+0x68>)
    28ec:	f04f 32ff 	mov.w	r2, #4294967295
    28f0:	f04f 33ff 	mov.w	r3, #4294967295
    28f4:	4621      	mov	r1, r4
    28f6:	f004 f8f5 	bl	6ae4 <k_mem_slab_alloc>
        if(ret != 0 || mutex->mutex == NULL)
    28fa:	b908      	cbnz	r0, 2900 <mutex_init_platform+0x34>
    28fc:	6823      	ldr	r3, [r4, #0]
    28fe:	b91b      	cbnz	r3, 2908 <mutex_init_platform+0x3c>
            platform_abort_apis.abort_fn(
    2900:	4b0a      	ldr	r3, [pc, #40]	; (292c <mutex_init_platform+0x60>)
    2902:	480d      	ldr	r0, [pc, #52]	; (2938 <mutex_init_platform+0x6c>)
    2904:	685b      	ldr	r3, [r3, #4]
    2906:	4798      	blx	r3
        memset(mutex->mutex, 0, sizeof(struct k_mutex));
    2908:	6820      	ldr	r0, [r4, #0]
    290a:	2214      	movs	r2, #20
    290c:	2100      	movs	r1, #0
    290e:	f007 fc8a 	bl	a226 <memset>
        mutex->flags |= NRF_CC3XX_PLATFORM_MUTEX_MASK_IS_ALLOCATED;
    2912:	6863      	ldr	r3, [r4, #4]
    2914:	f043 0302 	orr.w	r3, r3, #2
    2918:	6063      	str	r3, [r4, #4]
    p_mutex = (struct k_mutex *)mutex->mutex;
    291a:	6820      	ldr	r0, [r4, #0]
	return z_impl_k_mutex_init(mutex);
    291c:	f008 f963 	bl	abe6 <z_impl_k_mutex_init>
    mutex->flags |= NRF_CC3XX_PLATFORM_MUTEX_MASK_IS_VALID;
    2920:	6863      	ldr	r3, [r4, #4]
    2922:	f043 0301 	orr.w	r3, r3, #1
    2926:	6063      	str	r3, [r4, #4]
}
    2928:	bd10      	pop	{r4, pc}
    292a:	bf00      	nop
    292c:	200001d0 	.word	0x200001d0
    2930:	0000b9a0 	.word	0x0000b9a0
    2934:	20000844 	.word	0x20000844
    2938:	0000b9c6 	.word	0x0000b9c6

0000293c <mutex_lock_platform>:
static int32_t mutex_lock_platform(nrf_cc3xx_platform_mutex_t *mutex) {
    293c:	b508      	push	{r3, lr}
    if(mutex == NULL) {
    293e:	b308      	cbz	r0, 2984 <mutex_lock_platform+0x48>
    switch (mutex->flags) {
    2940:	6843      	ldr	r3, [r0, #4]
    2942:	2b04      	cmp	r3, #4
    2944:	d110      	bne.n	2968 <mutex_lock_platform+0x2c>
    2946:	2201      	movs	r2, #1
    2948:	6803      	ldr	r3, [r0, #0]
    294a:	f3bf 8f5b 	dmb	ish
    294e:	e853 1f00 	ldrex	r1, [r3]
    2952:	2900      	cmp	r1, #0
    2954:	d103      	bne.n	295e <mutex_lock_platform+0x22>
    2956:	e843 2000 	strex	r0, r2, [r3]
    295a:	2800      	cmp	r0, #0
    295c:	d1f7      	bne.n	294e <mutex_lock_platform+0x12>
    295e:	f3bf 8f5b 	dmb	ish
                       NRF_CC3XX_PLATFORM_SUCCESS :
    2962:	d10b      	bne.n	297c <mutex_lock_platform+0x40>
    2964:	2000      	movs	r0, #0
}
    2966:	bd08      	pop	{r3, pc}
        if (mutex->flags == NRF_CC3XX_PLATFORM_MUTEX_MASK_INVALID) {
    2968:	b153      	cbz	r3, 2980 <mutex_lock_platform+0x44>
        p_mutex = (struct k_mutex *)mutex->mutex;
    296a:	6800      	ldr	r0, [r0, #0]
	return z_impl_k_mutex_lock(mutex, timeout);
    296c:	f04f 32ff 	mov.w	r2, #4294967295
    2970:	f04f 33ff 	mov.w	r3, #4294967295
    2974:	f004 f986 	bl	6c84 <z_impl_k_mutex_lock>
        if (ret == 0) {
    2978:	2800      	cmp	r0, #0
    297a:	d0f3      	beq.n	2964 <mutex_lock_platform+0x28>
                       NRF_CC3XX_PLATFORM_SUCCESS :
    297c:	4803      	ldr	r0, [pc, #12]	; (298c <mutex_lock_platform+0x50>)
    297e:	e7f2      	b.n	2966 <mutex_lock_platform+0x2a>
            return NRF_CC3XX_PLATFORM_ERROR_MUTEX_NOT_INITIALIZED;
    2980:	4803      	ldr	r0, [pc, #12]	; (2990 <mutex_lock_platform+0x54>)
    2982:	e7f0      	b.n	2966 <mutex_lock_platform+0x2a>
        return NRF_CC3XX_PLATFORM_ERROR_PARAM_NULL;
    2984:	f46f 40e0 	mvn.w	r0, #28672	; 0x7000
    2988:	e7ed      	b.n	2966 <mutex_lock_platform+0x2a>
    298a:	bf00      	nop
    298c:	ffff8fe9 	.word	0xffff8fe9
    2990:	ffff8fea 	.word	0xffff8fea

00002994 <nrf_cc3xx_platform_mutex_init>:
};

/** @brief Function to initialize the nrf_cc3xx_platform mutex APIs
 */
void nrf_cc3xx_platform_mutex_init(void)
{
    2994:	b508      	push	{r3, lr}
    k_mem_slab_init(&mutex_slab,
    2996:	4906      	ldr	r1, [pc, #24]	; (29b0 <nrf_cc3xx_platform_mutex_init+0x1c>)
    2998:	4806      	ldr	r0, [pc, #24]	; (29b4 <nrf_cc3xx_platform_mutex_init+0x20>)
    299a:	2340      	movs	r3, #64	; 0x40
    299c:	2214      	movs	r2, #20
    299e:	f008 f906 	bl	abae <k_mem_slab_init>
                mutex_slab_buffer,
                sizeof(struct k_mutex),
                NUM_MUTEXES);

    nrf_cc3xx_platform_set_mutexes(&mutex_apis, &mutexes);
}
    29a2:	e8bd 4008 	ldmia.w	sp!, {r3, lr}
    nrf_cc3xx_platform_set_mutexes(&mutex_apis, &mutexes);
    29a6:	4904      	ldr	r1, [pc, #16]	; (29b8 <nrf_cc3xx_platform_mutex_init+0x24>)
    29a8:	4804      	ldr	r0, [pc, #16]	; (29bc <nrf_cc3xx_platform_mutex_init+0x28>)
    29aa:	f007 b80d 	b.w	99c8 <nrf_cc3xx_platform_set_mutexes>
    29ae:	bf00      	nop
    29b0:	20000864 	.word	0x20000864
    29b4:	20000844 	.word	0x20000844
    29b8:	0000b010 	.word	0x0000b010
    29bc:	0000b000 	.word	0x0000b000

000029c0 <process_event>:
 * regions.
 */
static void process_event(struct onoff_manager *mgr,
			  int evt,
			  k_spinlock_key_t key)
{
    29c0:	e92d 4ff0 	stmdb	sp!, {r4, r5, r6, r7, r8, r9, sl, fp, lr}
	sys_slist_t clients;
	uint32_t state = mgr->flags & ONOFF_STATE_MASK;
    29c4:	f8b0 901c 	ldrh.w	r9, [r0, #28]
{
    29c8:	b085      	sub	sp, #20
	__ASSERT_NO_MSG(evt != EVT_NOP);

	/* If this is a nested call record the event for processing in
	 * the top invocation.
	 */
	if (processing) {
    29ca:	f019 0f08 	tst.w	r9, #8
{
    29ce:	4604      	mov	r4, r0
    29d0:	9203      	str	r2, [sp, #12]
	if (processing) {
    29d2:	d022      	beq.n	2a1a <process_event+0x5a>
		if (evt == EVT_COMPLETE) {
    29d4:	2901      	cmp	r1, #1
			mgr->flags |= ONOFF_FLAG_COMPLETE;
    29d6:	bf0c      	ite	eq
    29d8:	f049 0910 	orreq.w	r9, r9, #16
		} else {
			__ASSERT_NO_MSG(evt == EVT_RECHECK);

			mgr->flags |= ONOFF_FLAG_RECHECK;
    29dc:	f049 0920 	orrne.w	r9, r9, #32
    29e0:	f8a0 901c 	strh.w	r9, [r0, #28]

		state = mgr->flags & ONOFF_STATE_MASK;
	} while (evt != EVT_NOP);

out:
	k_spin_unlock(&mgr->lock, key);
    29e4:	3414      	adds	r4, #20
static ALWAYS_INLINE void k_spin_unlock(struct k_spinlock *l,
					k_spinlock_key_t key)
{
	ARG_UNUSED(l);
#ifdef CONFIG_SPIN_VALIDATE
	__ASSERT(z_spin_unlock_valid(l), "Not my spinlock %p", l);
    29e6:	4620      	mov	r0, r4
    29e8:	f006 f84c 	bl	8a84 <z_spin_unlock_valid>
    29ec:	b968      	cbnz	r0, 2a0a <process_event+0x4a>
    29ee:	4a9f      	ldr	r2, [pc, #636]	; (2c6c <process_event+0x2ac>)
    29f0:	499f      	ldr	r1, [pc, #636]	; (2c70 <process_event+0x2b0>)
    29f2:	48a0      	ldr	r0, [pc, #640]	; (2c74 <process_event+0x2b4>)
    29f4:	23ac      	movs	r3, #172	; 0xac
    29f6:	f007 fa22 	bl	9e3e <printk>
    29fa:	489f      	ldr	r0, [pc, #636]	; (2c78 <process_event+0x2b8>)
    29fc:	4621      	mov	r1, r4
    29fe:	f007 fa1e 	bl	9e3e <printk>
    2a02:	489a      	ldr	r0, [pc, #616]	; (2c6c <process_event+0x2ac>)
    2a04:	21ac      	movs	r1, #172	; 0xac
    2a06:	f007 f917 	bl	9c38 <assert_post_action>
	__asm__ volatile(
		"cpsie i;"
		"isb"
		: : : "memory");
#elif defined(CONFIG_ARMV7_M_ARMV8_M_MAINLINE)
	__asm__ volatile(
    2a0a:	9b03      	ldr	r3, [sp, #12]
    2a0c:	f383 8811 	msr	BASEPRI, r3
    2a10:	f3bf 8f6f 	isb	sy
}
    2a14:	b005      	add	sp, #20
    2a16:	e8bd 8ff0 	ldmia.w	sp!, {r4, r5, r6, r7, r8, r9, sl, fp, pc}
		__ASSERT_NO_MSG(false);
    2a1a:	4f98      	ldr	r7, [pc, #608]	; (2c7c <process_event+0x2bc>)
    2a1c:	f8df 8254 	ldr.w	r8, [pc, #596]	; 2c74 <process_event+0x2b4>
	uint32_t state = mgr->flags & ONOFF_STATE_MASK;
    2a20:	f009 0907 	and.w	r9, r9, #7
		if (evt == EVT_RECHECK) {
    2a24:	2902      	cmp	r1, #2
    2a26:	d106      	bne.n	2a36 <process_event+0x76>
			evt = process_recheck(mgr);
    2a28:	4620      	mov	r0, r4
    2a2a:	f007 f9b2 	bl	9d92 <process_recheck>
		if (evt == EVT_NOP) {
    2a2e:	2800      	cmp	r0, #0
    2a30:	d0d8      	beq.n	29e4 <process_event+0x24>
		if (evt == EVT_COMPLETE) {
    2a32:	2801      	cmp	r0, #1
    2a34:	d168      	bne.n	2b08 <process_event+0x148>
			res = mgr->last_res;
    2a36:	f8d4 b018 	ldr.w	fp, [r4, #24]
	uint32_t state = mgr->flags & ONOFF_STATE_MASK;
    2a3a:	8ba3      	ldrh	r3, [r4, #28]
	if (res < 0) {
    2a3c:	f1bb 0f00 	cmp.w	fp, #0
    2a40:	da0a      	bge.n	2a58 <process_event+0x98>
 *
 * @param list A pointer on the list to initialize
 */
static inline void sys_slist_init(sys_slist_t *list)
{
	list->head = NULL;
    2a42:	2600      	movs	r6, #0
		*clients = mgr->clients;
    2a44:	6825      	ldr	r5, [r4, #0]
		     | (mgr->flags & ~ONOFF_STATE_MASK);
    2a46:	f023 0307 	bic.w	r3, r3, #7
	list->tail = NULL;
    2a4a:	e9c4 6600 	strd	r6, r6, [r4]
    2a4e:	f043 0301 	orr.w	r3, r3, #1
	mgr->flags = (state & ONOFF_STATE_MASK)
    2a52:	83a3      	strh	r3, [r4, #28]
		onoff_transition_fn transit = NULL;
    2a54:	9601      	str	r6, [sp, #4]
    2a56:	e027      	b.n	2aa8 <process_event+0xe8>
	uint32_t state = mgr->flags & ONOFF_STATE_MASK;
    2a58:	f003 0207 	and.w	r2, r3, #7
		   || (state == ONOFF_STATE_RESETTING)) {
    2a5c:	1f51      	subs	r1, r2, #5
	} else if ((state == ONOFF_STATE_TO_ON)
    2a5e:	2901      	cmp	r1, #1
    2a60:	d834      	bhi.n	2acc <process_event+0x10c>
	list->head = NULL;
    2a62:	2100      	movs	r1, #0
    2a64:	f023 0307 	bic.w	r3, r3, #7
		if (state == ONOFF_STATE_TO_ON) {
    2a68:	2a06      	cmp	r2, #6
		*clients = mgr->clients;
    2a6a:	6825      	ldr	r5, [r4, #0]
    2a6c:	b29b      	uxth	r3, r3
	list->tail = NULL;
    2a6e:	e9c4 1100 	strd	r1, r1, [r4]
		if (state == ONOFF_STATE_TO_ON) {
    2a72:	d10c      	bne.n	2a8e <process_event+0xce>
 *
 * @return A pointer on the first node of the list (or NULL if none)
 */
static inline sys_snode_t *sys_slist_peek_head(sys_slist_t *list)
{
	return list->head;
    2a74:	428d      	cmp	r5, r1
    2a76:	462a      	mov	r2, r5
    2a78:	bf38      	it	cc
    2a7a:	460a      	movcc	r2, r1
			SYS_SLIST_FOR_EACH_CONTAINER(clients, cp, node) {
    2a7c:	b12a      	cbz	r2, 2a8a <process_event+0xca>
				mgr->refs += 1U;
    2a7e:	8be1      	ldrh	r1, [r4, #30]
 *
 * @return a pointer on the next node (or NULL if none)
 */
static inline sys_snode_t *sys_slist_peek_next_no_check(sys_snode_t *node);

Z_GENLIST_PEEK_NEXT_NO_CHECK(slist, snode)
    2a80:	6812      	ldr	r2, [r2, #0]
    2a82:	3101      	adds	r1, #1
    2a84:	83e1      	strh	r1, [r4, #30]
			SYS_SLIST_FOR_EACH_CONTAINER(clients, cp, node) {
    2a86:	2a00      	cmp	r2, #0
    2a88:	d1f8      	bne.n	2a7c <process_event+0xbc>
		     | (mgr->flags & ~ONOFF_STATE_MASK);
    2a8a:	f043 0302 	orr.w	r3, r3, #2
	mgr->flags = (state & ONOFF_STATE_MASK)
    2a8e:	83a3      	strh	r3, [r4, #28]
		if (process_recheck(mgr) != EVT_NOP) {
    2a90:	4620      	mov	r0, r4
    2a92:	f007 f97e 	bl	9d92 <process_recheck>
    2a96:	4606      	mov	r6, r0
    2a98:	2800      	cmp	r0, #0
    2a9a:	d0db      	beq.n	2a54 <process_event+0x94>
			mgr->flags |= ONOFF_FLAG_RECHECK;
    2a9c:	8ba3      	ldrh	r3, [r4, #28]
    2a9e:	f043 0320 	orr.w	r3, r3, #32
    2aa2:	83a3      	strh	r3, [r4, #28]
		onoff_transition_fn transit = NULL;
    2aa4:	2300      	movs	r3, #0
    2aa6:	9301      	str	r3, [sp, #4]
		bool do_monitors = (state != (mgr->flags & ONOFF_STATE_MASK))
    2aa8:	8ba3      	ldrh	r3, [r4, #28]
    2aaa:	f003 0207 	and.w	r2, r3, #7
				   && !sys_slist_is_empty(&mgr->monitors);
    2aae:	454a      	cmp	r2, r9
		bool do_monitors = (state != (mgr->flags & ONOFF_STATE_MASK))
    2ab0:	9202      	str	r2, [sp, #8]
				   && !sys_slist_is_empty(&mgr->monitors);
    2ab2:	d003      	beq.n	2abc <process_event+0xfc>
		if (do_monitors
    2ab4:	68a2      	ldr	r2, [r4, #8]
    2ab6:	2a00      	cmp	r2, #0
    2ab8:	f040 80f0 	bne.w	2c9c <process_event+0x2dc>
		    || !sys_slist_is_empty(&clients)
    2abc:	b91d      	cbnz	r5, 2ac6 <process_event+0x106>
		    || (transit != NULL)) {
    2abe:	9a01      	ldr	r2, [sp, #4]
    2ac0:	2a00      	cmp	r2, #0
    2ac2:	f000 8136 	beq.w	2d32 <process_event+0x372>
    2ac6:	f04f 0900 	mov.w	r9, #0
    2aca:	e0e9      	b.n	2ca0 <process_event+0x2e0>
	} else if (state == ONOFF_STATE_TO_OFF) {
    2acc:	2a04      	cmp	r2, #4
    2ace:	d10e      	bne.n	2aee <process_event+0x12e>
		     | (mgr->flags & ~ONOFF_STATE_MASK);
    2ad0:	f023 0307 	bic.w	r3, r3, #7
    2ad4:	b29a      	uxth	r2, r3
	mgr->flags = (state & ONOFF_STATE_MASK)
    2ad6:	83a2      	strh	r2, [r4, #28]
		if (process_recheck(mgr) != EVT_NOP) {
    2ad8:	4620      	mov	r0, r4
    2ada:	f007 f95a 	bl	9d92 <process_recheck>
    2ade:	4605      	mov	r5, r0
    2ae0:	b118      	cbz	r0, 2aea <process_event+0x12a>
			mgr->flags |= ONOFF_FLAG_RECHECK;
    2ae2:	f042 0220 	orr.w	r2, r2, #32
    2ae6:	83a2      	strh	r2, [r4, #28]
		__ASSERT_NO_MSG(false);
    2ae8:	2500      	movs	r5, #0
		onoff_transition_fn transit = NULL;
    2aea:	9501      	str	r5, [sp, #4]
    2aec:	e7dc      	b.n	2aa8 <process_event+0xe8>
		__ASSERT_NO_MSG(false);
    2aee:	4640      	mov	r0, r8
    2af0:	4963      	ldr	r1, [pc, #396]	; (2c80 <process_event+0x2c0>)
    2af2:	f240 131b 	movw	r3, #283	; 0x11b
    2af6:	463a      	mov	r2, r7
    2af8:	f007 f9a1 	bl	9e3e <printk>
    2afc:	f240 111b 	movw	r1, #283	; 0x11b
    2b00:	4638      	mov	r0, r7
    2b02:	f007 f899 	bl	9c38 <assert_post_action>
    2b06:	e7ef      	b.n	2ae8 <process_event+0x128>
		} else if (evt == EVT_START) {
    2b08:	2803      	cmp	r0, #3
    2b0a:	d135      	bne.n	2b78 <process_event+0x1b8>
			__ASSERT_NO_MSG(state == ONOFF_STATE_OFF);
    2b0c:	f1b9 0f00 	cmp.w	r9, #0
    2b10:	d00b      	beq.n	2b2a <process_event+0x16a>
    2b12:	495c      	ldr	r1, [pc, #368]	; (2c84 <process_event+0x2c4>)
    2b14:	4640      	mov	r0, r8
    2b16:	f44f 73ab 	mov.w	r3, #342	; 0x156
    2b1a:	463a      	mov	r2, r7
    2b1c:	f007 f98f 	bl	9e3e <printk>
    2b20:	f44f 71ab 	mov.w	r1, #342	; 0x156
    2b24:	4638      	mov	r0, r7
    2b26:	f007 f887 	bl	9c38 <assert_post_action>
			__ASSERT_NO_MSG(!sys_slist_is_empty(&mgr->clients));
    2b2a:	6823      	ldr	r3, [r4, #0]
    2b2c:	b95b      	cbnz	r3, 2b46 <process_event+0x186>
    2b2e:	4956      	ldr	r1, [pc, #344]	; (2c88 <process_event+0x2c8>)
    2b30:	4640      	mov	r0, r8
    2b32:	f240 1357 	movw	r3, #343	; 0x157
    2b36:	463a      	mov	r2, r7
    2b38:	f007 f981 	bl	9e3e <printk>
    2b3c:	f240 1157 	movw	r1, #343	; 0x157
    2b40:	4638      	mov	r0, r7
    2b42:	f007 f879 	bl	9c38 <assert_post_action>
			transit = mgr->transitions->start;
    2b46:	6923      	ldr	r3, [r4, #16]
    2b48:	681b      	ldr	r3, [r3, #0]
    2b4a:	9301      	str	r3, [sp, #4]
			__ASSERT_NO_MSG(transit != NULL);
    2b4c:	b95b      	cbnz	r3, 2b66 <process_event+0x1a6>
    2b4e:	494f      	ldr	r1, [pc, #316]	; (2c8c <process_event+0x2cc>)
    2b50:	4640      	mov	r0, r8
    2b52:	f44f 73ad 	mov.w	r3, #346	; 0x15a
    2b56:	463a      	mov	r2, r7
    2b58:	f007 f971 	bl	9e3e <printk>
    2b5c:	f44f 71ad 	mov.w	r1, #346	; 0x15a
    2b60:	4638      	mov	r0, r7
    2b62:	f007 f869 	bl	9c38 <assert_post_action>
		     | (mgr->flags & ~ONOFF_STATE_MASK);
    2b66:	8ba3      	ldrh	r3, [r4, #28]
    2b68:	f023 0307 	bic.w	r3, r3, #7
    2b6c:	f043 0306 	orr.w	r3, r3, #6
	mgr->flags = (state & ONOFF_STATE_MASK)
    2b70:	83a3      	strh	r3, [r4, #28]
}
    2b72:	2500      	movs	r5, #0
		res = 0;
    2b74:	46ab      	mov	fp, r5
}
    2b76:	e797      	b.n	2aa8 <process_event+0xe8>
		} else if (evt == EVT_STOP) {
    2b78:	2804      	cmp	r0, #4
    2b7a:	d132      	bne.n	2be2 <process_event+0x222>
			__ASSERT_NO_MSG(state == ONOFF_STATE_ON);
    2b7c:	f1b9 0f02 	cmp.w	r9, #2
    2b80:	d00b      	beq.n	2b9a <process_event+0x1da>
    2b82:	4943      	ldr	r1, [pc, #268]	; (2c90 <process_event+0x2d0>)
    2b84:	4640      	mov	r0, r8
    2b86:	f240 135d 	movw	r3, #349	; 0x15d
    2b8a:	463a      	mov	r2, r7
    2b8c:	f007 f957 	bl	9e3e <printk>
    2b90:	f240 115d 	movw	r1, #349	; 0x15d
    2b94:	4638      	mov	r0, r7
    2b96:	f007 f84f 	bl	9c38 <assert_post_action>
			__ASSERT_NO_MSG(mgr->refs == 0);
    2b9a:	8be3      	ldrh	r3, [r4, #30]
    2b9c:	b15b      	cbz	r3, 2bb6 <process_event+0x1f6>
    2b9e:	493d      	ldr	r1, [pc, #244]	; (2c94 <process_event+0x2d4>)
    2ba0:	4640      	mov	r0, r8
    2ba2:	f44f 73af 	mov.w	r3, #350	; 0x15e
    2ba6:	463a      	mov	r2, r7
    2ba8:	f007 f949 	bl	9e3e <printk>
    2bac:	f44f 71af 	mov.w	r1, #350	; 0x15e
    2bb0:	4638      	mov	r0, r7
    2bb2:	f007 f841 	bl	9c38 <assert_post_action>
			transit = mgr->transitions->stop;
    2bb6:	6923      	ldr	r3, [r4, #16]
    2bb8:	685b      	ldr	r3, [r3, #4]
    2bba:	9301      	str	r3, [sp, #4]
			__ASSERT_NO_MSG(transit != NULL);
    2bbc:	b95b      	cbnz	r3, 2bd6 <process_event+0x216>
    2bbe:	4933      	ldr	r1, [pc, #204]	; (2c8c <process_event+0x2cc>)
    2bc0:	4640      	mov	r0, r8
    2bc2:	f240 1361 	movw	r3, #353	; 0x161
    2bc6:	463a      	mov	r2, r7
    2bc8:	f007 f939 	bl	9e3e <printk>
    2bcc:	f240 1161 	movw	r1, #353	; 0x161
    2bd0:	4638      	mov	r0, r7
    2bd2:	f007 f831 	bl	9c38 <assert_post_action>
		     | (mgr->flags & ~ONOFF_STATE_MASK);
    2bd6:	8ba3      	ldrh	r3, [r4, #28]
    2bd8:	f023 0307 	bic.w	r3, r3, #7
    2bdc:	f043 0304 	orr.w	r3, r3, #4
    2be0:	e7c6      	b.n	2b70 <process_event+0x1b0>
		} else if (evt == EVT_RESET) {
    2be2:	2805      	cmp	r0, #5
    2be4:	d132      	bne.n	2c4c <process_event+0x28c>
			__ASSERT_NO_MSG(state == ONOFF_STATE_ERROR);
    2be6:	f1b9 0f01 	cmp.w	r9, #1
    2bea:	d00b      	beq.n	2c04 <process_event+0x244>
    2bec:	492a      	ldr	r1, [pc, #168]	; (2c98 <process_event+0x2d8>)
    2bee:	4640      	mov	r0, r8
    2bf0:	f44f 73b2 	mov.w	r3, #356	; 0x164
    2bf4:	463a      	mov	r2, r7
    2bf6:	f007 f922 	bl	9e3e <printk>
    2bfa:	f44f 71b2 	mov.w	r1, #356	; 0x164
    2bfe:	4638      	mov	r0, r7
    2c00:	f007 f81a 	bl	9c38 <assert_post_action>
			__ASSERT_NO_MSG(!sys_slist_is_empty(&mgr->clients));
    2c04:	6823      	ldr	r3, [r4, #0]
    2c06:	b95b      	cbnz	r3, 2c20 <process_event+0x260>
    2c08:	491f      	ldr	r1, [pc, #124]	; (2c88 <process_event+0x2c8>)
    2c0a:	4640      	mov	r0, r8
    2c0c:	f240 1365 	movw	r3, #357	; 0x165
    2c10:	463a      	mov	r2, r7
    2c12:	f007 f914 	bl	9e3e <printk>
    2c16:	f240 1165 	movw	r1, #357	; 0x165
    2c1a:	4638      	mov	r0, r7
    2c1c:	f007 f80c 	bl	9c38 <assert_post_action>
			transit = mgr->transitions->reset;
    2c20:	6923      	ldr	r3, [r4, #16]
    2c22:	689b      	ldr	r3, [r3, #8]
    2c24:	9301      	str	r3, [sp, #4]
			__ASSERT_NO_MSG(transit != NULL);
    2c26:	b95b      	cbnz	r3, 2c40 <process_event+0x280>
    2c28:	4918      	ldr	r1, [pc, #96]	; (2c8c <process_event+0x2cc>)
    2c2a:	4640      	mov	r0, r8
    2c2c:	f44f 73b4 	mov.w	r3, #360	; 0x168
    2c30:	463a      	mov	r2, r7
    2c32:	f007 f904 	bl	9e3e <printk>
    2c36:	f44f 71b4 	mov.w	r1, #360	; 0x168
    2c3a:	4638      	mov	r0, r7
    2c3c:	f006 fffc 	bl	9c38 <assert_post_action>
		     | (mgr->flags & ~ONOFF_STATE_MASK);
    2c40:	8ba3      	ldrh	r3, [r4, #28]
    2c42:	f023 0307 	bic.w	r3, r3, #7
    2c46:	f043 0305 	orr.w	r3, r3, #5
    2c4a:	e791      	b.n	2b70 <process_event+0x1b0>
			__ASSERT_NO_MSG(false);
    2c4c:	490c      	ldr	r1, [pc, #48]	; (2c80 <process_event+0x2c0>)
    2c4e:	f240 136b 	movw	r3, #363	; 0x16b
    2c52:	463a      	mov	r2, r7
    2c54:	4640      	mov	r0, r8
    2c56:	f007 f8f2 	bl	9e3e <printk>
    2c5a:	2500      	movs	r5, #0
    2c5c:	f240 116b 	movw	r1, #363	; 0x16b
    2c60:	4638      	mov	r0, r7
    2c62:	f006 ffe9 	bl	9c38 <assert_post_action>
		onoff_transition_fn transit = NULL;
    2c66:	9501      	str	r5, [sp, #4]
    2c68:	e784      	b.n	2b74 <process_event+0x1b4>
    2c6a:	bf00      	nop
    2c6c:	0000ba96 	.word	0x0000ba96
    2c70:	0000babc 	.word	0x0000babc
    2c74:	0000b2d3 	.word	0x0000b2d3
    2c78:	0000bad3 	.word	0x0000bad3
    2c7c:	0000b9f3 	.word	0x0000b9f3
    2c80:	0000b2d1 	.word	0x0000b2d1
    2c84:	0000ba15 	.word	0x0000ba15
    2c88:	0000ba21 	.word	0x0000ba21
    2c8c:	0000ba44 	.word	0x0000ba44
    2c90:	0000ba5b 	.word	0x0000ba5b
    2c94:	0000ba71 	.word	0x0000ba71
    2c98:	0000ba80 	.word	0x0000ba80
				   && !sys_slist_is_empty(&mgr->monitors);
    2c9c:	f04f 0901 	mov.w	r9, #1
			uint32_t flags = mgr->flags | ONOFF_FLAG_PROCESSING;
    2ca0:	f043 0308 	orr.w	r3, r3, #8
			k_spin_unlock(&mgr->lock, key);
    2ca4:	f104 0a14 	add.w	sl, r4, #20
			mgr->flags = flags;
    2ca8:	83a3      	strh	r3, [r4, #28]
    2caa:	4650      	mov	r0, sl
    2cac:	f005 feea 	bl	8a84 <z_spin_unlock_valid>
    2cb0:	b968      	cbnz	r0, 2cce <process_event+0x30e>
    2cb2:	4a3a      	ldr	r2, [pc, #232]	; (2d9c <process_event+0x3dc>)
    2cb4:	493a      	ldr	r1, [pc, #232]	; (2da0 <process_event+0x3e0>)
    2cb6:	23ac      	movs	r3, #172	; 0xac
    2cb8:	4640      	mov	r0, r8
    2cba:	f007 f8c0 	bl	9e3e <printk>
    2cbe:	4839      	ldr	r0, [pc, #228]	; (2da4 <process_event+0x3e4>)
    2cc0:	4651      	mov	r1, sl
    2cc2:	f007 f8bc 	bl	9e3e <printk>
    2cc6:	4835      	ldr	r0, [pc, #212]	; (2d9c <process_event+0x3dc>)
    2cc8:	21ac      	movs	r1, #172	; 0xac
    2cca:	f006 ffb5 	bl	9c38 <assert_post_action>
    2cce:	9b03      	ldr	r3, [sp, #12]
    2cd0:	f383 8811 	msr	BASEPRI, r3
    2cd4:	f3bf 8f6f 	isb	sy
			if (do_monitors) {
    2cd8:	f1b9 0f00 	cmp.w	r9, #0
    2cdc:	d138      	bne.n	2d50 <process_event+0x390>
	while (!sys_slist_is_empty(list)) {
    2cde:	2d00      	cmp	r5, #0
    2ce0:	d14b      	bne.n	2d7a <process_event+0x3ba>
			if (transit != NULL) {
    2ce2:	9b01      	ldr	r3, [sp, #4]
    2ce4:	b113      	cbz	r3, 2cec <process_event+0x32c>
				transit(mgr, transition_complete);
    2ce6:	4930      	ldr	r1, [pc, #192]	; (2da8 <process_event+0x3e8>)
    2ce8:	4620      	mov	r0, r4
    2cea:	4798      	blx	r3
	__asm__ volatile(
    2cec:	f04f 0320 	mov.w	r3, #32
    2cf0:	f3ef 8b11 	mrs	fp, BASEPRI
    2cf4:	f383 8812 	msr	BASEPRI_MAX, r3
    2cf8:	f3bf 8f6f 	isb	sy
	__ASSERT(z_spin_lock_valid(l), "Recursive spinlock %p", l);
    2cfc:	4650      	mov	r0, sl
	k.key = arch_irq_lock();
    2cfe:	f8cd b00c 	str.w	fp, [sp, #12]
	__ASSERT(z_spin_lock_valid(l), "Recursive spinlock %p", l);
    2d02:	f005 feb1 	bl	8a68 <z_spin_lock_valid>
    2d06:	b968      	cbnz	r0, 2d24 <process_event+0x364>
    2d08:	4a24      	ldr	r2, [pc, #144]	; (2d9c <process_event+0x3dc>)
    2d0a:	4928      	ldr	r1, [pc, #160]	; (2dac <process_event+0x3ec>)
    2d0c:	2381      	movs	r3, #129	; 0x81
    2d0e:	4640      	mov	r0, r8
    2d10:	f007 f895 	bl	9e3e <printk>
    2d14:	4826      	ldr	r0, [pc, #152]	; (2db0 <process_event+0x3f0>)
    2d16:	4651      	mov	r1, sl
    2d18:	f007 f891 	bl	9e3e <printk>
    2d1c:	481f      	ldr	r0, [pc, #124]	; (2d9c <process_event+0x3dc>)
    2d1e:	2181      	movs	r1, #129	; 0x81
    2d20:	f006 ff8a 	bl	9c38 <assert_post_action>
	z_spin_lock_set_owner(l);
    2d24:	4650      	mov	r0, sl
    2d26:	f005 febd 	bl	8aa4 <z_spin_lock_set_owner>
			mgr->flags &= ~ONOFF_FLAG_PROCESSING;
    2d2a:	8ba3      	ldrh	r3, [r4, #28]
    2d2c:	f023 0308 	bic.w	r3, r3, #8
    2d30:	83a3      	strh	r3, [r4, #28]
		if ((mgr->flags & ONOFF_FLAG_COMPLETE) != 0) {
    2d32:	8ba3      	ldrh	r3, [r4, #28]
    2d34:	06da      	lsls	r2, r3, #27
    2d36:	d528      	bpl.n	2d8a <process_event+0x3ca>
			mgr->flags &= ~ONOFF_FLAG_COMPLETE;
    2d38:	f023 0310 	bic.w	r3, r3, #16
    2d3c:	83a3      	strh	r3, [r4, #28]
			evt = EVT_COMPLETE;
    2d3e:	2101      	movs	r1, #1
		state = mgr->flags & ONOFF_STATE_MASK;
    2d40:	f8b4 901c 	ldrh.w	r9, [r4, #28]
    2d44:	f009 0907 	and.w	r9, r9, #7
	} while (evt != EVT_NOP);
    2d48:	2900      	cmp	r1, #0
    2d4a:	f47f ae6b 	bne.w	2a24 <process_event+0x64>
out:
    2d4e:	e649      	b.n	29e4 <process_event+0x24>
	SYS_SLIST_FOR_EACH_CONTAINER_SAFE(mlist, mon, tmp, node) {
    2d50:	68a1      	ldr	r1, [r4, #8]
    2d52:	2900      	cmp	r1, #0
    2d54:	d0c3      	beq.n	2cde <process_event+0x31e>
	return node->next;
    2d56:	680b      	ldr	r3, [r1, #0]
		mon->callback(mgr, mon, state, res);
    2d58:	9a02      	ldr	r2, [sp, #8]
    2d5a:	2b00      	cmp	r3, #0
    2d5c:	bf38      	it	cc
    2d5e:	2300      	movcc	r3, #0
    2d60:	4699      	mov	r9, r3
    2d62:	684b      	ldr	r3, [r1, #4]
    2d64:	4620      	mov	r0, r4
    2d66:	461e      	mov	r6, r3
    2d68:	465b      	mov	r3, fp
    2d6a:	47b0      	blx	r6
	SYS_SLIST_FOR_EACH_CONTAINER_SAFE(mlist, mon, tmp, node) {
    2d6c:	f1b9 0f00 	cmp.w	r9, #0
    2d70:	d0b5      	beq.n	2cde <process_event+0x31e>
    2d72:	f8d9 3000 	ldr.w	r3, [r9]
Z_GENLIST_PEEK_NEXT_NO_CHECK(slist, snode)
    2d76:	4649      	mov	r1, r9
    2d78:	e7ee      	b.n	2d58 <process_event+0x398>
 *
 * @return A pointer to the first node of the list
 */
static inline sys_snode_t *sys_slist_get_not_empty(sys_slist_t *list);

Z_GENLIST_GET_NOT_EMPTY(slist, snode)
    2d7a:	4629      	mov	r1, r5
		notify_one(mgr, cli, state, res);
    2d7c:	9a02      	ldr	r2, [sp, #8]
    2d7e:	682d      	ldr	r5, [r5, #0]
    2d80:	465b      	mov	r3, fp
    2d82:	4620      	mov	r0, r4
    2d84:	f007 f821 	bl	9dca <notify_one>
    2d88:	e7a9      	b.n	2cde <process_event+0x31e>
		} else if ((mgr->flags & ONOFF_FLAG_RECHECK) != 0) {
    2d8a:	f013 0120 	ands.w	r1, r3, #32
			mgr->flags &= ~ONOFF_FLAG_RECHECK;
    2d8e:	bf1e      	ittt	ne
    2d90:	f023 0320 	bicne.w	r3, r3, #32
    2d94:	83a3      	strhne	r3, [r4, #28]
			evt = EVT_RECHECK;
    2d96:	2102      	movne	r1, #2
    2d98:	e7d2      	b.n	2d40 <process_event+0x380>
    2d9a:	bf00      	nop
    2d9c:	0000ba96 	.word	0x0000ba96
    2da0:	0000babc 	.word	0x0000babc
    2da4:	0000bad3 	.word	0x0000bad3
    2da8:	00002db5 	.word	0x00002db5
    2dac:	0000bae8 	.word	0x0000bae8
    2db0:	0000bafd 	.word	0x0000bafd

00002db4 <transition_complete>:
{
    2db4:	b5f8      	push	{r3, r4, r5, r6, r7, lr}
    2db6:	4604      	mov	r4, r0
    2db8:	460d      	mov	r5, r1
	k_spinlock_key_t key = k_spin_lock(&mgr->lock);
    2dba:	f100 0614 	add.w	r6, r0, #20
    2dbe:	f04f 0320 	mov.w	r3, #32
    2dc2:	f3ef 8711 	mrs	r7, BASEPRI
    2dc6:	f383 8812 	msr	BASEPRI_MAX, r3
    2dca:	f3bf 8f6f 	isb	sy
	__ASSERT(z_spin_lock_valid(l), "Recursive spinlock %p", l);
    2dce:	4630      	mov	r0, r6
    2dd0:	f005 fe4a 	bl	8a68 <z_spin_lock_valid>
    2dd4:	b968      	cbnz	r0, 2df2 <transition_complete+0x3e>
    2dd6:	4a0c      	ldr	r2, [pc, #48]	; (2e08 <transition_complete+0x54>)
    2dd8:	490c      	ldr	r1, [pc, #48]	; (2e0c <transition_complete+0x58>)
    2dda:	480d      	ldr	r0, [pc, #52]	; (2e10 <transition_complete+0x5c>)
    2ddc:	2381      	movs	r3, #129	; 0x81
    2dde:	f007 f82e 	bl	9e3e <printk>
    2de2:	480c      	ldr	r0, [pc, #48]	; (2e14 <transition_complete+0x60>)
    2de4:	4631      	mov	r1, r6
    2de6:	f007 f82a 	bl	9e3e <printk>
    2dea:	4807      	ldr	r0, [pc, #28]	; (2e08 <transition_complete+0x54>)
    2dec:	2181      	movs	r1, #129	; 0x81
    2dee:	f006 ff23 	bl	9c38 <assert_post_action>
	z_spin_lock_set_owner(l);
    2df2:	4630      	mov	r0, r6
    2df4:	f005 fe56 	bl	8aa4 <z_spin_lock_set_owner>
	mgr->last_res = res;
    2df8:	61a5      	str	r5, [r4, #24]
	process_event(mgr, EVT_COMPLETE, key);
    2dfa:	463a      	mov	r2, r7
    2dfc:	4620      	mov	r0, r4
    2dfe:	2101      	movs	r1, #1
}
    2e00:	e8bd 40f8 	ldmia.w	sp!, {r3, r4, r5, r6, r7, lr}
	process_event(mgr, EVT_COMPLETE, key);
    2e04:	f7ff bddc 	b.w	29c0 <process_event>
    2e08:	0000ba96 	.word	0x0000ba96
    2e0c:	0000bae8 	.word	0x0000bae8
    2e10:	0000b2d3 	.word	0x0000b2d3
    2e14:	0000bafd 	.word	0x0000bafd

00002e18 <onoff_request>:

int onoff_request(struct onoff_manager *mgr,
		  struct onoff_client *cli)
{
    2e18:	e92d 47f0 	stmdb	sp!, {r4, r5, r6, r7, r8, r9, sl, lr}
    2e1c:	4604      	mov	r4, r0
    2e1e:	460f      	mov	r7, r1
	bool add_client = false;        /* add client to pending list */
	bool start = false;             /* trigger a start transition */
	bool notify = false;            /* do client notification */
	int rv = validate_args(mgr, cli);
    2e20:	f006 ffe9 	bl	9df6 <validate_args>

	if (rv < 0) {
    2e24:	1e05      	subs	r5, r0, #0
    2e26:	db5e      	blt.n	2ee6 <onoff_request+0xce>
		return rv;
	}

	k_spinlock_key_t key = k_spin_lock(&mgr->lock);
    2e28:	f104 0914 	add.w	r9, r4, #20
    2e2c:	f04f 0320 	mov.w	r3, #32
    2e30:	f3ef 8a11 	mrs	sl, BASEPRI
    2e34:	f383 8812 	msr	BASEPRI_MAX, r3
    2e38:	f3bf 8f6f 	isb	sy
	__ASSERT(z_spin_lock_valid(l), "Recursive spinlock %p", l);
    2e3c:	4648      	mov	r0, r9
    2e3e:	f005 fe13 	bl	8a68 <z_spin_lock_valid>
    2e42:	b968      	cbnz	r0, 2e60 <onoff_request+0x48>
    2e44:	4a38      	ldr	r2, [pc, #224]	; (2f28 <onoff_request+0x110>)
    2e46:	4939      	ldr	r1, [pc, #228]	; (2f2c <onoff_request+0x114>)
    2e48:	4839      	ldr	r0, [pc, #228]	; (2f30 <onoff_request+0x118>)
    2e4a:	2381      	movs	r3, #129	; 0x81
    2e4c:	f006 fff7 	bl	9e3e <printk>
    2e50:	4838      	ldr	r0, [pc, #224]	; (2f34 <onoff_request+0x11c>)
    2e52:	4649      	mov	r1, r9
    2e54:	f006 fff3 	bl	9e3e <printk>
    2e58:	4833      	ldr	r0, [pc, #204]	; (2f28 <onoff_request+0x110>)
    2e5a:	2181      	movs	r1, #129	; 0x81
    2e5c:	f006 feec 	bl	9c38 <assert_post_action>
	z_spin_lock_set_owner(l);
    2e60:	4648      	mov	r0, r9
    2e62:	f005 fe1f 	bl	8aa4 <z_spin_lock_set_owner>
	uint32_t state = mgr->flags & ONOFF_STATE_MASK;

	/* Reject if this would overflow the reference count. */
	if (mgr->refs == SERVICE_REFS_MAX) {
    2e66:	8be3      	ldrh	r3, [r4, #30]
	uint32_t state = mgr->flags & ONOFF_STATE_MASK;
    2e68:	8ba2      	ldrh	r2, [r4, #28]
	if (mgr->refs == SERVICE_REFS_MAX) {
    2e6a:	f64f 71ff 	movw	r1, #65535	; 0xffff
    2e6e:	428b      	cmp	r3, r1
    2e70:	f002 0607 	and.w	r6, r2, #7
    2e74:	d050      	beq.n	2f18 <onoff_request+0x100>
		rv = -EAGAIN;
		goto out;
	}

	rv = state;
	if (state == ONOFF_STATE_ON) {
    2e76:	2e02      	cmp	r6, #2
    2e78:	d124      	bne.n	2ec4 <onoff_request+0xac>
		/* Increment reference count, notify in exit */
		notify = true;
		mgr->refs += 1U;
    2e7a:	3301      	adds	r3, #1
    2e7c:	83e3      	strh	r3, [r4, #30]
	rv = state;
    2e7e:	4635      	mov	r5, r6
		notify = true;
    2e80:	f04f 0801 	mov.w	r8, #1
	__ASSERT(z_spin_unlock_valid(l), "Not my spinlock %p", l);
    2e84:	4648      	mov	r0, r9
    2e86:	f005 fdfd 	bl	8a84 <z_spin_unlock_valid>
    2e8a:	b968      	cbnz	r0, 2ea8 <onoff_request+0x90>
    2e8c:	4a26      	ldr	r2, [pc, #152]	; (2f28 <onoff_request+0x110>)
    2e8e:	492a      	ldr	r1, [pc, #168]	; (2f38 <onoff_request+0x120>)
    2e90:	4827      	ldr	r0, [pc, #156]	; (2f30 <onoff_request+0x118>)
    2e92:	23ac      	movs	r3, #172	; 0xac
    2e94:	f006 ffd3 	bl	9e3e <printk>
    2e98:	4828      	ldr	r0, [pc, #160]	; (2f3c <onoff_request+0x124>)
    2e9a:	4649      	mov	r1, r9
    2e9c:	f006 ffcf 	bl	9e3e <printk>
    2ea0:	4821      	ldr	r0, [pc, #132]	; (2f28 <onoff_request+0x110>)
    2ea2:	21ac      	movs	r1, #172	; 0xac
    2ea4:	f006 fec8 	bl	9c38 <assert_post_action>
	__asm__ volatile(
    2ea8:	f38a 8811 	msr	BASEPRI, sl
    2eac:	f3bf 8f6f 	isb	sy
	if (start) {
		process_event(mgr, EVT_RECHECK, key);
	} else {
		k_spin_unlock(&mgr->lock, key);

		if (notify) {
    2eb0:	f1b8 0f00 	cmp.w	r8, #0
    2eb4:	d017      	beq.n	2ee6 <onoff_request+0xce>
			notify_one(mgr, cli, state, 0);
    2eb6:	2300      	movs	r3, #0
    2eb8:	4632      	mov	r2, r6
    2eba:	4639      	mov	r1, r7
    2ebc:	4620      	mov	r0, r4
    2ebe:	f006 ff84 	bl	9dca <notify_one>
    2ec2:	e010      	b.n	2ee6 <onoff_request+0xce>
	} else if ((state == ONOFF_STATE_OFF)
    2ec4:	0793      	lsls	r3, r2, #30
    2ec6:	d001      	beq.n	2ecc <onoff_request+0xb4>
		   || (state == ONOFF_STATE_TO_ON)) {
    2ec8:	2e06      	cmp	r6, #6
    2eca:	d10f      	bne.n	2eec <onoff_request+0xd4>
	parent->next = child;
    2ecc:	2300      	movs	r3, #0
    2ece:	603b      	str	r3, [r7, #0]
Z_GENLIST_APPEND(slist, snode)
    2ed0:	6863      	ldr	r3, [r4, #4]
    2ed2:	b9f3      	cbnz	r3, 2f12 <onoff_request+0xfa>
	list->head = node;
    2ed4:	e9c4 7700 	strd	r7, r7, [r4]
	if (start) {
    2ed8:	4635      	mov	r5, r6
    2eda:	b9fe      	cbnz	r6, 2f1c <onoff_request+0x104>
		process_event(mgr, EVT_RECHECK, key);
    2edc:	4652      	mov	r2, sl
    2ede:	2102      	movs	r1, #2
    2ee0:	4620      	mov	r0, r4
    2ee2:	f7ff fd6d 	bl	29c0 <process_event>
		}
	}

	return rv;
}
    2ee6:	4628      	mov	r0, r5
    2ee8:	e8bd 87f0 	ldmia.w	sp!, {r4, r5, r6, r7, r8, r9, sl, pc}
	} else if (state == ONOFF_STATE_RESETTING) {
    2eec:	2e05      	cmp	r6, #5
    2eee:	d018      	beq.n	2f22 <onoff_request+0x10a>
		__ASSERT_NO_MSG(state == ONOFF_STATE_ERROR);
    2ef0:	2e01      	cmp	r6, #1
    2ef2:	d00b      	beq.n	2f0c <onoff_request+0xf4>
    2ef4:	4912      	ldr	r1, [pc, #72]	; (2f40 <onoff_request+0x128>)
    2ef6:	480e      	ldr	r0, [pc, #56]	; (2f30 <onoff_request+0x118>)
    2ef8:	4a12      	ldr	r2, [pc, #72]	; (2f44 <onoff_request+0x12c>)
    2efa:	f240 13c9 	movw	r3, #457	; 0x1c9
    2efe:	f006 ff9e 	bl	9e3e <printk>
    2f02:	4810      	ldr	r0, [pc, #64]	; (2f44 <onoff_request+0x12c>)
    2f04:	f240 11c9 	movw	r1, #457	; 0x1c9
    2f08:	f006 fe96 	bl	9c38 <assert_post_action>
		rv = -EIO;
    2f0c:	f06f 0504 	mvn.w	r5, #4
    2f10:	e004      	b.n	2f1c <onoff_request+0x104>
	parent->next = child;
    2f12:	601f      	str	r7, [r3, #0]
	list->tail = node;
    2f14:	6067      	str	r7, [r4, #4]
}
    2f16:	e7df      	b.n	2ed8 <onoff_request+0xc0>
		rv = -EAGAIN;
    2f18:	f06f 050a 	mvn.w	r5, #10
    2f1c:	f04f 0800 	mov.w	r8, #0
    2f20:	e7b0      	b.n	2e84 <onoff_request+0x6c>
		rv = -ENOTSUP;
    2f22:	f06f 0585 	mvn.w	r5, #133	; 0x85
    2f26:	e7f9      	b.n	2f1c <onoff_request+0x104>
    2f28:	0000ba96 	.word	0x0000ba96
    2f2c:	0000bae8 	.word	0x0000bae8
    2f30:	0000b2d3 	.word	0x0000b2d3
    2f34:	0000bafd 	.word	0x0000bafd
    2f38:	0000babc 	.word	0x0000babc
    2f3c:	0000bad3 	.word	0x0000bad3
    2f40:	0000ba80 	.word	0x0000ba80
    2f44:	0000b9f3 	.word	0x0000b9f3

00002f48 <pm_state_notify>:
/*
 * Function called to notify when the system is entering / exiting a
 * power state
 */
static inline void pm_state_notify(bool entering_state)
{
    2f48:	e92d 43f8 	stmdb	sp!, {r3, r4, r5, r6, r7, r8, r9, lr}
    2f4c:	4605      	mov	r5, r0
	__asm__ volatile(
    2f4e:	f04f 0320 	mov.w	r3, #32
    2f52:	f3ef 8611 	mrs	r6, BASEPRI
    2f56:	f383 8812 	msr	BASEPRI_MAX, r3
    2f5a:	f3bf 8f6f 	isb	sy
	__ASSERT(z_spin_lock_valid(l), "Recursive spinlock %p", l);
    2f5e:	4823      	ldr	r0, [pc, #140]	; (2fec <pm_state_notify+0xa4>)
    2f60:	f005 fd82 	bl	8a68 <z_spin_lock_valid>
    2f64:	b968      	cbnz	r0, 2f82 <pm_state_notify+0x3a>
    2f66:	4a22      	ldr	r2, [pc, #136]	; (2ff0 <pm_state_notify+0xa8>)
    2f68:	4922      	ldr	r1, [pc, #136]	; (2ff4 <pm_state_notify+0xac>)
    2f6a:	4823      	ldr	r0, [pc, #140]	; (2ff8 <pm_state_notify+0xb0>)
    2f6c:	2381      	movs	r3, #129	; 0x81
    2f6e:	f006 ff66 	bl	9e3e <printk>
    2f72:	491e      	ldr	r1, [pc, #120]	; (2fec <pm_state_notify+0xa4>)
    2f74:	4821      	ldr	r0, [pc, #132]	; (2ffc <pm_state_notify+0xb4>)
    2f76:	f006 ff62 	bl	9e3e <printk>
    2f7a:	481d      	ldr	r0, [pc, #116]	; (2ff0 <pm_state_notify+0xa8>)
    2f7c:	2181      	movs	r1, #129	; 0x81
    2f7e:	f006 fe5b 	bl	9c38 <assert_post_action>
	z_spin_lock_set_owner(l);
    2f82:	481a      	ldr	r0, [pc, #104]	; (2fec <pm_state_notify+0xa4>)
    2f84:	f005 fd8e 	bl	8aa4 <z_spin_lock_set_owner>
	struct pm_notifier *notifier;
	k_spinlock_key_t pm_notifier_key;
	void (*callback)(enum pm_state state);

	pm_notifier_key = k_spin_lock(&pm_notifier_lock);
	SYS_SLIST_FOR_EACH_CONTAINER(&pm_notifiers, notifier, _node) {
    2f88:	4b1d      	ldr	r3, [pc, #116]	; (3000 <pm_state_notify+0xb8>)
    2f8a:	681c      	ldr	r4, [r3, #0]
    2f8c:	2c00      	cmp	r4, #0
    2f8e:	bf38      	it	cc
    2f90:	2400      	movcc	r4, #0
    2f92:	b19c      	cbz	r4, 2fbc <pm_state_notify+0x74>
		} else {
			callback = notifier->state_exit;
		}

		if (callback) {
			callback(z_power_states[_current_cpu->id].state);
    2f94:	4f1b      	ldr	r7, [pc, #108]	; (3004 <pm_state_notify+0xbc>)
    2f96:	f8df 8078 	ldr.w	r8, [pc, #120]	; 3010 <pm_state_notify+0xc8>
    2f9a:	f04f 090c 	mov.w	r9, #12
			callback = notifier->state_exit;
    2f9e:	e9d4 3201 	ldrd	r3, r2, [r4, #4]
    2fa2:	2d00      	cmp	r5, #0
    2fa4:	bf08      	it	eq
    2fa6:	4613      	moveq	r3, r2
		if (callback) {
    2fa8:	b12b      	cbz	r3, 2fb6 <pm_state_notify+0x6e>
			callback(z_power_states[_current_cpu->id].state);
    2faa:	f898 2014 	ldrb.w	r2, [r8, #20]
    2fae:	fb09 f202 	mul.w	r2, r9, r2
    2fb2:	5cb8      	ldrb	r0, [r7, r2]
    2fb4:	4798      	blx	r3
Z_GENLIST_PEEK_NEXT_NO_CHECK(slist, snode)
    2fb6:	6824      	ldr	r4, [r4, #0]
	SYS_SLIST_FOR_EACH_CONTAINER(&pm_notifiers, notifier, _node) {
    2fb8:	2c00      	cmp	r4, #0
    2fba:	d1f0      	bne.n	2f9e <pm_state_notify+0x56>
	__ASSERT(z_spin_unlock_valid(l), "Not my spinlock %p", l);
    2fbc:	480b      	ldr	r0, [pc, #44]	; (2fec <pm_state_notify+0xa4>)
    2fbe:	f005 fd61 	bl	8a84 <z_spin_unlock_valid>
    2fc2:	b968      	cbnz	r0, 2fe0 <pm_state_notify+0x98>
    2fc4:	4a0a      	ldr	r2, [pc, #40]	; (2ff0 <pm_state_notify+0xa8>)
    2fc6:	4910      	ldr	r1, [pc, #64]	; (3008 <pm_state_notify+0xc0>)
    2fc8:	480b      	ldr	r0, [pc, #44]	; (2ff8 <pm_state_notify+0xb0>)
    2fca:	23ac      	movs	r3, #172	; 0xac
    2fcc:	f006 ff37 	bl	9e3e <printk>
    2fd0:	4906      	ldr	r1, [pc, #24]	; (2fec <pm_state_notify+0xa4>)
    2fd2:	480e      	ldr	r0, [pc, #56]	; (300c <pm_state_notify+0xc4>)
    2fd4:	f006 ff33 	bl	9e3e <printk>
    2fd8:	4805      	ldr	r0, [pc, #20]	; (2ff0 <pm_state_notify+0xa8>)
    2fda:	21ac      	movs	r1, #172	; 0xac
    2fdc:	f006 fe2c 	bl	9c38 <assert_post_action>
	__asm__ volatile(
    2fe0:	f386 8811 	msr	BASEPRI, r6
    2fe4:	f3bf 8f6f 	isb	sy
		}
	}
	k_spin_unlock(&pm_notifier_lock, pm_notifier_key);
}
    2fe8:	e8bd 83f8 	ldmia.w	sp!, {r3, r4, r5, r6, r7, r8, r9, pc}
    2fec:	20000d64 	.word	0x20000d64
    2ff0:	0000ba96 	.word	0x0000ba96
    2ff4:	0000bae8 	.word	0x0000bae8
    2ff8:	0000b2d3 	.word	0x0000b2d3
    2ffc:	0000bafd 	.word	0x0000bafd
    3000:	20000d68 	.word	0x20000d68
    3004:	20000d74 	.word	0x20000d74
    3008:	0000babc 	.word	0x0000babc
    300c:	0000bad3 	.word	0x0000bad3
    3010:	20000e4c 	.word	0x20000e4c

00003014 <atomic_test_and_set_bit.constprop.0>:
 *
 * @return true if the bit was set, false if it wasn't.
 */
static inline bool atomic_test_and_set_bit(atomic_t *target, int bit)
{
	atomic_val_t mask = ATOMIC_MASK(bit);
    3014:	f000 031f 	and.w	r3, r0, #31
    3018:	2201      	movs	r2, #1
    301a:	409a      	lsls	r2, r3
 *
 * @return Previous value of @a target.
 */
static inline atomic_val_t atomic_or(atomic_t *target, atomic_val_t value)
{
	return __atomic_fetch_or(target, value, __ATOMIC_SEQ_CST);
    301c:	4b0a      	ldr	r3, [pc, #40]	; (3048 <atomic_test_and_set_bit.constprop.0+0x34>)
    301e:	f3bf 8f5b 	dmb	ish
	atomic_val_t old;

	old = atomic_or(ATOMIC_ELEM(target, bit), mask);
    3022:	0940      	lsrs	r0, r0, #5
    3024:	eb03 0080 	add.w	r0, r3, r0, lsl #2
    3028:	e850 3f00 	ldrex	r3, [r0]
    302c:	ea43 0102 	orr.w	r1, r3, r2
    3030:	e840 1c00 	strex	ip, r1, [r0]
    3034:	f1bc 0f00 	cmp.w	ip, #0
    3038:	d1f6      	bne.n	3028 <atomic_test_and_set_bit.constprop.0+0x14>
    303a:	f3bf 8f5b 	dmb	ish

	return (old & mask) != 0;
    303e:	421a      	tst	r2, r3
}
    3040:	bf14      	ite	ne
    3042:	2001      	movne	r0, #1
    3044:	2000      	moveq	r0, #0
    3046:	4770      	bx	lr
    3048:	20000d80 	.word	0x20000d80

0000304c <pm_system_resume>:

void pm_system_resume(void)
{
    304c:	b530      	push	{r4, r5, lr}
	uint8_t id = _current_cpu->id;
    304e:	4b1d      	ldr	r3, [pc, #116]	; (30c4 <pm_system_resume+0x78>)
    3050:	7d1d      	ldrb	r5, [r3, #20]
 *
 * @return Previous value of @a target.
 */
static inline atomic_val_t atomic_and(atomic_t *target, atomic_val_t value)
{
	return __atomic_fetch_and(target, value, __ATOMIC_SEQ_CST);
    3052:	f3bf 8f5b 	dmb	ish
	atomic_val_t mask = ATOMIC_MASK(bit);
    3056:	f005 031f 	and.w	r3, r5, #31
    305a:	2201      	movs	r2, #1
    305c:	409a      	lsls	r2, r3
    305e:	4b1a      	ldr	r3, [pc, #104]	; (30c8 <pm_system_resume+0x7c>)
	old = atomic_and(ATOMIC_ELEM(target, bit), ~mask);
    3060:	0969      	lsrs	r1, r5, #5
{
    3062:	b085      	sub	sp, #20
    3064:	43d0      	mvns	r0, r2
    3066:	eb03 0381 	add.w	r3, r3, r1, lsl #2
    306a:	e853 1f00 	ldrex	r1, [r3]
    306e:	ea01 0400 	and.w	r4, r1, r0
    3072:	e843 4c00 	strex	ip, r4, [r3]
    3076:	f1bc 0f00 	cmp.w	ip, #0
    307a:	d1f6      	bne.n	306a <pm_system_resume+0x1e>
    307c:	f3bf 8f5b 	dmb	ish
	 * that caused the wake. This hook will be called from the ISR.
	 * For such CPU LPS states, do post operations and restores here.
	 * The kernel scheduler will get control after the ISR finishes
	 * and it may schedule another thread.
	 */
	if (atomic_test_and_clear_bit(z_post_ops_required, id)) {
    3080:	4211      	tst	r1, r2
    3082:	d017      	beq.n	30b4 <pm_system_resume+0x68>
		exit_pos_ops(z_power_states[id]);
    3084:	4c11      	ldr	r4, [pc, #68]	; (30cc <pm_system_resume+0x80>)
    3086:	220c      	movs	r2, #12
    3088:	fb02 4205 	mla	r2, r2, r5, r4
    308c:	ca07      	ldmia	r2, {r0, r1, r2}
    308e:	ab01      	add	r3, sp, #4
    3090:	e883 0007 	stmia.w	r3, {r0, r1, r2}
	if (pm_power_state_exit_post_ops != NULL) {
    3094:	4a0e      	ldr	r2, [pc, #56]	; (30d0 <pm_system_resume+0x84>)
    3096:	b17a      	cbz	r2, 30b8 <pm_system_resume+0x6c>
		pm_power_state_exit_post_ops(info);
    3098:	e893 0007 	ldmia.w	r3, {r0, r1, r2}
    309c:	f007 f8df 	bl	a25e <pm_power_state_exit_post_ops>
		pm_state_notify(false);
    30a0:	2000      	movs	r0, #0
    30a2:	f7ff ff51 	bl	2f48 <pm_state_notify>
		z_power_states[id] = (struct pm_state_info){PM_STATE_ACTIVE,
    30a6:	230c      	movs	r3, #12
    30a8:	436b      	muls	r3, r5
    30aa:	2200      	movs	r2, #0
    30ac:	18e1      	adds	r1, r4, r3
    30ae:	50e2      	str	r2, [r4, r3]
    30b0:	e9c1 2201 	strd	r2, r2, [r1, #4]
			0, 0};
	}
}
    30b4:	b005      	add	sp, #20
    30b6:	bd30      	pop	{r4, r5, pc}
    30b8:	f382 8811 	msr	BASEPRI, r2
    30bc:	f3bf 8f6f 	isb	sy
		"cpsie i;"
		: : : "memory", "cc");
#else
#error Unknown ARM architecture
#endif /* CONFIG_ARMV6_M_ARMV8_M_BASELINE */
}
    30c0:	e7ee      	b.n	30a0 <pm_system_resume+0x54>
    30c2:	bf00      	nop
    30c4:	20000e4c 	.word	0x20000e4c
    30c8:	20000d70 	.word	0x20000d70
    30cc:	20000d74 	.word	0x20000d74
    30d0:	0000a25f 	.word	0x0000a25f

000030d4 <pm_system_suspend>:

	return ret;
}

bool pm_system_suspend(int32_t ticks)
{
    30d4:	e92d 41f0 	stmdb	sp!, {r4, r5, r6, r7, r8, lr}
	bool ret = true;
	uint8_t id = _current_cpu->id;
    30d8:	4b37      	ldr	r3, [pc, #220]	; (31b8 <pm_system_suspend+0xe4>)
    30da:	f8df 80f4 	ldr.w	r8, [pc, #244]	; 31d0 <pm_system_suspend+0xfc>
    30de:	7d1c      	ldrb	r4, [r3, #20]
{
    30e0:	b088      	sub	sp, #32
    30e2:	4607      	mov	r7, r0

	SYS_PORT_TRACING_FUNC_ENTER(pm, system_suspend, ticks);

	if (!atomic_test_and_set_bit(z_power_states_forced, id)) {
    30e4:	4620      	mov	r0, r4
    30e6:	f7ff ff95 	bl	3014 <atomic_test_and_set_bit.constprop.0>
    30ea:	b960      	cbnz	r0, 3106 <pm_system_suspend+0x32>
		z_power_states[id] = pm_policy_next_state(id, ticks);
    30ec:	466e      	mov	r6, sp
    30ee:	463a      	mov	r2, r7
    30f0:	4621      	mov	r1, r4
    30f2:	4630      	mov	r0, r6
    30f4:	f006 feb0 	bl	9e58 <pm_policy_next_state>
    30f8:	e896 0007 	ldmia.w	r6, {r0, r1, r2}
    30fc:	250c      	movs	r5, #12
    30fe:	fb05 8504 	mla	r5, r5, r4, r8
    3102:	e885 0007 	stmia.w	r5, {r0, r1, r2}
	}

	if (z_power_states[id].state == PM_STATE_ACTIVE) {
    3106:	230c      	movs	r3, #12
    3108:	4363      	muls	r3, r4
    310a:	eb08 0203 	add.w	r2, r8, r3
    310e:	f818 0003 	ldrb.w	r0, [r8, r3]
    3112:	0965      	lsrs	r5, r4, #5
    3114:	f004 061f 	and.w	r6, r4, #31
    3118:	b3c8      	cbz	r0, 318e <pm_system_suspend+0xba>
				   z_power_states[id].state);
		ret = false;
		goto end;
	}

	if (ticks != K_TICKS_FOREVER) {
    311a:	1c7b      	adds	r3, r7, #1
    311c:	d00f      	beq.n	313e <pm_system_suspend+0x6a>
			return (uint32_t)((t * to_hz + off) / from_hz);
    311e:	f8d2 e008 	ldr.w	lr, [r2, #8]
    3122:	4826      	ldr	r0, [pc, #152]	; (31bc <pm_system_suspend+0xe8>)
    3124:	4a26      	ldr	r2, [pc, #152]	; (31c0 <pm_system_suspend+0xec>)
    3126:	f44f 4c00 	mov.w	ip, #32768	; 0x8000
    312a:	2100      	movs	r1, #0
    312c:	2300      	movs	r3, #0
    312e:	fbec 010e 	umlal	r0, r1, ip, lr
    3132:	f7fd fe79 	bl	e28 <__aeabi_uldivmod>
		/*
		 * We need to set the timer to interrupt a little bit early to
		 * accommodate the time required by the CPU to fully wake up.
		 */
		z_set_timeout_expiry(ticks -
    3136:	2101      	movs	r1, #1
    3138:	1a38      	subs	r0, r7, r0
    313a:	f005 fe75 	bl	8e28 <z_set_timeout_expiry>
	 * state. We don't want to be scheduled out yet, first we need
	 * to send a notification about leaving the idle state. So,
	 * we lock the scheduler here and unlock just after we have
	 * sent the notification in pm_system_resume().
	 */
	k_sched_lock();
    313e:	f004 f943 	bl	73c8 <k_sched_lock>
	pm_stats_start();
	/* Enter power state */
	pm_state_notify(true);
    3142:	2001      	movs	r0, #1
    3144:	f7ff ff00 	bl	2f48 <pm_state_notify>
	return __atomic_fetch_or(target, value, __ATOMIC_SEQ_CST);
    3148:	f3bf 8f5b 	dmb	ish
    314c:	4b1d      	ldr	r3, [pc, #116]	; (31c4 <pm_system_suspend+0xf0>)
 *
 * @return N/A
 */
static inline void atomic_set_bit(atomic_t *target, int bit)
{
	atomic_val_t mask = ATOMIC_MASK(bit);
    314e:	2201      	movs	r2, #1
    3150:	40b2      	lsls	r2, r6
    3152:	eb03 0385 	add.w	r3, r3, r5, lsl #2
    3156:	e853 1f00 	ldrex	r1, [r3]
    315a:	4311      	orrs	r1, r2
    315c:	e843 1000 	strex	r0, r1, [r3]
    3160:	2800      	cmp	r0, #0
    3162:	d1f8      	bne.n	3156 <pm_system_suspend+0x82>
    3164:	f3bf 8f5b 	dmb	ish
	atomic_set_bit(z_post_ops_required, id);
	pm_state_set(z_power_states[id]);
    3168:	230c      	movs	r3, #12
    316a:	fb03 8404 	mla	r4, r3, r4, r8
    316e:	e894 0007 	ldmia.w	r4, {r0, r1, r2}
    3172:	ab05      	add	r3, sp, #20
    3174:	e883 0007 	stmia.w	r3, {r0, r1, r2}
	if (pm_power_state_set != NULL) {
    3178:	4a13      	ldr	r2, [pc, #76]	; (31c8 <pm_system_suspend+0xf4>)
    317a:	b11a      	cbz	r2, 3184 <pm_system_suspend+0xb0>
		pm_power_state_set(info);
    317c:	e893 0007 	ldmia.w	r3, {r0, r1, r2}
    3180:	f007 f85a 	bl	a238 <pm_power_state_set>
	if (atomic_add(&z_cpus_active, 1) == 0) {
		pm_resume_devices();
	}
#endif
	pm_stats_update(z_power_states[id].state);
	pm_system_resume();
    3184:	f7ff ff62 	bl	304c <pm_system_resume>
	k_sched_unlock();
    3188:	f004 fe62 	bl	7e50 <k_sched_unlock>
	bool ret = true;
    318c:	2001      	movs	r0, #1
	return __atomic_fetch_and(target, value, __ATOMIC_SEQ_CST);
    318e:	4a0f      	ldr	r2, [pc, #60]	; (31cc <pm_system_suspend+0xf8>)
    3190:	f3bf 8f5b 	dmb	ish
	atomic_val_t mask = ATOMIC_MASK(bit);
    3194:	2301      	movs	r3, #1
    3196:	40b3      	lsls	r3, r6
	(void)atomic_and(ATOMIC_ELEM(target, bit), ~mask);
    3198:	43db      	mvns	r3, r3
    319a:	eb02 0585 	add.w	r5, r2, r5, lsl #2
    319e:	e855 2f00 	ldrex	r2, [r5]
    31a2:	401a      	ands	r2, r3
    31a4:	e845 2100 	strex	r1, r2, [r5]
    31a8:	2900      	cmp	r1, #0
    31aa:	d1f8      	bne.n	319e <pm_system_suspend+0xca>
    31ac:	f3bf 8f5b 	dmb	ish
				   z_power_states[id].state);

end:
	atomic_clear_bit(z_power_states_forced, id);
	return ret;
}
    31b0:	b008      	add	sp, #32
    31b2:	e8bd 81f0 	ldmia.w	sp!, {r4, r5, r6, r7, r8, pc}
    31b6:	bf00      	nop
    31b8:	20000e4c 	.word	0x20000e4c
    31bc:	000f423f 	.word	0x000f423f
    31c0:	000f4240 	.word	0x000f4240
    31c4:	20000d70 	.word	0x20000d70
    31c8:	0000a239 	.word	0x0000a239
    31cc:	20000d80 	.word	0x20000d80
    31d0:	20000d74 	.word	0x20000d74

000031d4 <char_out>:

static int char_out(int c, void *ctx_p)
{
	struct out_context *ctx = ctx_p;

	ctx->count++;
    31d4:	680b      	ldr	r3, [r1, #0]
    31d6:	3301      	adds	r3, #1
    31d8:	600b      	str	r3, [r1, #0]
	return _char_out(c);
    31da:	4b01      	ldr	r3, [pc, #4]	; (31e0 <char_out+0xc>)
    31dc:	681b      	ldr	r3, [r3, #0]
    31de:	4718      	bx	r3
    31e0:	200000d8 	.word	0x200000d8

000031e4 <__printk_hook_install>:
	_char_out = fn;
    31e4:	4b01      	ldr	r3, [pc, #4]	; (31ec <__printk_hook_install+0x8>)
    31e6:	6018      	str	r0, [r3, #0]
}
    31e8:	4770      	bx	lr
    31ea:	bf00      	nop
    31ec:	200000d8 	.word	0x200000d8

000031f0 <vprintk>:
#endif
	}
}
#else
void vprintk(const char *fmt, va_list ap)
{
    31f0:	b507      	push	{r0, r1, r2, lr}
    31f2:	460b      	mov	r3, r1
	struct out_context ctx = { 0 };
    31f4:	2100      	movs	r1, #0
{
    31f6:	4602      	mov	r2, r0
	struct out_context ctx = { 0 };
    31f8:	9101      	str	r1, [sp, #4]
#ifdef CONFIG_PRINTK_SYNC
	k_spinlock_key_t key = k_spin_lock(&lock);
#endif

	cbvprintf(char_out, &ctx, fmt, ap);
    31fa:	4803      	ldr	r0, [pc, #12]	; (3208 <vprintk+0x18>)
    31fc:	a901      	add	r1, sp, #4
    31fe:	f7fe fe49 	bl	1e94 <cbvprintf>

#ifdef CONFIG_PRINTK_SYNC
	k_spin_unlock(&lock, key);
#endif
}
    3202:	b003      	add	sp, #12
    3204:	f85d fb04 	ldr.w	pc, [sp], #4
    3208:	000031d5 	.word	0x000031d5

0000320c <sys_reboot>:
#include <sys/printk.h>

extern void sys_arch_reboot(int type);

FUNC_NORETURN void sys_reboot(int type)
{
    320c:	b508      	push	{r3, lr}
	__asm__ volatile(
    320e:	f04f 0220 	mov.w	r2, #32
    3212:	f3ef 8311 	mrs	r3, BASEPRI
    3216:	f382 8812 	msr	BASEPRI_MAX, r2
    321a:	f3bf 8f6f 	isb	sy
	(void)irq_lock();
	sys_clock_disable();

	sys_arch_reboot(type);
    321e:	f000 fcdf 	bl	3be0 <sys_arch_reboot>

	/* should never get here */
	printk("Failed to reboot: spinning endlessly...\n");
    3222:	4803      	ldr	r0, [pc, #12]	; (3230 <sys_reboot+0x24>)
    3224:	f006 fe0b 	bl	9e3e <printk>
 *
 * @return N/A
 */
static inline void k_cpu_idle(void)
{
	arch_cpu_idle();
    3228:	f000 f82a 	bl	3280 <arch_cpu_idle>
    322c:	e7fc      	b.n	3228 <sys_reboot+0x1c>
    322e:	bf00      	nop
    3230:	0000bb15 	.word	0x0000bb15

00003234 <tty_init>:

	return out_size;
}

int tty_init(struct tty_serial *tty, const struct device *uart_dev)
{
    3234:	4602      	mov	r2, r0
    3236:	b510      	push	{r4, lr}
	if (!uart_dev) {
    3238:	4608      	mov	r0, r1
    323a:	b199      	cbz	r1, 3264 <tty_init+0x30>
	}

	tty->uart_dev = uart_dev;

	/* We start in unbuffer mode. */
	tty->rx_ringbuf = NULL;
    323c:	2400      	movs	r4, #0
	tty->tx_ringbuf = NULL;
	tty->tx_ringbuf_sz = 0U;

	tty->rx_get = tty->rx_put = tty->tx_get = tty->tx_put = 0U;

	tty->rx_timeout = SYS_FOREVER_MS;
    323e:	f04f 33ff 	mov.w	r3, #4294967295
	tty->tx_timeout = SYS_FOREVER_MS;
    3242:	e9c2 4313 	strd	r4, r3, [r2, #76]	; 0x4c
	tty->rx_timeout = SYS_FOREVER_MS;
    3246:	6293      	str	r3, [r2, #40]	; 0x28
static inline void uart_irq_callback_user_data_set(const struct device *dev,
						   uart_irq_callback_user_data_t cb,
						   void *user_data)
{
#ifdef CONFIG_UART_INTERRUPT_DRIVEN
	const struct uart_driver_api *api =
    3248:	688b      	ldr	r3, [r1, #8]
	tty->uart_dev = uart_dev;
    324a:	6011      	str	r1, [r2, #0]
	tty->rx_ringbuf_sz = 0U;
    324c:	e9c2 4407 	strd	r4, r4, [r2, #28]
	tty->tx_ringbuf_sz = 0U;
    3250:	e9c2 4411 	strd	r4, r4, [r2, #68]	; 0x44
	tty->rx_get = tty->rx_put = tty->tx_get = tty->tx_put = 0U;
    3254:	6254      	str	r4, [r2, #36]	; 0x24
		(const struct uart_driver_api *)dev->api;

	if ((api != NULL) && (api->irq_callback_set != NULL)) {
    3256:	b143      	cbz	r3, 326a <tty_init+0x36>
    3258:	6e1b      	ldr	r3, [r3, #96]	; 0x60
    325a:	b133      	cbz	r3, 326a <tty_init+0x36>
		api->irq_callback_set(dev, cb, user_data);
    325c:	4904      	ldr	r1, [pc, #16]	; (3270 <tty_init+0x3c>)
    325e:	4798      	blx	r3

	uart_irq_callback_user_data_set(uart_dev, tty_uart_isr, tty);

	return 0;
    3260:	4620      	mov	r0, r4
}
    3262:	bd10      	pop	{r4, pc}
		return -ENODEV;
    3264:	f06f 0012 	mvn.w	r0, #18
    3268:	e7fb      	b.n	3262 <tty_init+0x2e>
	return 0;
    326a:	4618      	mov	r0, r3
    326c:	e7f9      	b.n	3262 <tty_init+0x2e>
    326e:	bf00      	nop
    3270:	00009f2d 	.word	0x00009f2d

00003274 <z_arm_cpu_idle_init>:
 * void z_arm_cpu_idle_init(void);
 */

SECTION_FUNC(TEXT, z_arm_cpu_idle_init)
#if defined(CONFIG_CPU_CORTEX_M)
	ldr	r1, =_SCB_SCR
    3274:	4901      	ldr	r1, [pc, #4]	; (327c <z_arm_cpu_idle_init+0x8>)
	movs.n	r2, #_SCR_INIT_BITS
    3276:	2210      	movs	r2, #16
	str	r2, [r1]
    3278:	600a      	str	r2, [r1, #0]
#endif
	bx	lr
    327a:	4770      	bx	lr
	ldr	r1, =_SCB_SCR
    327c:	e000ed10 	.word	0xe000ed10

00003280 <arch_cpu_idle>:
	 * before entering low power state.
	 *
	 * Set PRIMASK before configuring BASEPRI to prevent interruption
	 * before wake-up.
	 */
	cpsid	i
    3280:	b672      	cpsid	i

	/*
	 * Set wake-up interrupt priority to the lowest and synchronise to
	 * ensure that this is visible to the WFI instruction.
	 */
	eors.n	r0, r0
    3282:	4040      	eors	r0, r0
	msr	BASEPRI, r0
    3284:	f380 8811 	msr	BASEPRI, r0
	isb
    3288:	f3bf 8f6f 	isb	sy

	/*
	 * Wait for all memory transactions to complete before entering low
	 * power state.
	 */
	dsb
    328c:	f3bf 8f4f 	dsb	sy

	/* Enter low power state */
	wfi
    3290:	bf30      	wfi

	/*
	 * Clear PRIMASK and flush instruction buffer to immediately service
	 * the wake-up interrupt.
	 */
	cpsie	i
    3292:	b662      	cpsie	i
	isb
    3294:	f3bf 8f6f 	isb	sy

	bx	lr
    3298:	4770      	bx	lr
    329a:	bf00      	nop

0000329c <arch_cpu_atomic_idle>:

	/*
	 * Lock PRIMASK while sleeping: wfe will still get interrupted by
	 * incoming interrupts but the CPU will not service them right away.
	 */
	cpsid	i
    329c:	b672      	cpsid	i
	cpsie	i
_irq_disabled:

#elif defined(CONFIG_ARMV7_M_ARMV8_M_MAINLINE)
	/* r1: zero, for setting BASEPRI (needs a register) */
	eors.n	r1, r1
    329e:	4049      	eors	r1, r1

	/* unlock BASEPRI so wfe gets interrupted by incoming interrupts */
	msr	BASEPRI, r1
    32a0:	f381 8811 	msr	BASEPRI, r1

	wfe
    32a4:	bf20      	wfe

	msr	BASEPRI, r0
    32a6:	f380 8811 	msr	BASEPRI, r0
	cpsie	i
    32aa:	b662      	cpsie	i
#else
#error Unknown ARM architecture
#endif /* CONFIG_ARMV6_M_ARMV8_M_BASELINE */
	bx	lr
    32ac:	4770      	bx	lr
    32ae:	bf00      	nop

000032b0 <_isr_wrapper>:
 * @return N/A
 */
SECTION_FUNC(TEXT, _isr_wrapper)

#if defined(CONFIG_CPU_CORTEX_M)
	push {r0,lr}		/* r0, lr are now the first items on the stack */
    32b0:	b501      	push	{r0, lr}
	 * Disable interrupts to prevent nesting while exiting idle state. This
	 * is only necessary for the Cortex-M because it is the only ARM
	 * architecture variant that automatically enables interrupts when
	 * entering an ISR.
	 */
	cpsid i  /* PRIMASK = 1 */
    32b2:	b672      	cpsid	i
#endif

	/* is this a wakeup from idle ? */
	ldr r2, =_kernel
    32b4:	4a0b      	ldr	r2, [pc, #44]	; (32e4 <_isr_wrapper+0x34>)
	/* requested idle duration, in ticks */
	ldr r0, [r2, #_kernel_offset_to_idle]
    32b6:	6990      	ldr	r0, [r2, #24]
	cmp r0, #0
    32b8:	2800      	cmp	r0, #0
	str r1, [r2, #_kernel_offset_to_idle]
	bl z_pm_save_idle_exit
_idle_state_cleared:

#elif defined(CONFIG_ARMV7_M_ARMV8_M_MAINLINE)
	ittt ne
    32ba:	bf1e      	ittt	ne
	movne	r1, #0
    32bc:	2100      	movne	r1, #0
		/* clear kernel idle state */
		strne	r1, [r2, #_kernel_offset_to_idle]
    32be:	6191      	strne	r1, [r2, #24]
		blne	z_pm_save_idle_exit
    32c0:	f007 fc6e 	blne	aba0 <z_pm_save_idle_exit>
#else
#error Unknown ARM architecture
#endif /* CONFIG_ARMV6_M_ARMV8_M_BASELINE */

#if defined(CONFIG_CPU_CORTEX_M)
	cpsie i		/* re-enable interrupts (PRIMASK = 0) */
    32c4:	b662      	cpsie	i
#endif

#endif /* CONFIG_PM */

#if defined(CONFIG_CPU_CORTEX_M)
	mrs r0, IPSR	/* get exception number */
    32c6:	f3ef 8005 	mrs	r0, IPSR
#if defined(CONFIG_ARMV6_M_ARMV8_M_BASELINE)
	ldr r1, =16
	subs r0, r1	/* get IRQ number */
	lsls r0, #3	/* table is 8-byte wide */
#elif defined(CONFIG_ARMV7_M_ARMV8_M_MAINLINE)
	sub r0, r0, #16	/* get IRQ number */
    32ca:	f1a0 0010 	sub.w	r0, r0, #16
	lsl r0, r0, #3	/* table is 8-byte wide */
    32ce:	ea4f 00c0 	mov.w	r0, r0, lsl #3
	lsl r1, r1, #3
	cmp r0, r1
	bge spurious_continue
#endif /* !CONFIG_CPU_CORTEX_M */

	ldr r1, =_sw_isr_table
    32d2:	4905      	ldr	r1, [pc, #20]	; (32e8 <_isr_wrapper+0x38>)
	add r1, r1, r0	/* table entry: ISRs must have their MSB set to stay
    32d4:	4401      	add	r1, r0
			 * in thumb mode */

	ldm r1!,{r0,r3}	/* arg in r0, ISR in r3 */
    32d6:	c909      	ldmia	r1!, {r0, r3}
	blx r3		/* call ISR */
    32d8:	4798      	blx	r3

#if defined(CONFIG_ARMV6_M_ARMV8_M_BASELINE)
	pop {r0, r3}
	mov lr, r3
#elif defined(CONFIG_ARMV7_M_ARMV8_M_MAINLINE)
	pop {r0, lr}
    32da:	e8bd 4001 	ldmia.w	sp!, {r0, lr}
#endif /* CONFIG_ARMV6_M_ARMV8_M_BASELINE */

	/* Use 'bx' instead of 'b' because 'bx' can jump further, and use
	 * 'bx' instead of 'blx' because exception return is done in
	 * z_arm_int_exit() */
	ldr r1, =z_arm_int_exit
    32de:	4903      	ldr	r1, [pc, #12]	; (32ec <_isr_wrapper+0x3c>)
	bx r1
    32e0:	4708      	bx	r1
    32e2:	0000      	.short	0x0000
	ldr r2, =_kernel
    32e4:	20000e4c 	.word	0x20000e4c
	ldr r1, =_sw_isr_table
    32e8:	0000ae38 	.word	0x0000ae38
	ldr r1, =z_arm_int_exit
    32ec:	00003515 	.word	0x00003515

000032f0 <z_SysNmiOnReset>:
_ASM_FILE_PROLOGUE

GTEXT(z_SysNmiOnReset)

SECTION_FUNC(TEXT, z_SysNmiOnReset)
    wfi
    32f0:	bf30      	wfi
    b z_SysNmiOnReset
    32f2:	f7ff bffd 	b.w	32f0 <z_SysNmiOnReset>
    32f6:	bf00      	nop

000032f8 <z_arm_pendsv>:
    pop {r0, lr}
#endif /* CONFIG_ARMV6_M_ARMV8_M_BASELINE */
#endif /* CONFIG_INSTRUMENT_THREAD_SWITCHING */

    /* load _kernel into r1 and current k_thread into r2 */
    ldr r1, =_kernel
    32f8:	4912      	ldr	r1, [pc, #72]	; (3344 <z_arm_pendsv+0x4c>)
    ldr r2, [r1, #_kernel_offset_to_current]
    32fa:	688a      	ldr	r2, [r1, #8]
    /* Store LSB of LR (EXC_RETURN) to the thread's 'mode' word. */
    strb lr, [r2, #_thread_offset_to_mode_exc_return]
#endif

    /* addr of callee-saved regs in thread in r0 */
    ldr r0, =_thread_offset_to_callee_saved
    32fc:	f04f 0030 	mov.w	r0, #48	; 0x30
    add r0, r2
    3300:	4410      	add	r0, r2

    /* save callee-saved + psp in thread */
#if defined(CONFIG_CPU_CORTEX_M)
    mrs ip, PSP
    3302:	f3ef 8c09 	mrs	ip, PSP
    mov r6, r11
    mov r7, ip
    /* store r8-12 */
    stmea r0!, {r3-r7}
#elif defined(CONFIG_ARMV7_M_ARMV8_M_MAINLINE)
    stmia r0, {v1-v8, ip}
    3306:	e880 1ff0 	stmia.w	r0, {r4, r5, r6, r7, r8, r9, sl, fp, ip}

    /* Protect the kernel state while we play with the thread lists */
#if defined(CONFIG_ARMV6_M_ARMV8_M_BASELINE)
    cpsid i
#elif defined(CONFIG_ARMV7_M_ARMV8_M_MAINLINE)
    movs.n r0, #_EXC_IRQ_DEFAULT_PRIO
    330a:	2020      	movs	r0, #32
    msr BASEPRI_MAX, r0
    330c:	f380 8812 	msr	BASEPRI_MAX, r0
    isb /* Make the effect of disabling interrupts be realized immediately */
    3310:	f3bf 8f6f 	isb	sy
     * the new thread is context-switched in since all decisions
     * to pend PendSV have been taken with the current kernel
     * state and this is what we're handling currently.
     */
#if defined(CONFIG_CPU_CORTEX_M)
    ldr v4, =_SCS_ICSR
    3314:	4f0c      	ldr	r7, [pc, #48]	; (3348 <z_arm_pendsv+0x50>)
    ldr v3, =_SCS_ICSR_UNPENDSV
    3316:	f04f 6600 	mov.w	r6, #134217728	; 0x8000000
#endif

    /* _kernel is still in r1 */

    /* fetch the thread to run from the ready queue cache */
    ldr r2, [r1, #_kernel_offset_to_ready_q_cache]
    331a:	69ca      	ldr	r2, [r1, #28]

    str r2, [r1, #_kernel_offset_to_current]
    331c:	608a      	str	r2, [r1, #8]
     * has been handled.
     */

    /* _SCS_ICSR is still in v4 and _SCS_ICSR_UNPENDSV in v3 */
#if defined(CONFIG_CPU_CORTEX_M)
    str v3, [v4, #0]
    331e:	603e      	str	r6, [r7, #0]

    ldr r0, [r4]
    movs.n r3, #0
    str r3, [r4]
#else
    ldr r0, [r2, #_thread_offset_to_basepri]
    3320:	6f90      	ldr	r0, [r2, #120]	; 0x78
    movs r3, #0
    3322:	2300      	movs	r3, #0
    str r3, [r2, #_thread_offset_to_basepri]
    3324:	6793      	str	r3, [r2, #120]	; 0x78
    /* restore r4-r7, go back 9*4 bytes to the start of the stored block */
    subs r0, #36
    ldmia r0!, {r4-r7}
#elif defined(CONFIG_ARMV7_M_ARMV8_M_MAINLINE)
    /* restore BASEPRI for the incoming thread */
    msr BASEPRI, r0
    3326:	f380 8811 	msr	BASEPRI, r0
    isb
#endif

#if defined(CONFIG_MPU_STACK_GUARD) || defined(CONFIG_USERSPACE)
    /* Re-program dynamic memory map */
    push {r2,lr}
    332a:	b504      	push	{r2, lr}
    mov r0, r2 /* _current thread */
    332c:	4610      	mov	r0, r2
    bl z_arm_configure_dynamic_mpu_regions
    332e:	f000 fae7 	bl	3900 <z_arm_configure_dynamic_mpu_regions>
    pop {r2,lr}
    3332:	e8bd 4004 	ldmia.w	sp!, {r2, lr}
    isb

#endif

    /* load callee-saved + psp from thread */
    add r0, r2, #_thread_offset_to_callee_saved
    3336:	f102 0030 	add.w	r0, r2, #48	; 0x30
    ldmia r0, {v1-v8, ip}
    333a:	e890 1ff0 	ldmia.w	r0, {r4, r5, r6, r7, r8, r9, sl, fp, ip}
#else
#error Unknown ARM architecture
#endif /* CONFIG_ARMV6_M_ARMV8_M_BASELINE */

#if defined(CONFIG_CPU_CORTEX_M)
    msr PSP, ip
    333e:	f38c 8809 	msr	PSP, ip

    /*
     * Cortex-M: return from PendSV exception
     * Cortex-R: return to the caller (z_arm_{exc,int}_exit, or z_arm_svc)
     */
    bx lr
    3342:	4770      	bx	lr
    ldr r1, =_kernel
    3344:	20000e4c 	.word	0x20000e4c
    ldr v4, =_SCS_ICSR
    3348:	e000ed04 	.word	0xe000ed04

0000334c <z_arm_svc>:
  bne _stack_frame_endif
_stack_frame_msp:
  mrs r0, MSP
_stack_frame_endif:
#elif defined(CONFIG_ARMV7_M_ARMV8_M_MAINLINE)
    tst lr, #_EXC_RETURN_SPSEL_Msk /* did we come from thread mode ? */
    334c:	f01e 0f04 	tst.w	lr, #4
    ite eq  /* if zero (equal), came from handler mode */
    3350:	bf0c      	ite	eq
        mrseq r0, MSP   /* handler mode, stack frame is on MSP */
    3352:	f3ef 8008 	mrseq	r0, MSP
        mrsne r0, PSP   /* thread mode, stack frame is on PSP */
    3356:	f3ef 8009 	mrsne	r0, PSP
#endif


    /* Figure out what SVC call number was invoked */

    ldr r1, [r0, #24]   /* grab address of PC from stack frame */
    335a:	6981      	ldr	r1, [r0, #24]
     */
#if defined(CONFIG_ARMV6_M_ARMV8_M_BASELINE)
    subs r1, r1, #2
    ldrb r1, [r1]
#elif defined(CONFIG_ARMV7_M_ARMV8_M_MAINLINE)
    ldrb r1, [r1, #-2]
    335c:	f811 1c02 	ldrb.w	r1, [r1, #-2]
#endif
    bne _oops

#endif /* CONFIG_USERSPACE */

    cmp r1, #2
    3360:	2902      	cmp	r1, #2
    beq _oops
    3362:	d0ff      	beq.n	3364 <_oops>

00003364 <_oops>:
    /* exception return is done in z_arm_int_exit() */
    b z_arm_int_exit
#endif

_oops:
    push {r0, lr}
    3364:	b501      	push	{r0, lr}
    bl z_do_kernel_oops
    3366:	f006 ff23 	bl	a1b0 <z_do_kernel_oops>
    /* return from SVC exception is done here */
    pop {r0, pc}
    336a:	bd01      	pop	{r0, pc}

0000336c <arch_irq_enable>:
#define REG_FROM_IRQ(irq) (irq / NUM_IRQS_PER_REG)
#define BIT_FROM_IRQ(irq) (irq % NUM_IRQS_PER_REG)

void arch_irq_enable(unsigned int irq)
{
	NVIC_EnableIRQ((IRQn_Type)irq);
    336c:	b243      	sxtb	r3, r0
  \param [in]      IRQn  Device specific interrupt number.
  \note    IRQn must not be negative.
 */
__STATIC_INLINE void __NVIC_EnableIRQ(IRQn_Type IRQn)
{
  if ((int32_t)(IRQn) >= 0)
    336e:	2b00      	cmp	r3, #0
    3370:	db08      	blt.n	3384 <arch_irq_enable+0x18>
  {
    __COMPILER_BARRIER();
    NVIC->ISER[(((uint32_t)IRQn) >> 5UL)] = (uint32_t)(1UL << (((uint32_t)IRQn) & 0x1FUL));
    3372:	2201      	movs	r2, #1
    3374:	f000 001f 	and.w	r0, r0, #31
    3378:	fa02 f000 	lsl.w	r0, r2, r0
    337c:	095b      	lsrs	r3, r3, #5
    337e:	4a02      	ldr	r2, [pc, #8]	; (3388 <arch_irq_enable+0x1c>)
    3380:	f842 0023 	str.w	r0, [r2, r3, lsl #2]
}
    3384:	4770      	bx	lr
    3386:	bf00      	nop
    3388:	e000e100 	.word	0xe000e100

0000338c <arch_irq_is_enabled>:
	NVIC_DisableIRQ((IRQn_Type)irq);
}

int arch_irq_is_enabled(unsigned int irq)
{
	return NVIC->ISER[REG_FROM_IRQ(irq)] & BIT(BIT_FROM_IRQ(irq));
    338c:	4b05      	ldr	r3, [pc, #20]	; (33a4 <arch_irq_is_enabled+0x18>)
    338e:	0942      	lsrs	r2, r0, #5
    3390:	f000 001f 	and.w	r0, r0, #31
    3394:	f853 2022 	ldr.w	r2, [r3, r2, lsl #2]
    3398:	2301      	movs	r3, #1
    339a:	fa03 f000 	lsl.w	r0, r3, r0
}
    339e:	4010      	ands	r0, r2
    33a0:	4770      	bx	lr
    33a2:	bf00      	nop
    33a4:	e000e100 	.word	0xe000e100

000033a8 <z_arm_irq_priority_set>:
 * priority levels which are reserved.
 *
 * @return N/A
 */
void z_arm_irq_priority_set(unsigned int irq, unsigned int prio, uint32_t flags)
{
    33a8:	b570      	push	{r4, r5, r6, lr}
	 * via flags
	 */
	if (IS_ENABLED(CONFIG_ZERO_LATENCY_IRQS) && (flags & IRQ_ZERO_LATENCY)) {
		prio = _EXC_ZERO_LATENCY_IRQS_PRIO;
	} else {
		prio += _IRQ_PRIO_OFFSET;
    33aa:	1c4c      	adds	r4, r1, #1
	/* The last priority level is also used by PendSV exception, but
	 * allow other interrupts to use the same level, even if it ends up
	 * affecting performance (can still be useful on systems with a
	 * reduced set of priorities, like Cortex-M0/M0+).
	 */
	__ASSERT(prio <= (BIT(NUM_IRQ_PRIO_BITS) - 1),
    33ac:	2c07      	cmp	r4, #7
{
    33ae:	4605      	mov	r5, r0
    33b0:	460e      	mov	r6, r1
	__ASSERT(prio <= (BIT(NUM_IRQ_PRIO_BITS) - 1),
    33b2:	d90f      	bls.n	33d4 <z_arm_irq_priority_set+0x2c>
    33b4:	4a11      	ldr	r2, [pc, #68]	; (33fc <z_arm_irq_priority_set+0x54>)
    33b6:	4912      	ldr	r1, [pc, #72]	; (3400 <z_arm_irq_priority_set+0x58>)
    33b8:	4812      	ldr	r0, [pc, #72]	; (3404 <z_arm_irq_priority_set+0x5c>)
    33ba:	2359      	movs	r3, #89	; 0x59
    33bc:	f006 fd3f 	bl	9e3e <printk>
    33c0:	4811      	ldr	r0, [pc, #68]	; (3408 <z_arm_irq_priority_set+0x60>)
    33c2:	4631      	mov	r1, r6
    33c4:	2307      	movs	r3, #7
    33c6:	462a      	mov	r2, r5
    33c8:	f006 fd39 	bl	9e3e <printk>
    33cc:	480b      	ldr	r0, [pc, #44]	; (33fc <z_arm_irq_priority_set+0x54>)
    33ce:	2159      	movs	r1, #89	; 0x59
    33d0:	f006 fc32 	bl	9c38 <assert_post_action>
		 "invalid priority %d for %d irq! values must be less than %lu\n",
		 prio - _IRQ_PRIO_OFFSET, irq,
		 BIT(NUM_IRQ_PRIO_BITS) - (_IRQ_PRIO_OFFSET));
	NVIC_SetPriority((IRQn_Type)irq, prio);
    33d4:	b26b      	sxtb	r3, r5
  \param [in]  priority  Priority to set.
  \note    The priority cannot be set for every processor exception.
 */
__STATIC_INLINE void __NVIC_SetPriority(IRQn_Type IRQn, uint32_t priority)
{
  if ((int32_t)(IRQn) >= 0)
    33d6:	2b00      	cmp	r3, #0
  {
    NVIC->IP[((uint32_t)IRQn)]               = (uint8_t)((priority << (8U - __NVIC_PRIO_BITS)) & (uint32_t)0xFFUL);
    33d8:	bfac      	ite	ge
    33da:	f103 4360 	addge.w	r3, r3, #3758096384	; 0xe0000000
  }
  else
  {
    SCB->SHP[(((uint32_t)IRQn) & 0xFUL)-4UL] = (uint8_t)((priority << (8U - __NVIC_PRIO_BITS)) & (uint32_t)0xFFUL);
    33de:	4b0b      	ldrlt	r3, [pc, #44]	; (340c <z_arm_irq_priority_set+0x64>)
    33e0:	ea4f 1444 	mov.w	r4, r4, lsl #5
    33e4:	bfb8      	it	lt
    33e6:	f005 050f 	andlt.w	r5, r5, #15
    33ea:	b2e4      	uxtb	r4, r4
    NVIC->IP[((uint32_t)IRQn)]               = (uint8_t)((priority << (8U - __NVIC_PRIO_BITS)) & (uint32_t)0xFFUL);
    33ec:	bfaa      	itet	ge
    33ee:	f503 4361 	addge.w	r3, r3, #57600	; 0xe100
    SCB->SHP[(((uint32_t)IRQn) & 0xFUL)-4UL] = (uint8_t)((priority << (8U - __NVIC_PRIO_BITS)) & (uint32_t)0xFFUL);
    33f2:	555c      	strblt	r4, [r3, r5]
    NVIC->IP[((uint32_t)IRQn)]               = (uint8_t)((priority << (8U - __NVIC_PRIO_BITS)) & (uint32_t)0xFFUL);
    33f4:	f883 4300 	strbge.w	r4, [r3, #768]	; 0x300
}
    33f8:	bd70      	pop	{r4, r5, r6, pc}
    33fa:	bf00      	nop
    33fc:	0000bb3e 	.word	0x0000bb3e
    3400:	0000bb74 	.word	0x0000bb74
    3404:	0000b2d3 	.word	0x0000b2d3
    3408:	0000bb8f 	.word	0x0000bb8f
    340c:	e000ed14 	.word	0xe000ed14

00003410 <z_arm_prep_c>:

#define VECTOR_ADDRESS ((uintptr_t)_vector_start)

static inline void relocate_vector_table(void)
{
	SCB->VTOR = VECTOR_ADDRESS & SCB_VTOR_TBLOFF_Msk;
    3410:	4a0b      	ldr	r2, [pc, #44]	; (3440 <z_arm_prep_c+0x30>)
 * This routine prepares for the execution of and runs C code.
 *
 * @return N/A
 */
void z_arm_prep_c(void)
{
    3412:	b508      	push	{r3, lr}
	SCB->VTOR = VECTOR_ADDRESS & SCB_VTOR_TBLOFF_Msk;
    3414:	4b0b      	ldr	r3, [pc, #44]	; (3444 <z_arm_prep_c+0x34>)
    3416:	f022 027f 	bic.w	r2, r2, #127	; 0x7f
    341a:	609a      	str	r2, [r3, #8]
  \details Acts as a special kind of Data Memory Barrier.
           It completes when all explicit memory accesses before this instruction complete.
 */
__STATIC_FORCEINLINE void __DSB(void)
{
  __ASM volatile ("dsb 0xF":::"memory");
    341c:	f3bf 8f4f 	dsb	sy
  __ASM volatile ("isb 0xF":::"memory");
    3420:	f3bf 8f6f 	isb	sy
	SCB->CPACR &= (~(CPACR_CP10_Msk | CPACR_CP11_Msk));
    3424:	f8d3 2088 	ldr.w	r2, [r3, #136]	; 0x88
    3428:	f422 0270 	bic.w	r2, r2, #15728640	; 0xf00000
    342c:	f8c3 2088 	str.w	r2, [r3, #136]	; 0x88
	relocate_vector_table();
#if defined(CONFIG_CPU_HAS_FPU)
	z_arm_floating_point_init();
#endif
	z_bss_zero();
    3430:	f003 faa0 	bl	6974 <z_bss_zero>
	z_data_copy();
    3434:	f006 f9c6 	bl	97c4 <z_data_copy>
#if ((defined(CONFIG_ARMV7_R) || defined(CONFIG_ARMV7_A)) && defined(CONFIG_INIT_STACKS))
	z_arm_init_stacks();
#endif
	z_arm_interrupt_init();
    3438:	f000 f9f6 	bl	3828 <z_arm_interrupt_init>
	z_cstart();
    343c:	f003 faa4 	bl	6988 <z_cstart>
    3440:	00000000 	.word	0x00000000
    3444:	e000ed00 	.word	0xe000ed00

00003448 <arch_swap>:
 * as BASEPRI is not available.
 */
int arch_swap(unsigned int key)
{
	/* store off key and return value */
	_current->arch.basepri = key;
    3448:	4a09      	ldr	r2, [pc, #36]	; (3470 <arch_swap+0x28>)
	_current->arch.swap_return_value = _k_neg_eagain;
    344a:	490a      	ldr	r1, [pc, #40]	; (3474 <arch_swap+0x2c>)
	_current->arch.basepri = key;
    344c:	6893      	ldr	r3, [r2, #8]
	_current->arch.swap_return_value = _k_neg_eagain;
    344e:	6809      	ldr	r1, [r1, #0]
    3450:	67d9      	str	r1, [r3, #124]	; 0x7c

#if defined(CONFIG_CPU_CORTEX_M)
	/* set pending bit to make sure we will take a PendSV exception */
	SCB->ICSR |= SCB_ICSR_PENDSVSET_Msk;
    3452:	4909      	ldr	r1, [pc, #36]	; (3478 <arch_swap+0x30>)
	_current->arch.basepri = key;
    3454:	6798      	str	r0, [r3, #120]	; 0x78
	SCB->ICSR |= SCB_ICSR_PENDSVSET_Msk;
    3456:	684b      	ldr	r3, [r1, #4]
    3458:	f043 5380 	orr.w	r3, r3, #268435456	; 0x10000000
    345c:	604b      	str	r3, [r1, #4]
	__asm__ volatile(
    345e:	2300      	movs	r3, #0
    3460:	f383 8811 	msr	BASEPRI, r3
    3464:	f3bf 8f6f 	isb	sy
#endif

	/* Context switch is performed here. Returning implies the
	 * thread has been context-switched-in again.
	 */
	return _current->arch.swap_return_value;
    3468:	6893      	ldr	r3, [r2, #8]
}
    346a:	6fd8      	ldr	r0, [r3, #124]	; 0x7c
    346c:	4770      	bx	lr
    346e:	bf00      	nop
    3470:	20000e4c 	.word	0x20000e4c
    3474:	0000b1d0 	.word	0x0000b1d0
    3478:	e000ed00 	.word	0xe000ed00

0000347c <arch_new_thread>:

#if defined(CONFIG_CPU_CORTEX_M)
	/* force ARM mode by clearing LSB of address */
	iframe->pc &= 0xfffffffe;
#endif
	iframe->a1 = (uint32_t)entry;
    347c:	f842 3c20 	str.w	r3, [r2, #-32]
	iframe->a2 = (uint32_t)p1;
    3480:	9b00      	ldr	r3, [sp, #0]
    3482:	f842 3c1c 	str.w	r3, [r2, #-28]
	iframe->pc &= 0xfffffffe;
    3486:	490a      	ldr	r1, [pc, #40]	; (34b0 <arch_new_thread+0x34>)
	iframe->a3 = (uint32_t)p2;
    3488:	9b01      	ldr	r3, [sp, #4]
    348a:	f842 3c18 	str.w	r3, [r2, #-24]
	iframe->a4 = (uint32_t)p3;
    348e:	9b02      	ldr	r3, [sp, #8]
    3490:	f842 3c14 	str.w	r3, [r2, #-20]
	iframe->pc &= 0xfffffffe;
    3494:	f021 0101 	bic.w	r1, r1, #1

#if defined(CONFIG_CPU_CORTEX_M)
	iframe->xpsr =
    3498:	f04f 7380 	mov.w	r3, #16777216	; 0x1000000
    349c:	f842 3c04 	str.w	r3, [r2, #-4]
	iframe->pc &= 0xfffffffe;
    34a0:	f842 1c08 	str.w	r1, [r2, #-8]
	iframe->xpsr |= T_BIT;
#endif /* CONFIG_COMPILER_ISA_THUMB2 */
#endif /* CONFIG_CPU_CORTEX_M */

	thread->callee_saved.psp = (uint32_t)iframe;
	thread->arch.basepri = 0;
    34a4:	2300      	movs	r3, #0
	iframe = Z_STACK_PTR_TO_FRAME(struct __basic_sf, stack_ptr);
    34a6:	3a20      	subs	r2, #32
	thread->callee_saved.psp = (uint32_t)iframe;
    34a8:	6502      	str	r2, [r0, #80]	; 0x50
	thread->arch.basepri = 0;
    34aa:	6783      	str	r3, [r0, #120]	; 0x78
#endif
	/*
	 * initial values in all other registers/thread entries are
	 * irrelevant.
	 */
}
    34ac:	4770      	bx	lr
    34ae:	bf00      	nop
    34b0:	00009e63 	.word	0x00009e63

000034b4 <z_check_thread_stack_fail>:
 *         thread stack corruption, otherwise return 0.
 */
uint32_t z_check_thread_stack_fail(const uint32_t fault_addr, const uint32_t psp)
{
#if defined(CONFIG_MULTITHREADING)
	const struct k_thread *thread = _current;
    34b4:	4a0b      	ldr	r2, [pc, #44]	; (34e4 <z_check_thread_stack_fail+0x30>)
{
    34b6:	4603      	mov	r3, r0
	const struct k_thread *thread = _current;
    34b8:	6890      	ldr	r0, [r2, #8]

	if (thread == NULL) {
    34ba:	b190      	cbz	r0, 34e2 <z_check_thread_stack_fail+0x2e>
			return thread->stack_info.start;
		}
	}
#else /* CONFIG_USERSPACE */
#if defined(CONFIG_MULTITHREADING)
	if (IS_MPU_GUARD_VIOLATION(thread->stack_info.start - guard_len,
    34bc:	f113 0f16 	cmn.w	r3, #22
    34c0:	6e80      	ldr	r0, [r0, #104]	; 0x68
    34c2:	d005      	beq.n	34d0 <z_check_thread_stack_fail+0x1c>
    34c4:	f1a0 0220 	sub.w	r2, r0, #32
    34c8:	429a      	cmp	r2, r3
    34ca:	d806      	bhi.n	34da <z_check_thread_stack_fail+0x26>
    34cc:	4283      	cmp	r3, r0
    34ce:	d204      	bcs.n	34da <z_check_thread_stack_fail+0x26>
    34d0:	4281      	cmp	r1, r0
    34d2:	bf2c      	ite	cs
    34d4:	2100      	movcs	r1, #0
    34d6:	2101      	movcc	r1, #1
    34d8:	e000      	b.n	34dc <z_check_thread_stack_fail+0x28>
    34da:	2100      	movs	r1, #0
    34dc:	2900      	cmp	r1, #0
		return (uint32_t)Z_THREAD_STACK_BUFFER(z_main_stack);
	}
#endif
#endif /* CONFIG_USERSPACE */

	return 0;
    34de:	bf08      	it	eq
    34e0:	2000      	moveq	r0, #0
}
    34e2:	4770      	bx	lr
    34e4:	20000e4c 	.word	0x20000e4c

000034e8 <arch_switch_to_main_thread>:
#endif /* CONFIG_FPU */
}

void arch_switch_to_main_thread(struct k_thread *main_thread, char *stack_ptr,
				k_thread_entry_t _main)
{
    34e8:	b508      	push	{r3, lr}
	z_arm_prepare_switch_to_main();

	_current = main_thread;
    34ea:	4b09      	ldr	r3, [pc, #36]	; (3510 <arch_switch_to_main_thread+0x28>)
    34ec:	6098      	str	r0, [r3, #8]
{
    34ee:	460d      	mov	r5, r1
    34f0:	4614      	mov	r4, r2
#if defined(CONFIG_MPU_STACK_GUARD) || defined(CONFIG_USERSPACE)
	/*
	 * If stack protection is enabled, make sure to set it
	 * before jumping to thread entry function
	 */
	z_arm_configure_dynamic_mpu_regions(main_thread);
    34f2:	f000 fa05 	bl	3900 <z_arm_configure_dynamic_mpu_regions>

	/*
	 * Set PSP to the highest address of the main stack
	 * before enabling interrupts and jumping to main.
	 */
	__asm__ volatile (
    34f6:	4620      	mov	r0, r4
    34f8:	f385 8809 	msr	PSP, r5
    34fc:	2100      	movs	r1, #0
    34fe:	b663      	cpsie	if
    3500:	f381 8811 	msr	BASEPRI, r1
    3504:	f3bf 8f6f 	isb	sy
    3508:	2200      	movs	r2, #0
    350a:	2300      	movs	r3, #0
    350c:	f006 fca9 	bl	9e62 <z_thread_entry>
	:
	: "r" (_main), "r" (stack_ptr)
	: "r0" /* not to be overwritten by msr PSP, %1 */
	);

	CODE_UNREACHABLE;
    3510:	20000e4c 	.word	0x20000e4c

00003514 <z_arm_exc_exit>:
 */

SECTION_SUBSEC_FUNC(TEXT, _HandlerModeExit, z_arm_exc_exit)

#ifdef CONFIG_PREEMPT_ENABLED
	ldr r3, =_kernel
    3514:	4b04      	ldr	r3, [pc, #16]	; (3528 <_EXIT_EXC+0x2>)

	ldr r1, [r3, #_kernel_offset_to_current]
    3516:	6899      	ldr	r1, [r3, #8]
	ldr r0, [r3, #_kernel_offset_to_ready_q_cache]
    3518:	69d8      	ldr	r0, [r3, #28]
	cmp r0, r1
    351a:	4288      	cmp	r0, r1
	beq _EXIT_EXC
    351c:	d003      	beq.n	3526 <_EXIT_EXC>

	/* context switch required, pend the PendSV exception */
	ldr r1, =_SCS_ICSR
    351e:	4903      	ldr	r1, [pc, #12]	; (352c <_EXIT_EXC+0x6>)
	ldr r2, =_SCS_ICSR_PENDSV
    3520:	f04f 5280 	mov.w	r2, #268435456	; 0x10000000
	str r2, [r1]
    3524:	600a      	str	r2, [r1, #0]

00003526 <_EXIT_EXC>:
#else
	pop {r0, lr}
#endif /* CONFIG_ARMV6_M_ARMV8_M_BASELINE */
#endif /* CONFIG_STACK_SENTINEL */

	bx lr
    3526:	4770      	bx	lr
	ldr r3, =_kernel
    3528:	20000e4c 	.word	0x20000e4c
	ldr r1, =_SCS_ICSR
    352c:	e000ed04 	.word	0xe000ed04

00003530 <z_arm_bus_fault>:
#else
#error Unknown ARM architecture
#endif /* CONFIG_ARMV6_M_ARMV8_M_BASELINE */
SECTION_SUBSEC_FUNC(TEXT,__fault,z_arm_exc_spurious)

	mrs r0, MSP
    3530:	f3ef 8008 	mrs	r0, MSP
	mrs r1, PSP
    3534:	f3ef 8109 	mrs	r1, PSP
	push {r0, lr}
    3538:	b501      	push	{r0, lr}
#elif defined(CONFIG_ARMV7_M_ARMV8_M_MAINLINE)
	push {r4-r11}
#endif
	mov  r3, sp /* pointer to _callee_saved_t */
#endif /* CONFIG_EXTRA_EXCEPTION_INFO */
	mov r2, lr /* EXC_RETURN */
    353a:	4672      	mov	r2, lr
	bl z_arm_fault
    353c:	f000 f8ae 	bl	369c <z_arm_fault>
	 * in this routine. Therefore, we can just reset
	 * the MSP to its value prior to entering the function
	 */
	add sp, #40
#endif
	pop {r0, pc}
    3540:	bd01      	pop	{r0, pc}
    3542:	bf00      	nop

00003544 <__start>:
 */
SECTION_SUBSEC_FUNC(TEXT,_reset_section,__start)

#if defined(CONFIG_INIT_ARCH_HW_AT_BOOT)
    /* Reset CONTROL register */
    movs.n r0, #0
    3544:	2000      	movs	r0, #0
    msr CONTROL, r0
    3546:	f380 8814 	msr	CONTROL, r0
    isb
    354a:	f3bf 8f6f 	isb	sy
#endif /* CONFIG_CPU_CORTEX_M_HAS_SPLIM */

#endif /* CONFIG_INIT_ARCH_HW_AT_BOOT */

#if defined(CONFIG_PLATFORM_SPECIFIC_INIT)
    bl z_arm_platform_init
    354e:	f007 fbdd 	bl	ad0c <z_arm_platform_init>
#endif

#if defined(CONFIG_INIT_ARCH_HW_AT_BOOT)
#if defined(CONFIG_CPU_HAS_ARM_MPU)
    /* Disable MPU */
    movs.n r0, #0
    3552:	2000      	movs	r0, #0
    ldr r1, =_SCS_MPU_CTRL
    3554:	490d      	ldr	r1, [pc, #52]	; (358c <__start+0x48>)
    str r0, [r1]
    3556:	6008      	str	r0, [r1, #0]
    dsb
    3558:	f3bf 8f4f 	dsb	sy
#endif /* CONFIG_CPU_HAS_ARM_MPU */
    ldr r0, =z_main_stack + CONFIG_MAIN_STACK_SIZE
    355c:	480c      	ldr	r0, [pc, #48]	; (3590 <__start+0x4c>)
    msr msp, r0
    355e:	f380 8808 	msr	MSP, r0

    /* Initialize core architecture registers and system blocks */
    bl z_arm_init_arch_hw_at_boot
    3562:	f000 f97d 	bl	3860 <z_arm_init_arch_hw_at_boot>

    /* lock interrupts: will get unlocked when switch to main task */
#if defined(CONFIG_ARMV6_M_ARMV8_M_BASELINE)
    cpsid i
#elif defined(CONFIG_ARMV7_M_ARMV8_M_MAINLINE)
    movs.n r0, #_EXC_IRQ_DEFAULT_PRIO
    3566:	2020      	movs	r0, #32
    msr BASEPRI, r0
    3568:	f380 8811 	msr	BASEPRI, r0

    /*
     * Set PSP and use it to boot without using MSP, so that it
     * gets set to z_interrupt_stacks during initialization.
     */
    ldr r0, =z_interrupt_stacks
    356c:	4809      	ldr	r0, [pc, #36]	; (3594 <__start+0x50>)
    ldr r1, =CONFIG_ISR_STACK_SIZE + MPU_GUARD_ALIGN_AND_SIZE
    356e:	f44f 6102 	mov.w	r1, #2080	; 0x820
    adds r0, r0, r1
    3572:	1840      	adds	r0, r0, r1
    msr PSP, r0
    3574:	f380 8809 	msr	PSP, r0
    mrs r0, CONTROL
    3578:	f3ef 8014 	mrs	r0, CONTROL
    movs r1, #2
    357c:	2102      	movs	r1, #2
    orrs r0, r1 /* CONTROL_SPSEL_Msk */
    357e:	4308      	orrs	r0, r1
    msr CONTROL, r0
    3580:	f380 8814 	msr	CONTROL, r0
    /*
     * When changing the stack pointer, software must use an ISB instruction
     * immediately after the MSR instruction. This ensures that instructions
     * after the ISB instruction execute using the new stack pointer.
     */
    isb
    3584:	f3bf 8f6f 	isb	sy
    /*
     * 'bl' jumps the furthest of the branch instructions that are
     * supported on all platforms. So it is used when jumping to z_arm_prep_c
     * (even though we do not intend to return).
     */
    bl z_arm_prep_c
    3588:	f7ff ff42 	bl	3410 <z_arm_prep_c>
    ldr r1, =_SCS_MPU_CTRL
    358c:	e000ed94 	.word	0xe000ed94
    ldr r0, =z_main_stack + CONFIG_MAIN_STACK_SIZE
    3590:	20002bc0 	.word	0x20002bc0
    ldr r0, =z_interrupt_stacks
    3594:	20002d40 	.word	0x20002d40

00003598 <mem_manage_fault>:
	uint32_t reason = K_ERR_CPU_EXCEPTION;
	uint32_t mmfar = -EINVAL;

	PR_FAULT_INFO("***** MPU FAULT *****");

	if ((SCB->CFSR & SCB_CFSR_MSTKERR_Msk) != 0) {
    3598:	4b23      	ldr	r3, [pc, #140]	; (3628 <mem_manage_fault+0x90>)
{
    359a:	b570      	push	{r4, r5, r6, lr}
    359c:	4615      	mov	r5, r2
	if ((SCB->CFSR & SCB_CFSR_MSTKERR_Msk) != 0) {
    359e:	6a9a      	ldr	r2, [r3, #40]	; 0x28
		PR_FAULT_INFO("  Stacking error (context area might be"
			" not valid)");
	}
	if ((SCB->CFSR & SCB_CFSR_MUNSTKERR_Msk) != 0) {
    35a0:	6a9a      	ldr	r2, [r3, #40]	; 0x28
		PR_FAULT_INFO("  Unstacking error");
	}
	if ((SCB->CFSR & SCB_CFSR_DACCVIOL_Msk) != 0) {
    35a2:	6a9a      	ldr	r2, [r3, #40]	; 0x28
{
    35a4:	4604      	mov	r4, r0
	if ((SCB->CFSR & SCB_CFSR_DACCVIOL_Msk) != 0) {
    35a6:	0790      	lsls	r0, r2, #30
    35a8:	d51a      	bpl.n	35e0 <mem_manage_fault+0x48>
		 * The MMFAR address is valid only if this bit is 1.
		 *
		 * Software must follow this sequence because another higher
		 * priority exception might change the MMFAR value.
		 */
		uint32_t temp = SCB->MMFAR;
    35aa:	6b58      	ldr	r0, [r3, #52]	; 0x34

		if ((SCB->CFSR & SCB_CFSR_MMARVALID_Msk) != 0) {
    35ac:	6a9a      	ldr	r2, [r3, #40]	; 0x28
    35ae:	0612      	lsls	r2, r2, #24
    35b0:	d516      	bpl.n	35e0 <mem_manage_fault+0x48>
			mmfar = temp;
			PR_EXC("  MMFAR Address: 0x%x", mmfar);
			if (from_hard_fault != 0) {
    35b2:	b119      	cbz	r1, 35bc <mem_manage_fault+0x24>
				/* clear SCB_MMAR[VALID] to reset */
				SCB->CFSR &= ~SCB_CFSR_MMARVALID_Msk;
    35b4:	6a9a      	ldr	r2, [r3, #40]	; 0x28
    35b6:	f022 0280 	bic.w	r2, r2, #128	; 0x80
    35ba:	629a      	str	r2, [r3, #40]	; 0x28
			}
		}
	}
	if ((SCB->CFSR & SCB_CFSR_IACCVIOL_Msk) != 0) {
    35bc:	6a9a      	ldr	r2, [r3, #40]	; 0x28
		PR_FAULT_INFO("  Instruction Access Violation");
	}
#if defined(CONFIG_ARMV7_M_ARMV8_M_FP)
	if ((SCB->CFSR & SCB_CFSR_MLSPERR_Msk) != 0) {
    35be:	6a9a      	ldr	r2, [r3, #40]	; 0x28
	 * crossed into an area beyond the thread stack.]
	 *
	 * Data Access Violation errors may or may not be caused by
	 * thread stack overflows.
	 */
	if ((SCB->CFSR & SCB_CFSR_MSTKERR_Msk) ||
    35c0:	6a9a      	ldr	r2, [r3, #40]	; 0x28
    35c2:	06d6      	lsls	r6, r2, #27
    35c4:	d40f      	bmi.n	35e6 <mem_manage_fault+0x4e>
		(SCB->CFSR & SCB_CFSR_DACCVIOL_Msk)) {
    35c6:	6a9b      	ldr	r3, [r3, #40]	; 0x28
	if ((SCB->CFSR & SCB_CFSR_MSTKERR_Msk) ||
    35c8:	0799      	lsls	r1, r3, #30
    35ca:	d40c      	bmi.n	35e6 <mem_manage_fault+0x4e>
	uint32_t reason = K_ERR_CPU_EXCEPTION;
    35cc:	2400      	movs	r4, #0
		"without stack guard, user-mode or null-pointer detection\n");
#endif /* CONFIG_MPU_STACK_GUARD || CONFIG_USERSPACE */
	}

	/* clear MMFSR sticky bits */
	SCB->CFSR |= SCB_CFSR_MEMFAULTSR_Msk;
    35ce:	4a16      	ldr	r2, [pc, #88]	; (3628 <mem_manage_fault+0x90>)
    35d0:	6a93      	ldr	r3, [r2, #40]	; 0x28
    35d2:	f043 03ff 	orr.w	r3, r3, #255	; 0xff
    35d6:	6293      	str	r3, [r2, #40]	; 0x28

	/* Assess whether system shall ignore/recover from this MPU fault. */
	*recoverable = memory_fault_recoverable(esf, true);
    35d8:	2300      	movs	r3, #0
    35da:	702b      	strb	r3, [r5, #0]

	return reason;
}
    35dc:	4620      	mov	r0, r4
    35de:	bd70      	pop	{r4, r5, r6, pc}
	uint32_t mmfar = -EINVAL;
    35e0:	f06f 0015 	mvn.w	r0, #21
    35e4:	e7ea      	b.n	35bc <mem_manage_fault+0x24>
		if (SCB->ICSR & SCB_ICSR_RETTOBASE_Msk) {
    35e6:	4e10      	ldr	r6, [pc, #64]	; (3628 <mem_manage_fault+0x90>)
    35e8:	6873      	ldr	r3, [r6, #4]
    35ea:	051a      	lsls	r2, r3, #20
    35ec:	d5ee      	bpl.n	35cc <mem_manage_fault+0x34>
			uint32_t min_stack_ptr = z_check_thread_stack_fail(mmfar,
    35ee:	4621      	mov	r1, r4
    35f0:	f7ff ff60 	bl	34b4 <z_check_thread_stack_fail>
			if (min_stack_ptr) {
    35f4:	4604      	mov	r4, r0
    35f6:	b118      	cbz	r0, 3600 <mem_manage_fault+0x68>
  \details Assigns the given value to the Process Stack Pointer (PSP).
  \param [in]    topOfProcStack  Process Stack Pointer value to set
 */
__STATIC_FORCEINLINE void __set_PSP(uint32_t topOfProcStack)
{
  __ASM volatile ("MSR psp, %0" : : "r" (topOfProcStack) : );
    35f8:	f380 8809 	msr	PSP, r0
				reason = K_ERR_STACK_CHK_FAIL;
    35fc:	2402      	movs	r4, #2
    35fe:	e7e6      	b.n	35ce <mem_manage_fault+0x36>
				__ASSERT(!(SCB->CFSR & SCB_CFSR_MSTKERR_Msk),
    3600:	6ab3      	ldr	r3, [r6, #40]	; 0x28
    3602:	06db      	lsls	r3, r3, #27
    3604:	d5e2      	bpl.n	35cc <mem_manage_fault+0x34>
    3606:	4a09      	ldr	r2, [pc, #36]	; (362c <mem_manage_fault+0x94>)
    3608:	4909      	ldr	r1, [pc, #36]	; (3630 <mem_manage_fault+0x98>)
    360a:	480a      	ldr	r0, [pc, #40]	; (3634 <mem_manage_fault+0x9c>)
    360c:	f240 1349 	movw	r3, #329	; 0x149
    3610:	f006 fc15 	bl	9e3e <printk>
    3614:	4808      	ldr	r0, [pc, #32]	; (3638 <mem_manage_fault+0xa0>)
    3616:	f006 fc12 	bl	9e3e <printk>
    361a:	4804      	ldr	r0, [pc, #16]	; (362c <mem_manage_fault+0x94>)
    361c:	f240 1149 	movw	r1, #329	; 0x149
    3620:	f006 fb0a 	bl	9c38 <assert_post_action>
    3624:	e7d3      	b.n	35ce <mem_manage_fault+0x36>
    3626:	bf00      	nop
    3628:	e000ed00 	.word	0xe000ed00
    362c:	0000bbcf 	.word	0x0000bbcf
    3630:	0000bc09 	.word	0x0000bc09
    3634:	0000b2d3 	.word	0x0000b2d3
    3638:	0000bc53 	.word	0x0000bc53

0000363c <bus_fault.isra.0>:
{
	uint32_t reason = K_ERR_CPU_EXCEPTION;

	PR_FAULT_INFO("***** BUS FAULT *****");

	if (SCB->CFSR & SCB_CFSR_STKERR_Msk) {
    363c:	4b0d      	ldr	r3, [pc, #52]	; (3674 <bus_fault.isra.0+0x38>)
    363e:	6a9a      	ldr	r2, [r3, #40]	; 0x28
		PR_FAULT_INFO("  Stacking error");
	}
	if (SCB->CFSR & SCB_CFSR_UNSTKERR_Msk) {
    3640:	6a9a      	ldr	r2, [r3, #40]	; 0x28
		PR_FAULT_INFO("  Unstacking error");
	}
	if (SCB->CFSR & SCB_CFSR_PRECISERR_Msk) {
    3642:	6a9a      	ldr	r2, [r3, #40]	; 0x28
    3644:	0592      	lsls	r2, r2, #22
    3646:	d508      	bpl.n	365a <bus_fault.isra.0+0x1e>
		 * The BFAR address is valid only if this bit is 1.
		 *
		 * Software must follow this sequence because another
		 * higher priority exception might change the BFAR value.
		 */
		STORE_xFAR(bfar, SCB->BFAR);
    3648:	6b9a      	ldr	r2, [r3, #56]	; 0x38

		if ((SCB->CFSR & SCB_CFSR_BFARVALID_Msk) != 0) {
    364a:	6a9a      	ldr	r2, [r3, #40]	; 0x28
    364c:	0412      	lsls	r2, r2, #16
    364e:	d504      	bpl.n	365a <bus_fault.isra.0+0x1e>
			PR_EXC("  BFAR Address: 0x%x", bfar);
			if (from_hard_fault != 0) {
    3650:	b118      	cbz	r0, 365a <bus_fault.isra.0+0x1e>
				/* clear SCB_CFSR_BFAR[VALID] to reset */
				SCB->CFSR &= ~SCB_CFSR_BFARVALID_Msk;
    3652:	6a9a      	ldr	r2, [r3, #40]	; 0x28
    3654:	f422 4200 	bic.w	r2, r2, #32768	; 0x8000
    3658:	629a      	str	r2, [r3, #40]	; 0x28
			}
		}
	}
	if (SCB->CFSR & SCB_CFSR_IMPRECISERR_Msk) {
    365a:	4b06      	ldr	r3, [pc, #24]	; (3674 <bus_fault.isra.0+0x38>)
    365c:	6a9a      	ldr	r2, [r3, #40]	; 0x28
		PR_FAULT_INFO("  Imprecise data bus error");
	}
	if ((SCB->CFSR & SCB_CFSR_IBUSERR_Msk) != 0) {
    365e:	6a9a      	ldr	r2, [r3, #40]	; 0x28
    3660:	05d2      	lsls	r2, r2, #23
		PR_FAULT_INFO("  Instruction bus error");
#if !defined(CONFIG_ARMV7_M_ARMV8_M_FP)
	}
#else
	} else if (SCB->CFSR & SCB_CFSR_LSPERR_Msk) {
    3662:	bf58      	it	pl
    3664:	6a9a      	ldrpl	r2, [r3, #40]	; 0x28
		SYSMPU->CESR &= ~sperr;
	}
#endif /* defined(CONFIG_ARM_MPU) && defined(CONFIG_CPU_HAS_NXP_MPU) */

	/* clear BFSR sticky bits */
	SCB->CFSR |= SCB_CFSR_BUSFAULTSR_Msk;
    3666:	6a9a      	ldr	r2, [r3, #40]	; 0x28

	*recoverable = memory_fault_recoverable(esf, true);
    3668:	2000      	movs	r0, #0
	SCB->CFSR |= SCB_CFSR_BUSFAULTSR_Msk;
    366a:	f442 427f 	orr.w	r2, r2, #65280	; 0xff00
    366e:	629a      	str	r2, [r3, #40]	; 0x28
	*recoverable = memory_fault_recoverable(esf, true);
    3670:	7008      	strb	r0, [r1, #0]

	return reason;
}
    3672:	4770      	bx	lr
    3674:	e000ed00 	.word	0xe000ed00

00003678 <usage_fault.isra.0>:
	uint32_t reason = K_ERR_CPU_EXCEPTION;

	PR_FAULT_INFO("***** USAGE FAULT *****");

	/* bits are sticky: they stack and must be reset */
	if ((SCB->CFSR & SCB_CFSR_DIVBYZERO_Msk) != 0) {
    3678:	4b07      	ldr	r3, [pc, #28]	; (3698 <usage_fault.isra.0+0x20>)
    367a:	6a9a      	ldr	r2, [r3, #40]	; 0x28
		PR_FAULT_INFO("  Division by zero");
	}
	if ((SCB->CFSR & SCB_CFSR_UNALIGNED_Msk) != 0) {
    367c:	6a9a      	ldr	r2, [r3, #40]	; 0x28
		 */
		reason = K_ERR_STACK_CHK_FAIL;
#endif /* CONFIG_BUILTIN_STACK_GUARD */
	}
#endif /* CONFIG_ARMV8_M_MAINLINE */
	if ((SCB->CFSR & SCB_CFSR_NOCP_Msk) != 0) {
    367e:	6a9a      	ldr	r2, [r3, #40]	; 0x28
		PR_FAULT_INFO("  No coprocessor instructions");
	}
	if ((SCB->CFSR & SCB_CFSR_INVPC_Msk) != 0) {
    3680:	6a9a      	ldr	r2, [r3, #40]	; 0x28
		PR_FAULT_INFO("  Illegal load of EXC_RETURN into PC");
	}
	if ((SCB->CFSR & SCB_CFSR_INVSTATE_Msk) != 0) {
    3682:	6a9a      	ldr	r2, [r3, #40]	; 0x28
		PR_FAULT_INFO("  Illegal use of the EPSR");
	}
	if ((SCB->CFSR & SCB_CFSR_UNDEFINSTR_Msk) != 0) {
    3684:	6a9a      	ldr	r2, [r3, #40]	; 0x28
		PR_FAULT_INFO("  Attempt to execute undefined instruction");
	}

	/* clear UFSR sticky bits */
	SCB->CFSR |= SCB_CFSR_USGFAULTSR_Msk;
    3686:	6a9a      	ldr	r2, [r3, #40]	; 0x28
    3688:	ea6f 4202 	mvn.w	r2, r2, lsl #16
    368c:	ea6f 4212 	mvn.w	r2, r2, lsr #16
    3690:	629a      	str	r2, [r3, #40]	; 0x28

	return reason;
}
    3692:	2000      	movs	r0, #0
    3694:	4770      	bx	lr
    3696:	bf00      	nop
    3698:	e000ed00 	.word	0xe000ed00

0000369c <z_arm_fault>:
 * @param callee_regs Callee-saved registers (R4-R11, PSP)
 *
 */
void z_arm_fault(uint32_t msp, uint32_t psp, uint32_t exc_return,
	_callee_saved_t *callee_regs)
{
    369c:	b570      	push	{r4, r5, r6, lr}
	uint32_t reason = K_ERR_CPU_EXCEPTION;
	int fault = SCB->ICSR & SCB_ICSR_VECTACTIVE_Msk;
    369e:	4b54      	ldr	r3, [pc, #336]	; (37f0 <z_arm_fault+0x154>)
    36a0:	685c      	ldr	r4, [r3, #4]
{
    36a2:	b08a      	sub	sp, #40	; 0x28
    36a4:	460d      	mov	r5, r1
	int fault = SCB->ICSR & SCB_ICSR_VECTACTIVE_Msk;
    36a6:	f3c4 0408 	ubfx	r4, r4, #0, #9
    36aa:	2600      	movs	r6, #0
    36ac:	f386 8811 	msr	BASEPRI, r6
    36b0:	f3bf 8f6f 	isb	sy
	if ((exc_return & EXC_RETURN_INDICATOR_PREFIX) !=
    36b4:	f002 437f 	and.w	r3, r2, #4278190080	; 0xff000000
    36b8:	f1b3 4f7f 	cmp.w	r3, #4278190080	; 0xff000000
    36bc:	d108      	bne.n	36d0 <z_arm_fault+0x34>
	if ((exc_return & EXC_RETURN_MODE_THREAD) &&
    36be:	f002 030c 	and.w	r3, r2, #12
    36c2:	2b08      	cmp	r3, #8
    36c4:	d004      	beq.n	36d0 <z_arm_fault+0x34>
		if (exc_return & EXC_RETURN_MODE_THREAD) {
    36c6:	0712      	lsls	r2, r2, #28
			ptr_esf = (z_arch_esf_t *)msp;
    36c8:	bf5c      	itt	pl
    36ca:	4605      	movpl	r5, r0
			*nested_exc = true;
    36cc:	2601      	movpl	r6, #1

	/* Retrieve the Exception Stack Frame (ESF) to be supplied
	 * as argument to the remainder of the fault handling process.
	 */
	 esf = get_esf(msp, psp, exc_return, &nested_exc);
	__ASSERT(esf != NULL,
    36ce:	b97d      	cbnz	r5, 36f0 <z_arm_fault+0x54>
    36d0:	4a48      	ldr	r2, [pc, #288]	; (37f4 <z_arm_fault+0x158>)
    36d2:	4949      	ldr	r1, [pc, #292]	; (37f8 <z_arm_fault+0x15c>)
    36d4:	4849      	ldr	r0, [pc, #292]	; (37fc <z_arm_fault+0x160>)
    36d6:	f240 33f2 	movw	r3, #1010	; 0x3f2
    36da:	f006 fbb0 	bl	9e3e <printk>
    36de:	4848      	ldr	r0, [pc, #288]	; (3800 <z_arm_fault+0x164>)
    36e0:	f006 fbad 	bl	9e3e <printk>
    36e4:	4843      	ldr	r0, [pc, #268]	; (37f4 <z_arm_fault+0x158>)
    36e6:	f240 31f2 	movw	r1, #1010	; 0x3f2
    36ea:	f006 faa5 	bl	9c38 <assert_post_action>
    36ee:	2500      	movs	r5, #0
	*recoverable = false;
    36f0:	2300      	movs	r3, #0
    36f2:	f88d 3007 	strb.w	r3, [sp, #7]
	switch (fault) {
    36f6:	1ee3      	subs	r3, r4, #3
    36f8:	2b03      	cmp	r3, #3
    36fa:	d872      	bhi.n	37e2 <z_arm_fault+0x146>
    36fc:	e8df f003 	tbb	[pc, r3]
    3700:	496d6902 	.word	0x496d6902
	if ((SCB->HFSR & SCB_HFSR_VECTTBL_Msk) != 0) {
    3704:	4b3a      	ldr	r3, [pc, #232]	; (37f0 <z_arm_fault+0x154>)
    3706:	6adc      	ldr	r4, [r3, #44]	; 0x2c
    3708:	f014 0402 	ands.w	r4, r4, #2
    370c:	d169      	bne.n	37e2 <z_arm_fault+0x146>
	} else if ((SCB->HFSR & SCB_HFSR_DEBUGEVT_Msk) != 0) {
    370e:	6ada      	ldr	r2, [r3, #44]	; 0x2c
    3710:	2a00      	cmp	r2, #0
    3712:	db18      	blt.n	3746 <z_arm_fault+0xaa>
	} else if ((SCB->HFSR & SCB_HFSR_FORCED_Msk) != 0) {
    3714:	6adb      	ldr	r3, [r3, #44]	; 0x2c
    3716:	005b      	lsls	r3, r3, #1
    3718:	d54e      	bpl.n	37b8 <z_arm_fault+0x11c>
	uint16_t fault_insn = *(ret_addr - 1);
    371a:	69ab      	ldr	r3, [r5, #24]
	if (((fault_insn & 0xff00) == _SVC_OPCODE) &&
    371c:	f833 2c02 	ldrh.w	r2, [r3, #-2]
    3720:	f64d 7302 	movw	r3, #57090	; 0xdf02
    3724:	429a      	cmp	r2, r3
    3726:	d00d      	beq.n	3744 <z_arm_fault+0xa8>
		} else if (SCB_MMFSR != 0) {
    3728:	f103 4360 	add.w	r3, r3, #3758096384	; 0xe0000000
    372c:	f603 6326 	addw	r3, r3, #3622	; 0xe26
    3730:	781b      	ldrb	r3, [r3, #0]
    3732:	b30b      	cbz	r3, 3778 <z_arm_fault+0xdc>
			reason = mem_manage_fault(esf, 1, recoverable);
    3734:	f10d 0207 	add.w	r2, sp, #7
    3738:	2101      	movs	r1, #1
		reason = mem_manage_fault(esf, 0, recoverable);
    373a:	4628      	mov	r0, r5
    373c:	f7ff ff2c 	bl	3598 <mem_manage_fault>
		reason = usage_fault(esf);
    3740:	4604      	mov	r4, r0
		break;
    3742:	e000      	b.n	3746 <z_arm_fault+0xaa>
			reason = esf->basic.r0;
    3744:	682c      	ldr	r4, [r5, #0]
#ifdef CONFIG_DEBUG_COREDUMP
	z_arm_coredump_fault_sp = POINTER_TO_UINT(esf);
#endif

	reason = fault_handle(esf, fault, &recoverable);
	if (recoverable) {
    3746:	f89d 3007 	ldrb.w	r3, [sp, #7]
    374a:	b99b      	cbnz	r3, 3774 <z_arm_fault+0xd8>
		return;
	}

	/* Copy ESF */
#if !defined(CONFIG_EXTRA_EXCEPTION_INFO)
	memcpy(&esf_copy, esf, sizeof(z_arch_esf_t));
    374c:	2220      	movs	r2, #32
    374e:	4629      	mov	r1, r5
    3750:	a802      	add	r0, sp, #8
    3752:	f006 fd5d 	bl	a210 <memcpy>
	/* Overwrite stacked IPSR to mark a nested exception,
	 * or a return to Thread mode. Note that this may be
	 * required, if the retrieved ESF contents are invalid
	 * due to, for instance, a stacking error.
	 */
	if (nested_exc) {
    3756:	9b09      	ldr	r3, [sp, #36]	; 0x24
    3758:	2e00      	cmp	r6, #0
    375a:	d044      	beq.n	37e6 <z_arm_fault+0x14a>
		if ((esf_copy.basic.xpsr & IPSR_ISR_Msk) == 0) {
    375c:	f3c3 0208 	ubfx	r2, r3, #0, #9
    3760:	b922      	cbnz	r2, 376c <z_arm_fault+0xd0>
			esf_copy.basic.xpsr |= IPSR_ISR_Msk;
    3762:	ea6f 2353 	mvn.w	r3, r3, lsr #9
    3766:	ea6f 2343 	mvn.w	r3, r3, lsl #9
		}
	} else {
		esf_copy.basic.xpsr &= ~(IPSR_ISR_Msk);
    376a:	9309      	str	r3, [sp, #36]	; 0x24
	}

	z_arm_fatal_error(reason, &esf_copy);
    376c:	a902      	add	r1, sp, #8
    376e:	4620      	mov	r0, r4
    3770:	f006 fd1c 	bl	a1ac <z_arm_fatal_error>
}
    3774:	b00a      	add	sp, #40	; 0x28
    3776:	bd70      	pop	{r4, r5, r6, pc}
		} else if (SCB_BFSR != 0) {
    3778:	4b22      	ldr	r3, [pc, #136]	; (3804 <z_arm_fault+0x168>)
    377a:	781b      	ldrb	r3, [r3, #0]
    377c:	b12b      	cbz	r3, 378a <z_arm_fault+0xee>
			reason = bus_fault(esf, 1, recoverable);
    377e:	f10d 0107 	add.w	r1, sp, #7
    3782:	2001      	movs	r0, #1
		reason = bus_fault(esf, 0, recoverable);
    3784:	f7ff ff5a 	bl	363c <bus_fault.isra.0>
    3788:	e7da      	b.n	3740 <z_arm_fault+0xa4>
		} else if (SCB_UFSR != 0) {
    378a:	4b1f      	ldr	r3, [pc, #124]	; (3808 <z_arm_fault+0x16c>)
    378c:	881b      	ldrh	r3, [r3, #0]
    378e:	b29b      	uxth	r3, r3
    3790:	b113      	cbz	r3, 3798 <z_arm_fault+0xfc>
		reason = usage_fault(esf);
    3792:	f7ff ff71 	bl	3678 <usage_fault.isra.0>
    3796:	e7d3      	b.n	3740 <z_arm_fault+0xa4>
			__ASSERT(0,
    3798:	491c      	ldr	r1, [pc, #112]	; (380c <z_arm_fault+0x170>)
    379a:	4a16      	ldr	r2, [pc, #88]	; (37f4 <z_arm_fault+0x158>)
    379c:	4817      	ldr	r0, [pc, #92]	; (37fc <z_arm_fault+0x160>)
    379e:	f240 23c3 	movw	r3, #707	; 0x2c3
    37a2:	f006 fb4c 	bl	9e3e <printk>
    37a6:	481a      	ldr	r0, [pc, #104]	; (3810 <z_arm_fault+0x174>)
    37a8:	f006 fb49 	bl	9e3e <printk>
    37ac:	f240 21c3 	movw	r1, #707	; 0x2c3
		__ASSERT(0,
    37b0:	4810      	ldr	r0, [pc, #64]	; (37f4 <z_arm_fault+0x158>)
    37b2:	f006 fa41 	bl	9c38 <assert_post_action>
    37b6:	e7c6      	b.n	3746 <z_arm_fault+0xaa>
    37b8:	4914      	ldr	r1, [pc, #80]	; (380c <z_arm_fault+0x170>)
    37ba:	4a0e      	ldr	r2, [pc, #56]	; (37f4 <z_arm_fault+0x158>)
    37bc:	480f      	ldr	r0, [pc, #60]	; (37fc <z_arm_fault+0x160>)
    37be:	f240 23c7 	movw	r3, #711	; 0x2c7
    37c2:	f006 fb3c 	bl	9e3e <printk>
    37c6:	4813      	ldr	r0, [pc, #76]	; (3814 <z_arm_fault+0x178>)
    37c8:	f006 fb39 	bl	9e3e <printk>
    37cc:	f240 21c7 	movw	r1, #711	; 0x2c7
    37d0:	e7ee      	b.n	37b0 <z_arm_fault+0x114>
		reason = mem_manage_fault(esf, 0, recoverable);
    37d2:	f10d 0207 	add.w	r2, sp, #7
    37d6:	2100      	movs	r1, #0
    37d8:	e7af      	b.n	373a <z_arm_fault+0x9e>
		reason = bus_fault(esf, 0, recoverable);
    37da:	f10d 0107 	add.w	r1, sp, #7
    37de:	2000      	movs	r0, #0
    37e0:	e7d0      	b.n	3784 <z_arm_fault+0xe8>
	uint32_t reason = K_ERR_CPU_EXCEPTION;
    37e2:	2400      	movs	r4, #0
    37e4:	e7af      	b.n	3746 <z_arm_fault+0xaa>
		esf_copy.basic.xpsr &= ~(IPSR_ISR_Msk);
    37e6:	f423 73ff 	bic.w	r3, r3, #510	; 0x1fe
    37ea:	f023 0301 	bic.w	r3, r3, #1
    37ee:	e7bc      	b.n	376a <z_arm_fault+0xce>
    37f0:	e000ed00 	.word	0xe000ed00
    37f4:	0000bbcf 	.word	0x0000bbcf
    37f8:	0000bc76 	.word	0x0000bc76
    37fc:	0000b2d3 	.word	0x0000b2d3
    3800:	0000bc89 	.word	0x0000bc89
    3804:	e000ed29 	.word	0xe000ed29
    3808:	e000ed2a 	.word	0xe000ed2a
    380c:	0000b2d1 	.word	0x0000b2d1
    3810:	0000bcc7 	.word	0x0000bcc7
    3814:	0000bceb 	.word	0x0000bceb

00003818 <z_arm_fault_init>:
 */
void z_arm_fault_init(void)
{
#if defined(CONFIG_ARMV6_M_ARMV8_M_BASELINE)
#elif defined(CONFIG_ARMV7_M_ARMV8_M_MAINLINE)
	SCB->CCR |= SCB_CCR_DIV_0_TRP_Msk;
    3818:	4a02      	ldr	r2, [pc, #8]	; (3824 <z_arm_fault_init+0xc>)
    381a:	6953      	ldr	r3, [r2, #20]
    381c:	f043 0310 	orr.w	r3, r3, #16
    3820:	6153      	str	r3, [r2, #20]
	 * Stack to attempt to descend into secure region, in which case a
	 * Secure Hard Fault will occur and we can track the fault from there.
	 */
	SCB->CCR |= SCB_CCR_STKOFHFNMIGN_Msk;
#endif /* CONFIG_BUILTIN_STACK_GUARD */
}
    3822:	4770      	bx	lr
    3824:	e000ed00 	.word	0xe000ed00

00003828 <z_arm_interrupt_init>:
    3828:	4804      	ldr	r0, [pc, #16]	; (383c <z_arm_interrupt_init+0x14>)
 * @return N/A
 */

void z_arm_interrupt_init(void)
{
	int irq = 0;
    382a:	2300      	movs	r3, #0
    382c:	2120      	movs	r1, #32
    382e:	18c2      	adds	r2, r0, r3

	for (; irq < CONFIG_NUM_IRQS; irq++) {
    3830:	3301      	adds	r3, #1
    3832:	2b30      	cmp	r3, #48	; 0x30
    3834:	f882 1300 	strb.w	r1, [r2, #768]	; 0x300
    3838:	d1f9      	bne.n	382e <z_arm_interrupt_init+0x6>
		NVIC_SetPriority((IRQn_Type)irq, _IRQ_PRIO_OFFSET);
	}
}
    383a:	4770      	bx	lr
    383c:	e000e100 	.word	0xe000e100

00003840 <z_arm_clear_arm_mpu_config>:
void z_arm_clear_arm_mpu_config(void)
{
	int i;

	int num_regions =
		((MPU->TYPE & MPU_TYPE_DREGION_Msk) >> MPU_TYPE_DREGION_Pos);
    3840:	4a06      	ldr	r2, [pc, #24]	; (385c <z_arm_clear_arm_mpu_config+0x1c>)
    3842:	6811      	ldr	r1, [r2, #0]

	for (i = 0; i < num_regions; i++) {
    3844:	2300      	movs	r3, #0
	int num_regions =
    3846:	f3c1 2107 	ubfx	r1, r1, #8, #8
* \param rnr Region number to be cleared.
*/
__STATIC_INLINE void ARM_MPU_ClrRegion(uint32_t rnr)
{
  MPU->RNR = rnr;
  MPU->RASR = 0U;
    384a:	4618      	mov	r0, r3
	for (i = 0; i < num_regions; i++) {
    384c:	428b      	cmp	r3, r1
    384e:	d100      	bne.n	3852 <z_arm_clear_arm_mpu_config+0x12>
		ARM_MPU_ClrRegion(i);
	}
}
    3850:	4770      	bx	lr
  MPU->RNR = rnr;
    3852:	6093      	str	r3, [r2, #8]
  MPU->RASR = 0U;
    3854:	6110      	str	r0, [r2, #16]
	for (i = 0; i < num_regions; i++) {
    3856:	3301      	adds	r3, #1
    3858:	e7f8      	b.n	384c <z_arm_clear_arm_mpu_config+0xc>
    385a:	bf00      	nop
    385c:	e000ed90 	.word	0xe000ed90

00003860 <z_arm_init_arch_hw_at_boot>:
 * components and core registers.
 *
 * @return N/A
 */
void z_arm_init_arch_hw_at_boot(void)
{
    3860:	b508      	push	{r3, lr}
  __ASM volatile ("cpsid i" : : : "memory");
    3862:	b672      	cpsid	i
  \details Assigns the given value to the Fault Mask register.
  \param [in]    faultMask  Fault Mask value to set
 */
__STATIC_FORCEINLINE void __set_FAULTMASK(uint32_t faultMask)
{
  __ASM volatile ("MSR faultmask, %0" : : "r" (faultMask) : "memory");
    3864:	2300      	movs	r3, #0
    3866:	f383 8813 	msr	FAULTMASK, r3

	/* Initialize System Control Block components */

#if defined(CONFIG_CPU_HAS_ARM_MPU) || defined(CONFIG_CPU_HAS_NXP_MPU)
	/* Clear MPU region configuration */
	z_arm_clear_arm_mpu_config();
    386a:	f7ff ffe9 	bl	3840 <z_arm_clear_arm_mpu_config>
#endif /* CONFIG_CPU_HAS_ARM_MPU */

	/* Disable NVIC interrupts */
	for (uint8_t i = 0; i < ARRAY_SIZE(NVIC->ICER); i++) {
		NVIC->ICER[i] = 0xFFFFFFFF;
    386e:	4b14      	ldr	r3, [pc, #80]	; (38c0 <z_arm_init_arch_hw_at_boot+0x60>)
    3870:	f04f 32ff 	mov.w	r2, #4294967295
    3874:	f8c3 2080 	str.w	r2, [r3, #128]	; 0x80
    3878:	f8c3 2084 	str.w	r2, [r3, #132]	; 0x84
    387c:	f8c3 2088 	str.w	r2, [r3, #136]	; 0x88
    3880:	f8c3 208c 	str.w	r2, [r3, #140]	; 0x8c
    3884:	f8c3 2090 	str.w	r2, [r3, #144]	; 0x90
    3888:	f8c3 2094 	str.w	r2, [r3, #148]	; 0x94
    388c:	f8c3 2098 	str.w	r2, [r3, #152]	; 0x98
    3890:	f8c3 209c 	str.w	r2, [r3, #156]	; 0x9c
	}
	/* Clear pending NVIC interrupts */
	for (uint8_t i = 0; i < ARRAY_SIZE(NVIC->ICPR); i++) {
		NVIC->ICPR[i] = 0xFFFFFFFF;
    3894:	f8c3 2180 	str.w	r2, [r3, #384]	; 0x180
    3898:	f8c3 2184 	str.w	r2, [r3, #388]	; 0x184
    389c:	f8c3 2188 	str.w	r2, [r3, #392]	; 0x188
    38a0:	f8c3 218c 	str.w	r2, [r3, #396]	; 0x18c
    38a4:	f8c3 2190 	str.w	r2, [r3, #400]	; 0x190
    38a8:	f8c3 2194 	str.w	r2, [r3, #404]	; 0x194
    38ac:	f8c3 2198 	str.w	r2, [r3, #408]	; 0x198
    38b0:	f8c3 219c 	str.w	r2, [r3, #412]	; 0x19c
  __ASM volatile ("cpsie i" : : : "memory");
    38b4:	b662      	cpsie	i
  __ASM volatile ("dsb 0xF":::"memory");
    38b6:	f3bf 8f4f 	dsb	sy
  __ASM volatile ("isb 0xF":::"memory");
    38ba:	f3bf 8f6f 	isb	sy
	/* Restore Interrupts */
	__enable_irq();

	__DSB();
	__ISB();
}
    38be:	bd08      	pop	{r3, pc}
    38c0:	e000e100 	.word	0xe000e100

000038c4 <z_impl_k_thread_abort>:
#include <wait_q.h>
#include <sys/__assert.h>

void z_impl_k_thread_abort(k_tid_t thread)
{
	if (_current == thread) {
    38c4:	4b06      	ldr	r3, [pc, #24]	; (38e0 <z_impl_k_thread_abort+0x1c>)
    38c6:	689b      	ldr	r3, [r3, #8]
    38c8:	4283      	cmp	r3, r0
    38ca:	d107      	bne.n	38dc <z_impl_k_thread_abort+0x18>
  __ASM volatile ("MRS %0, ipsr" : "=r" (result) );
    38cc:	f3ef 8305 	mrs	r3, IPSR
		if (arch_is_in_isr()) {
    38d0:	b123      	cbz	r3, 38dc <z_impl_k_thread_abort+0x18>
			 * should no longer run after we return, so
			 * Trigger PendSV, in case we are in one of the
			 * situations where the isr check is true but there
			 * is not an implicit scheduler invocation.
			 */
			SCB->ICSR |= SCB_ICSR_PENDSVSET_Msk;
    38d2:	4a04      	ldr	r2, [pc, #16]	; (38e4 <z_impl_k_thread_abort+0x20>)
    38d4:	6853      	ldr	r3, [r2, #4]
    38d6:	f043 5380 	orr.w	r3, r3, #268435456	; 0x10000000
    38da:	6053      	str	r3, [r2, #4]
		}
	}

	z_thread_abort(thread);
    38dc:	f004 bd7c 	b.w	83d8 <z_thread_abort>
    38e0:	20000e4c 	.word	0x20000e4c
    38e4:	e000ed00 	.word	0xe000ed00

000038e8 <z_arm_configure_static_mpu_regions>:
	/* Configure the static MPU regions within firmware SRAM boundaries.
	 * Start address of the image is given by _image_ram_start. The end
	 * of the firmware SRAM area is marked by __kernel_ram_end, taking
	 * into account the unused SRAM area, as well.
	 */
	arm_core_mpu_configure_static_mpu_regions(static_regions,
    38e8:	4b02      	ldr	r3, [pc, #8]	; (38f4 <z_arm_configure_static_mpu_regions+0xc>)
    38ea:	4a03      	ldr	r2, [pc, #12]	; (38f8 <z_arm_configure_static_mpu_regions+0x10>)
    38ec:	4803      	ldr	r0, [pc, #12]	; (38fc <z_arm_configure_static_mpu_regions+0x14>)
    38ee:	2101      	movs	r1, #1
    38f0:	f000 b868 	b.w	39c4 <arm_core_mpu_configure_static_mpu_regions>
    38f4:	20040000 	.word	0x20040000
    38f8:	20000000 	.word	0x20000000
    38fc:	0000b024 	.word	0x0000b024

00003900 <z_arm_configure_dynamic_mpu_regions>:
#endif /* CONFIG_USERSPACE */
	{
		/* A supervisor thread only has the normal thread stack to
		 * protect with a stack guard.
		 */
		guard_start = thread->stack_info.start - guard_size;
    3900:	6e82      	ldr	r2, [r0, #104]	; 0x68
	}

	__ASSERT(region_num < _MAX_DYNAMIC_MPU_REGIONS_NUM,
		"Out-of-bounds error for dynamic region map.");

	dynamic_regions[region_num].start = guard_start;
    3902:	4b05      	ldr	r3, [pc, #20]	; (3918 <z_arm_configure_dynamic_mpu_regions+0x18>)
		guard_start = thread->stack_info.start - guard_size;
    3904:	3a20      	subs	r2, #32
	dynamic_regions[region_num].start = guard_start;
    3906:	601a      	str	r2, [r3, #0]
	dynamic_regions[region_num].size = guard_size;
	dynamic_regions[region_num].attr = K_MEM_PARTITION_P_RO_U_NA;
    3908:	4a04      	ldr	r2, [pc, #16]	; (391c <z_arm_configure_dynamic_mpu_regions+0x1c>)
    390a:	2120      	movs	r1, #32
    390c:	e9c3 1201 	strd	r1, r2, [r3, #4]

	region_num++;
#endif /* CONFIG_MPU_STACK_GUARD */

	/* Configure the dynamic MPU regions */
	arm_core_mpu_configure_dynamic_mpu_regions(dynamic_regions,
    3910:	4618      	mov	r0, r3
    3912:	2101      	movs	r1, #1
    3914:	f000 b87e 	b.w	3a14 <arm_core_mpu_configure_dynamic_mpu_regions>
    3918:	20000d84 	.word	0x20000d84
    391c:	150b0000 	.word	0x150b0000

00003920 <mpu_configure_regions>:
 * sanity check of the memory regions to be programmed.
 */
static int mpu_configure_regions(const struct z_arm_mpu_partition
	regions[], uint8_t regions_num, uint8_t start_reg_index,
	bool do_sanity_check)
{
    3920:	b5f0      	push	{r4, r5, r6, r7, lr}
#endif /* CPU_CORTEX_M0PLUS | CPU_CORTEX_M3 | CPU_CORTEX_M4 */
}

static inline void set_region_number(uint32_t index)
{
	MPU->RNR = index;
    3922:	4f1e      	ldr	r7, [pc, #120]	; (399c <mpu_configure_regions+0x7c>)
	int i;
	int reg_index = start_reg_index;

	for (i = 0; i < regions_num; i++) {
    3924:	2600      	movs	r6, #0
    3926:	428e      	cmp	r6, r1
    3928:	db01      	blt.n	392e <mpu_configure_regions+0xe>
		/* Increment number of programmed MPU indices. */
		reg_index++;
	}

	return reg_index;
}
    392a:	4610      	mov	r0, r2
    392c:	bdf0      	pop	{r4, r5, r6, r7, pc}
		if (regions[i].size == 0U) {
    392e:	6844      	ldr	r4, [r0, #4]
    3930:	b384      	cbz	r4, 3994 <mpu_configure_regions+0x74>
		if (do_sanity_check &&
    3932:	b153      	cbz	r3, 394a <mpu_configure_regions+0x2a>
	 * and greater or equal to the minimum
	 * MPU region size. Start address of the
	 * partition must align with size.
	 */
	int partition_is_valid =
		((part->size & (part->size - 1U)) == 0U)
    3934:	f104 3cff 	add.w	ip, r4, #4294967295
		&&
		(part->size >= CONFIG_ARM_MPU_REGION_MIN_ALIGN_AND_SIZE)
		&&
    3938:	ea14 0f0c 	tst.w	r4, ip
    393c:	d118      	bne.n	3970 <mpu_configure_regions+0x50>
		&&
    393e:	2c1f      	cmp	r4, #31
    3940:	d916      	bls.n	3970 <mpu_configure_regions+0x50>
		((part->start & (part->size - 1U)) == 0U);
    3942:	6805      	ldr	r5, [r0, #0]
		&&
    3944:	ea1c 0f05 	tst.w	ip, r5
    3948:	d112      	bne.n	3970 <mpu_configure_regions+0x50>
 * to that power-of-two value.
 */
static inline uint32_t size_to_mpu_rasr_size(uint32_t size)
{
	/* The minimal supported region size is 32 bytes */
	if (size <= 32U) {
    394a:	2c20      	cmp	r4, #32
	region_conf.base = new_region->start;
    394c:	6805      	ldr	r5, [r0, #0]
	get_region_attr_from_mpu_partition_info(&region_conf.attr,
    394e:	f8d0 c008 	ldr.w	ip, [r0, #8]
		reg_index = mpu_configure_region(reg_index, &regions[i]);
    3952:	b2d2      	uxtb	r2, r2
    3954:	d90f      	bls.n	3976 <mpu_configure_regions+0x56>
	/*
	 * A size value greater than 2^31 could not be handled by
	 * round_up_to_next_power_of_two() properly. We handle
	 * it separately here.
	 */
	if (size > (1UL << 31)) {
    3956:	f1b4 4f00 	cmp.w	r4, #2147483648	; 0x80000000
    395a:	d80e      	bhi.n	397a <mpu_configure_regions+0x5a>
		return REGION_4G;
	}

	return ((32 - __builtin_clz(size - 1U) - 2 + 1) << MPU_RASR_SIZE_Pos) &
    395c:	3c01      	subs	r4, #1
    395e:	fab4 f484 	clz	r4, r4
    3962:	f1c4 041f 	rsb	r4, r4, #31
    3966:	0064      	lsls	r4, r4, #1
	if (index > (get_num_regions() - 1U)) {
    3968:	2a07      	cmp	r2, #7
#if defined(CONFIG_CPU_CORTEX_R)
	(void) size;

	p_attr->rasr = attr->rasr_attr;
#else
	p_attr->rasr = attr->rasr_attr | size_to_mpu_rasr_size(size);
    396a:	ea4c 0404 	orr.w	r4, ip, r4
    396e:	d906      	bls.n	397e <mpu_configure_regions+0x5e>
			return -EINVAL;
    3970:	f06f 0215 	mvn.w	r2, #21
    3974:	e7d9      	b.n	392a <mpu_configure_regions+0xa>
		return REGION_32B;
    3976:	2408      	movs	r4, #8
    3978:	e7f6      	b.n	3968 <mpu_configure_regions+0x48>
		return REGION_4G;
    397a:	243e      	movs	r4, #62	; 0x3e
    397c:	e7f4      	b.n	3968 <mpu_configure_regions+0x48>
	MPU->RBAR = (region_conf->base & MPU_RBAR_ADDR_Msk)
    397e:	f025 051f 	bic.w	r5, r5, #31
				| MPU_RBAR_VALID_Msk | index;
    3982:	4315      	orrs	r5, r2
    3984:	f045 0510 	orr.w	r5, r5, #16
	MPU->RASR = region_conf->attr.rasr | MPU_RASR_ENABLE_Msk;
    3988:	f044 0401 	orr.w	r4, r4, #1
    398c:	60ba      	str	r2, [r7, #8]
	MPU->RBAR = (region_conf->base & MPU_RBAR_ADDR_Msk)
    398e:	60fd      	str	r5, [r7, #12]
		reg_index++;
    3990:	3201      	adds	r2, #1
	MPU->RASR = region_conf->attr.rasr | MPU_RASR_ENABLE_Msk;
    3992:	613c      	str	r4, [r7, #16]
	for (i = 0; i < regions_num; i++) {
    3994:	3601      	adds	r6, #1
    3996:	300c      	adds	r0, #12
    3998:	e7c5      	b.n	3926 <mpu_configure_regions+0x6>
    399a:	bf00      	nop
    399c:	e000ed90 	.word	0xe000ed90

000039a0 <arm_core_mpu_enable>:
void arm_core_mpu_enable(void)
{
	/* Enable MPU and use the default memory map as a
	 * background region for privileged software access.
	 */
	MPU->CTRL = MPU_CTRL_ENABLE_Msk | MPU_CTRL_PRIVDEFENA_Msk;
    39a0:	4b03      	ldr	r3, [pc, #12]	; (39b0 <arm_core_mpu_enable+0x10>)
    39a2:	2205      	movs	r2, #5
    39a4:	605a      	str	r2, [r3, #4]
  __ASM volatile ("dsb 0xF":::"memory");
    39a6:	f3bf 8f4f 	dsb	sy
  __ASM volatile ("isb 0xF":::"memory");
    39aa:	f3bf 8f6f 	isb	sy

	/* Make sure that all the registers are set before proceeding */
	__DSB();
	__ISB();
}
    39ae:	4770      	bx	lr
    39b0:	e000ed90 	.word	0xe000ed90

000039b4 <arm_core_mpu_disable>:
  __ASM volatile ("dmb 0xF":::"memory");
    39b4:	f3bf 8f5f 	dmb	sy
{
	/* Force any outstanding transfers to complete before disabling MPU */
	__DMB();

	/* Disable MPU */
	MPU->CTRL = 0;
    39b8:	4b01      	ldr	r3, [pc, #4]	; (39c0 <arm_core_mpu_disable+0xc>)
    39ba:	2200      	movs	r2, #0
    39bc:	605a      	str	r2, [r3, #4]
}
    39be:	4770      	bx	lr
    39c0:	e000ed90 	.word	0xe000ed90

000039c4 <arm_core_mpu_configure_static_mpu_regions>:
 * @brief configure fixed (static) MPU regions.
 */
void arm_core_mpu_configure_static_mpu_regions(const struct z_arm_mpu_partition
	static_regions[], const uint8_t regions_num,
	const uint32_t background_area_start, const uint32_t background_area_end)
{
    39c4:	b538      	push	{r3, r4, r5, lr}
static int mpu_configure_static_mpu_regions(const struct z_arm_mpu_partition
	static_regions[], const uint8_t regions_num,
	const uint32_t background_area_base,
	const uint32_t background_area_end)
{
	int mpu_reg_index = static_regions_num;
    39c6:	4d0e      	ldr	r5, [pc, #56]	; (3a00 <arm_core_mpu_configure_static_mpu_regions+0x3c>)
	 * programmed on top of SRAM region configuration.
	 */
	ARG_UNUSED(background_area_base);
	ARG_UNUSED(background_area_end);

	mpu_reg_index = mpu_configure_regions(static_regions,
    39c8:	2301      	movs	r3, #1
    39ca:	782a      	ldrb	r2, [r5, #0]
    39cc:	460c      	mov	r4, r1
    39ce:	f7ff ffa7 	bl	3920 <mpu_configure_regions>
		regions_num, mpu_reg_index, true);

	static_regions_num = mpu_reg_index;
    39d2:	7028      	strb	r0, [r5, #0]
	if (mpu_configure_static_mpu_regions(static_regions, regions_num,
    39d4:	3016      	adds	r0, #22
    39d6:	d111      	bne.n	39fc <arm_core_mpu_configure_static_mpu_regions+0x38>
					       background_area_start, background_area_end) == -EINVAL) {

		__ASSERT(0, "Configuring %u static MPU regions failed\n",
    39d8:	f240 1311 	movw	r3, #273	; 0x111
    39dc:	4a09      	ldr	r2, [pc, #36]	; (3a04 <arm_core_mpu_configure_static_mpu_regions+0x40>)
    39de:	490a      	ldr	r1, [pc, #40]	; (3a08 <arm_core_mpu_configure_static_mpu_regions+0x44>)
    39e0:	480a      	ldr	r0, [pc, #40]	; (3a0c <arm_core_mpu_configure_static_mpu_regions+0x48>)
    39e2:	f006 fa2c 	bl	9e3e <printk>
    39e6:	4621      	mov	r1, r4
    39e8:	4809      	ldr	r0, [pc, #36]	; (3a10 <arm_core_mpu_configure_static_mpu_regions+0x4c>)
    39ea:	f006 fa28 	bl	9e3e <printk>
			regions_num);
	}
}
    39ee:	e8bd 4038 	ldmia.w	sp!, {r3, r4, r5, lr}
		__ASSERT(0, "Configuring %u static MPU regions failed\n",
    39f2:	4804      	ldr	r0, [pc, #16]	; (3a04 <arm_core_mpu_configure_static_mpu_regions+0x40>)
    39f4:	f240 1111 	movw	r1, #273	; 0x111
    39f8:	f006 b91e 	b.w	9c38 <assert_post_action>
}
    39fc:	bd38      	pop	{r3, r4, r5, pc}
    39fe:	bf00      	nop
    3a00:	2000111d 	.word	0x2000111d
    3a04:	0000bd1b 	.word	0x0000bd1b
    3a08:	0000b2d1 	.word	0x0000b2d1
    3a0c:	0000b2d3 	.word	0x0000b2d3
    3a10:	0000bd52 	.word	0x0000bd52

00003a14 <arm_core_mpu_configure_dynamic_mpu_regions>:
/**
 * @brief configure dynamic MPU regions.
 */
void arm_core_mpu_configure_dynamic_mpu_regions(const struct z_arm_mpu_partition
	dynamic_regions[], uint8_t regions_num)
{
    3a14:	b510      	push	{r4, lr}

	/* In ARMv7-M architecture the dynamic regions are
	 * programmed on top of existing SRAM region configuration.
	 */

	mpu_reg_index = mpu_configure_regions(dynamic_regions,
    3a16:	4a12      	ldr	r2, [pc, #72]	; (3a60 <arm_core_mpu_configure_dynamic_mpu_regions+0x4c>)
    3a18:	2300      	movs	r3, #0
    3a1a:	7812      	ldrb	r2, [r2, #0]
    3a1c:	460c      	mov	r4, r1
    3a1e:	f7ff ff7f 	bl	3920 <mpu_configure_regions>
		regions_num, mpu_reg_index, false);

	if (mpu_reg_index != -EINVAL) {
    3a22:	f110 0f16 	cmn.w	r0, #22
    3a26:	d008      	beq.n	3a3a <arm_core_mpu_configure_dynamic_mpu_regions+0x26>
  MPU->RNR = rnr;
    3a28:	4b0e      	ldr	r3, [pc, #56]	; (3a64 <arm_core_mpu_configure_dynamic_mpu_regions+0x50>)
  MPU->RASR = 0U;
    3a2a:	2200      	movs	r2, #0

		/* Disable the non-programmed MPU regions. */
		for (int i = mpu_reg_index; i < get_num_regions(); i++) {
    3a2c:	2807      	cmp	r0, #7
    3a2e:	dd00      	ble.n	3a32 <arm_core_mpu_configure_dynamic_mpu_regions+0x1e>
		== -EINVAL) {

		__ASSERT(0, "Configuring %u dynamic MPU regions failed\n",
			regions_num);
	}
}
    3a30:	bd10      	pop	{r4, pc}
  MPU->RNR = rnr;
    3a32:	6098      	str	r0, [r3, #8]
  MPU->RASR = 0U;
    3a34:	611a      	str	r2, [r3, #16]
    3a36:	3001      	adds	r0, #1
    3a38:	e7f8      	b.n	3a2c <arm_core_mpu_configure_dynamic_mpu_regions+0x18>
		__ASSERT(0, "Configuring %u dynamic MPU regions failed\n",
    3a3a:	4a0b      	ldr	r2, [pc, #44]	; (3a68 <arm_core_mpu_configure_dynamic_mpu_regions+0x54>)
    3a3c:	490b      	ldr	r1, [pc, #44]	; (3a6c <arm_core_mpu_configure_dynamic_mpu_regions+0x58>)
    3a3e:	480c      	ldr	r0, [pc, #48]	; (3a70 <arm_core_mpu_configure_dynamic_mpu_regions+0x5c>)
    3a40:	f44f 7398 	mov.w	r3, #304	; 0x130
    3a44:	f006 f9fb 	bl	9e3e <printk>
    3a48:	4621      	mov	r1, r4
    3a4a:	480a      	ldr	r0, [pc, #40]	; (3a74 <arm_core_mpu_configure_dynamic_mpu_regions+0x60>)
    3a4c:	f006 f9f7 	bl	9e3e <printk>
}
    3a50:	e8bd 4010 	ldmia.w	sp!, {r4, lr}
		__ASSERT(0, "Configuring %u dynamic MPU regions failed\n",
    3a54:	4804      	ldr	r0, [pc, #16]	; (3a68 <arm_core_mpu_configure_dynamic_mpu_regions+0x54>)
    3a56:	f44f 7198 	mov.w	r1, #304	; 0x130
    3a5a:	f006 b8ed 	b.w	9c38 <assert_post_action>
    3a5e:	bf00      	nop
    3a60:	2000111d 	.word	0x2000111d
    3a64:	e000ed90 	.word	0xe000ed90
    3a68:	0000bd1b 	.word	0x0000bd1b
    3a6c:	0000b2d1 	.word	0x0000b2d1
    3a70:	0000b2d3 	.word	0x0000b2d3
    3a74:	0000bd7e 	.word	0x0000bd7e

00003a78 <z_arm_mpu_init>:
 */
int z_arm_mpu_init(void)
{
	uint32_t r_index;

	if (mpu_config.num_regions > get_num_regions()) {
    3a78:	4925      	ldr	r1, [pc, #148]	; (3b10 <CONFIG_UART_CONSOLE_INPUT_EXPIRED_TIMEOUT+0x78>)
{
    3a7a:	b510      	push	{r4, lr}
	if (mpu_config.num_regions > get_num_regions()) {
    3a7c:	680c      	ldr	r4, [r1, #0]
    3a7e:	2c08      	cmp	r4, #8
    3a80:	d913      	bls.n	3aaa <CONFIG_UART_CONSOLE_INPUT_EXPIRED_TIMEOUT+0x12>
		 * what is supported by hardware. As this operation
		 * is executed during system (pre-kernel) initialization,
		 * we want to ensure we can detect an attempt to
		 * perform invalid configuration.
		 */
		__ASSERT(0,
    3a82:	f44f 73a4 	mov.w	r3, #328	; 0x148
    3a86:	4a23      	ldr	r2, [pc, #140]	; (3b14 <CONFIG_UART_CONSOLE_INPUT_EXPIRED_TIMEOUT+0x7c>)
    3a88:	4923      	ldr	r1, [pc, #140]	; (3b18 <CONFIG_UART_CONSOLE_INPUT_EXPIRED_TIMEOUT+0x80>)
    3a8a:	4824      	ldr	r0, [pc, #144]	; (3b1c <CONFIG_UART_CONSOLE_INPUT_EXPIRED_TIMEOUT+0x84>)
    3a8c:	f006 f9d7 	bl	9e3e <printk>
    3a90:	4823      	ldr	r0, [pc, #140]	; (3b20 <CONFIG_UART_CONSOLE_INPUT_EXPIRED_TIMEOUT+0x88>)
    3a92:	2208      	movs	r2, #8
    3a94:	4621      	mov	r1, r4
    3a96:	f006 f9d2 	bl	9e3e <printk>
    3a9a:	481e      	ldr	r0, [pc, #120]	; (3b14 <CONFIG_UART_CONSOLE_INPUT_EXPIRED_TIMEOUT+0x7c>)
    3a9c:	f44f 71a4 	mov.w	r1, #328	; 0x148
    3aa0:	f006 f8ca 	bl	9c38 <assert_post_action>
			"Request to configure: %u regions (supported: %u)\n",
			mpu_config.num_regions,
			get_num_regions()
		);
		return -1;
    3aa4:	f04f 30ff 	mov.w	r0, #4294967295
		NUM_MPU_REGIONS,
		"Invalid number of MPU regions\n");
#endif /* CORTEX_M0PLUS || CPU_CORTEX_M3 || CPU_CORTEX_M4 */

	return 0;
}
    3aa8:	bd10      	pop	{r4, pc}
	arm_core_mpu_disable();
    3aaa:	f7ff ff83 	bl	39b4 <arm_core_mpu_disable>
	for (r_index = 0U; r_index < mpu_config.num_regions; r_index++) {
    3aae:	6848      	ldr	r0, [r1, #4]
    3ab0:	491c      	ldr	r1, [pc, #112]	; (3b24 <CONFIG_UART_CONSOLE_INPUT_EXPIRED_TIMEOUT+0x8c>)
    3ab2:	2200      	movs	r2, #0
    3ab4:	4294      	cmp	r4, r2
    3ab6:	f100 000c 	add.w	r0, r0, #12
    3aba:	d119      	bne.n	3af0 <CONFIG_UART_CONSOLE_INPUT_EXPIRED_TIMEOUT+0x58>
	static_regions_num = mpu_config.num_regions;
    3abc:	4b1a      	ldr	r3, [pc, #104]	; (3b28 <CONFIG_UART_CONSOLE_INPUT_EXPIRED_TIMEOUT+0x90>)
    3abe:	701c      	strb	r4, [r3, #0]
	arm_core_mpu_enable();
    3ac0:	f7ff ff6e 	bl	39a0 <arm_core_mpu_enable>
	__ASSERT(
    3ac4:	680b      	ldr	r3, [r1, #0]
    3ac6:	f3c3 2307 	ubfx	r3, r3, #8, #8
    3aca:	2b08      	cmp	r3, #8
    3acc:	d00e      	beq.n	3aec <CONFIG_UART_CONSOLE_INPUT_EXPIRED_TIMEOUT+0x54>
    3ace:	4917      	ldr	r1, [pc, #92]	; (3b2c <CONFIG_UART_CONSOLE_INPUT_EXPIRED_TIMEOUT+0x94>)
    3ad0:	4a10      	ldr	r2, [pc, #64]	; (3b14 <CONFIG_UART_CONSOLE_INPUT_EXPIRED_TIMEOUT+0x7c>)
    3ad2:	4812      	ldr	r0, [pc, #72]	; (3b1c <CONFIG_UART_CONSOLE_INPUT_EXPIRED_TIMEOUT+0x84>)
    3ad4:	f44f 73d4 	mov.w	r3, #424	; 0x1a8
    3ad8:	f006 f9b1 	bl	9e3e <printk>
    3adc:	4814      	ldr	r0, [pc, #80]	; (3b30 <CONFIG_UART_CONSOLE_INPUT_EXPIRED_TIMEOUT+0x98>)
    3ade:	f006 f9ae 	bl	9e3e <printk>
    3ae2:	480c      	ldr	r0, [pc, #48]	; (3b14 <CONFIG_UART_CONSOLE_INPUT_EXPIRED_TIMEOUT+0x7c>)
    3ae4:	f44f 71d4 	mov.w	r1, #424	; 0x1a8
    3ae8:	f006 f8a6 	bl	9c38 <assert_post_action>
	return 0;
    3aec:	2000      	movs	r0, #0
    3aee:	e7db      	b.n	3aa8 <CONFIG_UART_CONSOLE_INPUT_EXPIRED_TIMEOUT+0x10>
    3af0:	608a      	str	r2, [r1, #8]
	MPU->RBAR = (region_conf->base & MPU_RBAR_ADDR_Msk)
    3af2:	f850 3c0c 	ldr.w	r3, [r0, #-12]
    3af6:	f023 031f 	bic.w	r3, r3, #31
				| MPU_RBAR_VALID_Msk | index;
    3afa:	4313      	orrs	r3, r2
    3afc:	f043 0310 	orr.w	r3, r3, #16
	MPU->RBAR = (region_conf->base & MPU_RBAR_ADDR_Msk)
    3b00:	60cb      	str	r3, [r1, #12]
	MPU->RASR = region_conf->attr.rasr | MPU_RASR_ENABLE_Msk;
    3b02:	f850 3c04 	ldr.w	r3, [r0, #-4]
    3b06:	f043 0301 	orr.w	r3, r3, #1
    3b0a:	610b      	str	r3, [r1, #16]
	for (r_index = 0U; r_index < mpu_config.num_regions; r_index++) {
    3b0c:	3201      	adds	r2, #1
    3b0e:	e7d1      	b.n	3ab4 <CONFIG_UART_CONSOLE_INPUT_EXPIRED_TIMEOUT+0x1c>
    3b10:	0000b030 	.word	0x0000b030
    3b14:	0000bd1b 	.word	0x0000bd1b
    3b18:	0000b2d1 	.word	0x0000b2d1
    3b1c:	0000b2d3 	.word	0x0000b2d3
    3b20:	0000bdab 	.word	0x0000bdab
    3b24:	e000ed90 	.word	0xe000ed90
    3b28:	2000111d 	.word	0x2000111d
    3b2c:	0000bddf 	.word	0x0000bddf
    3b30:	0000be2f 	.word	0x0000be2f

00003b34 <printf>:

	return r;
}

int printf(const char *ZRESTRICT format, ...)
{
    3b34:	b40f      	push	{r0, r1, r2, r3}
    3b36:	b507      	push	{r0, r1, r2, lr}
    3b38:	ab04      	add	r3, sp, #16
	va_list vargs;
	int     r;

	va_start(vargs, format);
	r = cbvprintf(fputc, DESC(stdout), format, vargs);
    3b3a:	2102      	movs	r1, #2
{
    3b3c:	f853 2b04 	ldr.w	r2, [r3], #4
	r = cbvprintf(fputc, DESC(stdout), format, vargs);
    3b40:	4804      	ldr	r0, [pc, #16]	; (3b54 <printf+0x20>)
	va_start(vargs, format);
    3b42:	9301      	str	r3, [sp, #4]
	r = cbvprintf(fputc, DESC(stdout), format, vargs);
    3b44:	f7fe f9a6 	bl	1e94 <cbvprintf>
	va_end(vargs);

	return r;
}
    3b48:	b003      	add	sp, #12
    3b4a:	f85d eb04 	ldr.w	lr, [sp], #4
    3b4e:	b004      	add	sp, #16
    3b50:	4770      	bx	lr
    3b52:	bf00      	nop
    3b54:	0000a1d5 	.word	0x0000a1d5

00003b58 <__stdout_hook_install>:

static int (*_stdout_hook)(int) = _stdout_hook_default;

void __stdout_hook_install(int (*hook)(int))
{
	_stdout_hook = hook;
    3b58:	4b01      	ldr	r3, [pc, #4]	; (3b60 <__stdout_hook_install+0x8>)
    3b5a:	6018      	str	r0, [r3, #0]
}
    3b5c:	4770      	bx	lr
    3b5e:	bf00      	nop
    3b60:	200000dc 	.word	0x200000dc

00003b64 <z_impl_zephyr_fputc>:

int z_impl_zephyr_fputc(int c, FILE *stream)
{
	return (stream == stdout || stream == stderr) ? _stdout_hook(c) : EOF;
    3b64:	3902      	subs	r1, #2
    3b66:	2901      	cmp	r1, #1
    3b68:	d802      	bhi.n	3b70 <z_impl_zephyr_fputc+0xc>
    3b6a:	4b03      	ldr	r3, [pc, #12]	; (3b78 <z_impl_zephyr_fputc+0x14>)
    3b6c:	681b      	ldr	r3, [r3, #0]
    3b6e:	4718      	bx	r3
}
    3b70:	f04f 30ff 	mov.w	r0, #4294967295
    3b74:	4770      	bx	lr
    3b76:	bf00      	nop
    3b78:	200000dc 	.word	0x200000dc

00003b7c <nordicsemi_nrf52_init>:
	__asm__ volatile(
    3b7c:	f04f 0320 	mov.w	r3, #32
    3b80:	f3ef 8111 	mrs	r1, BASEPRI
    3b84:	f383 8812 	msr	BASEPRI_MAX, r3
    3b88:	f3bf 8f6f 	isb	sy

	key = irq_lock();

#ifdef CONFIG_NRF_ENABLE_ICACHE
	/* Enable the instruction cache */
	NRF_NVMC->ICACHECNF = NVMC_ICACHECNF_CACHEEN_Msk;
    3b8c:	4a0f      	ldr	r2, [pc, #60]	; (3bcc <nordicsemi_nrf52_init+0x50>)
    3b8e:	2301      	movs	r3, #1
    3b90:	f8c2 3540 	str.w	r3, [r2, #1344]	; 0x540
#endif

#if NRF_POWER_HAS_DCDCEN
NRF_STATIC_INLINE void nrf_power_dcdcen_set(NRF_POWER_Type * p_reg, bool enable)
{
    p_reg->DCDCEN = (enable ? POWER_DCDCEN_DCDCEN_Enabled : POWER_DCDCEN_DCDCEN_Disabled) <<
    3b94:	f04f 4280 	mov.w	r2, #1073741824	; 0x40000000
    3b98:	f8c2 3578 	str.w	r3, [r2, #1400]	; 0x578
{
    #ifndef NRF52_SERIES
        return false;
    #else
        #if defined (NRF52840_XXAA) || defined (DEVELOP_IN_NRF52840)
            uint32_t var1 = *(uint32_t *)0x10000130ul;
    3b9c:	4a0c      	ldr	r2, [pc, #48]	; (3bd0 <nordicsemi_nrf52_init+0x54>)
            uint32_t var2 = *(uint32_t *)0x10000134ul;
        #endif
        #if defined (NRF52840_XXAA) || defined (DEVELOP_IN_NRF52840)
            if (var1 == 0x08)
    3b9e:	6812      	ldr	r2, [r2, #0]
    3ba0:	2a08      	cmp	r2, #8
    3ba2:	d108      	bne.n	3bb6 <nordicsemi_nrf52_init+0x3a>
            uint32_t var2 = *(uint32_t *)0x10000134ul;
    3ba4:	4a0b      	ldr	r2, [pc, #44]	; (3bd4 <nordicsemi_nrf52_init+0x58>)
    3ba6:	6812      	ldr	r2, [r2, #0]
            {
                switch(var2)
    3ba8:	2a05      	cmp	r2, #5
    3baa:	d804      	bhi.n	3bb6 <nordicsemi_nrf52_init+0x3a>
#endif // defined(POWER_RAM_POWER_S0POWER_Msk)

#if NRF_POWER_HAS_DCDCEN_VDDH
NRF_STATIC_INLINE void nrf_power_dcdcen_vddh_set(NRF_POWER_Type * p_reg, bool enable)
{
    if (enable && nrf52_errata_197())
    3bac:	480a      	ldr	r0, [pc, #40]	; (3bd8 <nordicsemi_nrf52_init+0x5c>)
    3bae:	5c82      	ldrb	r2, [r0, r2]
    3bb0:	b10a      	cbz	r2, 3bb6 <nordicsemi_nrf52_init+0x3a>
    {
        // Workaround for anomaly 197 "POWER: DCDC of REG0 not functional".
        *(volatile uint32_t *)0x40000638ul = 1ul;
    3bb2:	4a0a      	ldr	r2, [pc, #40]	; (3bdc <nordicsemi_nrf52_init+0x60>)
    3bb4:	6013      	str	r3, [r2, #0]
    }
    p_reg->DCDCEN0 = (enable ? POWER_DCDCEN0_DCDCEN_Enabled : POWER_DCDCEN0_DCDCEN_Disabled) <<
    3bb6:	f04f 4380 	mov.w	r3, #1073741824	; 0x40000000
    3bba:	2201      	movs	r2, #1
    3bbc:	f8c3 2580 	str.w	r2, [r3, #1408]	; 0x580
	__asm__ volatile(
    3bc0:	f381 8811 	msr	BASEPRI, r1
    3bc4:	f3bf 8f6f 	isb	sy
	NMI_INIT();

	irq_unlock(key);

	return 0;
}
    3bc8:	2000      	movs	r0, #0
    3bca:	4770      	bx	lr
    3bcc:	4001e000 	.word	0x4001e000
    3bd0:	10000130 	.word	0x10000130
    3bd4:	10000134 	.word	0x10000134
    3bd8:	0000be5f 	.word	0x0000be5f
    3bdc:	40000638 	.word	0x40000638

00003be0 <sys_arch_reboot>:
    *p_gpregret = val;
    3be0:	f04f 4380 	mov.w	r3, #1073741824	; 0x40000000
    3be4:	b2c0      	uxtb	r0, r0
    3be6:	f8c3 051c 	str.w	r0, [r3, #1308]	; 0x51c
  __ASM volatile ("dsb 0xF":::"memory");
    3bea:	f3bf 8f4f 	dsb	sy
__NO_RETURN __STATIC_INLINE void __NVIC_SystemReset(void)
{
  __DSB();                                                          /* Ensure all outstanding memory accesses included
                                                                       buffered write are completed before reset */
  SCB->AIRCR  = (uint32_t)((0x5FAUL << SCB_AIRCR_VECTKEY_Pos)    |
                           (SCB->AIRCR & SCB_AIRCR_PRIGROUP_Msk) |
    3bee:	4905      	ldr	r1, [pc, #20]	; (3c04 <sys_arch_reboot+0x24>)
    3bf0:	4b05      	ldr	r3, [pc, #20]	; (3c08 <sys_arch_reboot+0x28>)
    3bf2:	68ca      	ldr	r2, [r1, #12]
    3bf4:	f402 62e0 	and.w	r2, r2, #1792	; 0x700
    3bf8:	4313      	orrs	r3, r2
  SCB->AIRCR  = (uint32_t)((0x5FAUL << SCB_AIRCR_VECTKEY_Pos)    |
    3bfa:	60cb      	str	r3, [r1, #12]
    3bfc:	f3bf 8f4f 	dsb	sy
                            SCB_AIRCR_SYSRESETREQ_Msk    );         /* Keep priority group unchanged */
  __DSB();                                                          /* Ensure completion of memory access */

  for(;;)                                                           /* wait until reset */
  {
    __NOP();
    3c00:	bf00      	nop
  for(;;)                                                           /* wait until reset */
    3c02:	e7fd      	b.n	3c00 <sys_arch_reboot+0x20>
    3c04:	e000ed00 	.word	0xe000ed00
    3c08:	05fa0004 	.word	0x05fa0004

00003c0c <arch_busy_wait>:

#else // NRFX_CHECK(NRFX_DELAY_DWT_BASED)

NRF_STATIC_INLINE void nrfx_coredep_delay_us(uint32_t time_us)
{
    if (time_us == 0)
    3c0c:	b120      	cbz	r0, 3c18 <arch_busy_wait+0xc>
    };

    typedef void (* delay_func_t)(uint32_t);
    const delay_func_t delay_cycles =
        // Set LSB to 1 to execute the code in the Thumb mode.
        (delay_func_t)((((uint32_t)delay_machine_code) | 1));
    3c0e:	4b03      	ldr	r3, [pc, #12]	; (3c1c <arch_busy_wait+0x10>)
    uint32_t cycles = time_us * NRFX_DELAY_CPU_FREQ_MHZ;
    delay_cycles(cycles);
    3c10:	0180      	lsls	r0, r0, #6
    3c12:	f043 0301 	orr.w	r3, r3, #1
    3c16:	4718      	bx	r3

void arch_busy_wait(uint32_t time_us)
{
	nrfx_coredep_delay_us(time_us);
}
    3c18:	4770      	bx	lr
    3c1a:	bf00      	nop
    3c1c:	0000aff0 	.word	0x0000aff0

00003c20 <adc_context_start_sampling.isra.0>:
    return (p_reg->STATUS == (SAADC_STATUS_STATUS_Busy << SAADC_STATUS_STATUS_Pos));
}

NRF_STATIC_INLINE void nrf_saadc_enable(NRF_SAADC_Type * p_reg)
{
    p_reg->ENABLE = (SAADC_ENABLE_ENABLE_Enabled << SAADC_ENABLE_ENABLE_Pos);
    3c20:	4a05      	ldr	r2, [pc, #20]	; (3c38 <adc_context_start_sampling.isra.0+0x18>)
    3c22:	2301      	movs	r3, #1
    3c24:	f8c2 3500 	str.w	r3, [r2, #1280]	; 0x500

static void adc_context_start_sampling(struct adc_context *ctx)
{
	nrf_saadc_enable(NRF_SAADC);

	if (ctx->sequence.calibrate) {
    3c28:	b108      	cbz	r0, 3c2e <adc_context_start_sampling.isra.0+0xe>
    *((volatile uint32_t *)((uint8_t *)p_reg + (uint32_t)task)) = 0x1UL;
    3c2a:	60d3      	str	r3, [r2, #12]
}
    3c2c:	4770      	bx	lr
    *((volatile uint32_t *)((uint8_t *)p_reg + (uint32_t)task)) = 0x1UL;
    3c2e:	6013      	str	r3, [r2, #0]
    3c30:	4a02      	ldr	r2, [pc, #8]	; (3c3c <adc_context_start_sampling.isra.0+0x1c>)
    3c32:	6013      	str	r3, [r2, #0]
				       NRF_SAADC_TASK_CALIBRATEOFFSET);
	} else {
		nrf_saadc_task_trigger(NRF_SAADC, NRF_SAADC_TASK_START);
		nrf_saadc_task_trigger(NRF_SAADC, NRF_SAADC_TASK_SAMPLE);
	}
}
    3c34:	4770      	bx	lr
    3c36:	bf00      	nop
    3c38:	40007000 	.word	0x40007000
    3c3c:	40007004 	.word	0x40007004

00003c40 <adc_nrfx_channel_setup>:
	uint8_t channel_id = channel_cfg->channel_id;
    3c40:	7908      	ldrb	r0, [r1, #4]
{
    3c42:	b570      	push	{r4, r5, r6, lr}
	uint8_t channel_id = channel_cfg->channel_id;
    3c44:	f000 041f 	and.w	r4, r0, #31
	if (channel_id >= SAADC_CH_NUM) {
    3c48:	2c07      	cmp	r4, #7
    3c4a:	d81f      	bhi.n	3c8c <adc_nrfx_channel_setup+0x4c>
	switch (channel_cfg->gain) {
    3c4c:	780b      	ldrb	r3, [r1, #0]
    3c4e:	2b09      	cmp	r3, #9
    3c50:	d81c      	bhi.n	3c8c <adc_nrfx_channel_setup+0x4c>
    3c52:	e8df f003 	tbb	[pc, r3]
    3c56:	0606      	.short	0x0606
    3c58:	1b060606 	.word	0x1b060606
    3c5c:	201b1e05 	.word	0x201b1e05
		config.gain = NRF_SAADC_GAIN1;
    3c60:	2305      	movs	r3, #5
	switch (channel_cfg->reference) {
    3c62:	784a      	ldrb	r2, [r1, #1]
    3c64:	2a03      	cmp	r2, #3
    3c66:	d018      	beq.n	3c9a <adc_nrfx_channel_setup+0x5a>
    3c68:	2a04      	cmp	r2, #4
    3c6a:	d10f      	bne.n	3c8c <adc_nrfx_channel_setup+0x4c>
    3c6c:	2500      	movs	r5, #0
	switch (channel_cfg->acquisition_time) {
    3c6e:	884a      	ldrh	r2, [r1, #2]
    3c70:	f244 060a 	movw	r6, #16394	; 0x400a
    3c74:	42b2      	cmp	r2, r6
    3c76:	d044      	beq.n	3d02 <adc_nrfx_channel_setup+0xc2>
    3c78:	d811      	bhi.n	3c9e <adc_nrfx_channel_setup+0x5e>
    3c7a:	f244 0603 	movw	r6, #16387	; 0x4003
    3c7e:	42b2      	cmp	r2, r6
    3c80:	d03b      	beq.n	3cfa <adc_nrfx_channel_setup+0xba>
    3c82:	f244 0605 	movw	r6, #16389	; 0x4005
    3c86:	42b2      	cmp	r2, r6
    3c88:	d039      	beq.n	3cfe <adc_nrfx_channel_setup+0xbe>
    3c8a:	b3d2      	cbz	r2, 3d02 <adc_nrfx_channel_setup+0xc2>
    3c8c:	f06f 0015 	mvn.w	r0, #21
    3c90:	e032      	b.n	3cf8 <adc_nrfx_channel_setup+0xb8>
		config.gain = NRF_SAADC_GAIN2;
    3c92:	2306      	movs	r3, #6
		break;
    3c94:	e7e5      	b.n	3c62 <adc_nrfx_channel_setup+0x22>
		config.gain = NRF_SAADC_GAIN4;
    3c96:	2307      	movs	r3, #7
		break;
    3c98:	e7e3      	b.n	3c62 <adc_nrfx_channel_setup+0x22>
		config.reference = NRF_SAADC_REFERENCE_VDD4;
    3c9a:	2501      	movs	r5, #1
    3c9c:	e7e7      	b.n	3c6e <adc_nrfx_channel_setup+0x2e>
	switch (channel_cfg->acquisition_time) {
    3c9e:	f244 0614 	movw	r6, #16404	; 0x4014
    3ca2:	42b2      	cmp	r2, r6
    3ca4:	d02f      	beq.n	3d06 <adc_nrfx_channel_setup+0xc6>
    3ca6:	f244 0628 	movw	r6, #16424	; 0x4028
    3caa:	42b2      	cmp	r2, r6
    3cac:	d02d      	beq.n	3d0a <adc_nrfx_channel_setup+0xca>
    3cae:	f244 060f 	movw	r6, #16399	; 0x400f
    3cb2:	42b2      	cmp	r2, r6
    3cb4:	d1ea      	bne.n	3c8c <adc_nrfx_channel_setup+0x4c>
		config.acq_time = NRF_SAADC_ACQTIME_15US;
    3cb6:	2203      	movs	r2, #3
            ((config->resistor_p   << SAADC_CH_CONFIG_RESP_Pos)   & SAADC_CH_CONFIG_RESP_Msk)
            | ((config->resistor_n << SAADC_CH_CONFIG_RESN_Pos)   & SAADC_CH_CONFIG_RESN_Msk)
            | ((config->gain       << SAADC_CH_CONFIG_GAIN_Pos)   & SAADC_CH_CONFIG_GAIN_Msk)
            | ((config->reference  << SAADC_CH_CONFIG_REFSEL_Pos) & SAADC_CH_CONFIG_REFSEL_Msk)
            | ((config->acq_time   << SAADC_CH_CONFIG_TACQ_Pos)   & SAADC_CH_CONFIG_TACQ_Msk)
            | ((config->mode       << SAADC_CH_CONFIG_MODE_Pos)   & SAADC_CH_CONFIG_MODE_Msk)
    3cb8:	f3c0 1040 	ubfx	r0, r0, #5, #1
            | ((config->gain       << SAADC_CH_CONFIG_GAIN_Pos)   & SAADC_CH_CONFIG_GAIN_Msk)
    3cbc:	021b      	lsls	r3, r3, #8
            | ((config->mode       << SAADC_CH_CONFIG_MODE_Pos)   & SAADC_CH_CONFIG_MODE_Msk)
    3cbe:	ea43 5300 	orr.w	r3, r3, r0, lsl #20
    3cc2:	ea43 3305 	orr.w	r3, r3, r5, lsl #12
    3cc6:	ea43 4302 	orr.w	r3, r3, r2, lsl #16
    p_reg->CH[channel].CONFIG =
    3cca:	0122      	lsls	r2, r4, #4
    3ccc:	f102 4280 	add.w	r2, r2, #1073741824	; 0x40000000
    3cd0:	f502 42e0 	add.w	r2, r2, #28672	; 0x7000
    p_reg->CH[channel].PSELP = pselp;
    3cd4:	2000      	movs	r0, #0
    p_reg->CH[channel].CONFIG =
    3cd6:	f8c2 3518 	str.w	r3, [r2, #1304]	; 0x518
    p_reg->CH[channel].PSELN = pseln;
    3cda:	0123      	lsls	r3, r4, #4
    3cdc:	f103 4380 	add.w	r3, r3, #1073741824	; 0x40000000
    3ce0:	f503 43e0 	add.w	r3, r3, #28672	; 0x7000
    3ce4:	798a      	ldrb	r2, [r1, #6]
    3ce6:	f8c3 2514 	str.w	r2, [r3, #1300]	; 0x514
    p_reg->CH[channel].PSELP = pselp;
    3cea:	f8c3 0510 	str.w	r0, [r3, #1296]	; 0x510
	m_data.positive_inputs[channel_id] = channel_cfg->input_positive;
    3cee:	4b08      	ldr	r3, [pc, #32]	; (3d10 <adc_nrfx_channel_setup+0xd0>)
    3cf0:	441c      	add	r4, r3
    3cf2:	794b      	ldrb	r3, [r1, #5]
    3cf4:	f884 30a8 	strb.w	r3, [r4, #168]	; 0xa8
}
    3cf8:	bd70      	pop	{r4, r5, r6, pc}
	switch (channel_cfg->acquisition_time) {
    3cfa:	2200      	movs	r2, #0
    3cfc:	e7dc      	b.n	3cb8 <adc_nrfx_channel_setup+0x78>
		config.acq_time = NRF_SAADC_ACQTIME_5US;
    3cfe:	2201      	movs	r2, #1
    3d00:	e7da      	b.n	3cb8 <adc_nrfx_channel_setup+0x78>
		config.acq_time = NRF_SAADC_ACQTIME_10US;
    3d02:	2202      	movs	r2, #2
    3d04:	e7d8      	b.n	3cb8 <adc_nrfx_channel_setup+0x78>
		config.acq_time = NRF_SAADC_ACQTIME_20US;
    3d06:	2204      	movs	r2, #4
    3d08:	e7d6      	b.n	3cb8 <adc_nrfx_channel_setup+0x78>
		config.acq_time = NRF_SAADC_ACQTIME_40US;
    3d0a:	2205      	movs	r2, #5
    3d0c:	e7d4      	b.n	3cb8 <adc_nrfx_channel_setup+0x78>
    3d0e:	bf00      	nop
    3d10:	20000000 	.word	0x20000000

00003d14 <start_read.isra.0>:
	}

	return 0;
}

static int start_read(const struct device *dev,
    3d14:	b5f7      	push	{r0, r1, r2, r4, r5, r6, r7, lr}
    3d16:	4605      	mov	r5, r0
		      const struct adc_sequence *sequence)
{
	int error;
	uint32_t selected_channels = sequence->channels;
    3d18:	6840      	ldr	r0, [r0, #4]
	uint8_t channel_id;

	/* Signal an error if channel selection is invalid (no channels or
	 * a non-existing one is selected).
	 */
	if (!selected_channels ||
    3d1a:	b910      	cbnz	r0, 3d22 <start_read.isra.0+0xe>
				channel_id,
				NRF_SAADC_INPUT_DISABLED);
		}
	} while (++channel_id < SAADC_CH_NUM);

	error = set_resolution(sequence);
    3d1c:	f06f 0015 	mvn.w	r0, #21
    3d20:	e09c      	b.n	3e5c <start_read.isra.0+0x148>
	if (!selected_channels ||
    3d22:	f030 02ff 	bics.w	r2, r0, #255	; 0xff
    3d26:	d1f9      	bne.n	3d1c <start_read.isra.0+0x8>
    p_reg->CH[channel].PSELP = pselp;
    3d28:	4c57      	ldr	r4, [pc, #348]	; (3e88 <start_read.isra.0+0x174>)
			if (m_data.positive_inputs[channel_id] == 0U) {
    3d2a:	4f58      	ldr	r7, [pc, #352]	; (3e8c <start_read.isra.0+0x178>)
	active_channels = 0U;
    3d2c:	4611      	mov	r1, r2
		if (selected_channels & BIT(channel_id)) {
    3d2e:	fa20 f302 	lsr.w	r3, r0, r2
    3d32:	f013 0301 	ands.w	r3, r3, #1
    3d36:	d033      	beq.n	3da0 <start_read.isra.0+0x8c>
			if (m_data.positive_inputs[channel_id] == 0U) {
    3d38:	18bb      	adds	r3, r7, r2
    3d3a:	f893 c0a8 	ldrb.w	ip, [r3, #168]	; 0xa8
    3d3e:	f1bc 0f00 	cmp.w	ip, #0
    3d42:	d0eb      	beq.n	3d1c <start_read.isra.0+0x8>

NRF_STATIC_INLINE void nrf_saadc_burst_set(NRF_SAADC_Type *  p_reg,
                                           uint8_t           channel,
                                           nrf_saadc_burst_t burst)
{
    p_reg->CH[channel].CONFIG = (p_reg->CH[channel].CONFIG & ~SAADC_CH_CONFIG_BURST_Msk) |
    3d44:	eb04 1e02 	add.w	lr, r4, r2, lsl #4
			nrf_saadc_burst_set(NRF_SAADC, channel_id,
    3d48:	7c6e      	ldrb	r6, [r5, #17]
    3d4a:	f8de 3518 	ldr.w	r3, [lr, #1304]	; 0x518
    3d4e:	3e00      	subs	r6, #0
    3d50:	bf18      	it	ne
    3d52:	2601      	movne	r6, #1
    3d54:	f023 7380 	bic.w	r3, r3, #16777216	; 0x1000000
    3d58:	ea43 6306 	orr.w	r3, r3, r6, lsl #24
    3d5c:	f8ce 3518 	str.w	r3, [lr, #1304]	; 0x518
    p_reg->CH[channel].PSELP = pselp;
    3d60:	f102 0351 	add.w	r3, r2, #81	; 0x51
    3d64:	011b      	lsls	r3, r3, #4
			++active_channels;
    3d66:	3101      	adds	r1, #1
    3d68:	f844 c003 	str.w	ip, [r4, r3]
    3d6c:	b2c9      	uxtb	r1, r1
	} while (++channel_id < SAADC_CH_NUM);
    3d6e:	3201      	adds	r2, #1
    3d70:	2a08      	cmp	r2, #8
    3d72:	d1dc      	bne.n	3d2e <start_read.isra.0+0x1a>
	switch (sequence->resolution) {
    3d74:	7c2b      	ldrb	r3, [r5, #16]
    3d76:	3b08      	subs	r3, #8
    3d78:	2b06      	cmp	r3, #6
    3d7a:	d8cf      	bhi.n	3d1c <start_read.isra.0+0x8>
    3d7c:	a201      	add	r2, pc, #4	; (adr r2, 3d84 <start_read.isra.0+0x70>)
    3d7e:	f852 f023 	ldr.w	pc, [r2, r3, lsl #2]
    3d82:	bf00      	nop
    3d84:	00003e69 	.word	0x00003e69
    3d88:	00003d1d 	.word	0x00003d1d
    3d8c:	00003dab 	.word	0x00003dab
    3d90:	00003d1d 	.word	0x00003d1d
    3d94:	00003e61 	.word	0x00003e61
    3d98:	00003d1d 	.word	0x00003d1d
    3d9c:	00003e65 	.word	0x00003e65
    3da0:	f102 0651 	add.w	r6, r2, #81	; 0x51
    3da4:	0136      	lsls	r6, r6, #4
    3da6:	51a3      	str	r3, [r4, r6]
}
    3da8:	e7e1      	b.n	3d6e <start_read.isra.0+0x5a>
	error = set_resolution(sequence);
    3daa:	2201      	movs	r2, #1
    p_reg->RESOLUTION = resolution;
    3dac:	4b36      	ldr	r3, [pc, #216]	; (3e88 <start_read.isra.0+0x174>)
	if ((active_channels > 1) && (sequence->oversampling > 0)) {
    3dae:	2901      	cmp	r1, #1
    3db0:	f8c3 25f0 	str.w	r2, [r3, #1520]	; 0x5f0
	if (error) {
		return error;
	}

	error = set_oversampling(sequence, active_channels);
    3db4:	7c6a      	ldrb	r2, [r5, #17]
	if ((active_channels > 1) && (sequence->oversampling > 0)) {
    3db6:	d959      	bls.n	3e6c <start_read.isra.0+0x158>
    3db8:	2a00      	cmp	r2, #0
    3dba:	d1af      	bne.n	3d1c <start_read.isra.0+0x8>
    p_reg->OVERSAMPLE = oversample;
    3dbc:	f8c3 25f4 	str.w	r2, [r3, #1524]	; 0x5f4
	if (sequence->options) {
    3dc0:	682a      	ldr	r2, [r5, #0]
	needed_buffer_size = active_channels * sizeof(nrf_saadc_value_t);
    3dc2:	004b      	lsls	r3, r1, #1
	if (sequence->options) {
    3dc4:	b112      	cbz	r2, 3dcc <start_read.isra.0+0xb8>
		needed_buffer_size *= (1 + sequence->options->extra_samplings);
    3dc6:	8992      	ldrh	r2, [r2, #12]
    3dc8:	fb02 3303 	mla	r3, r2, r3, r3
	if (sequence->buffer_size < needed_buffer_size) {
    3dcc:	68ea      	ldr	r2, [r5, #12]
    3dce:	429a      	cmp	r2, r3
    3dd0:	d356      	bcc.n	3e80 <start_read.isra.0+0x16c>
    p_reg->RESULT.PTR = (uint32_t)p_buffer;
    3dd2:	4b2d      	ldr	r3, [pc, #180]	; (3e88 <start_read.isra.0+0x174>)
    3dd4:	68aa      	ldr	r2, [r5, #8]
    3dd6:	f8c3 262c 	str.w	r2, [r3, #1580]	; 0x62c
}

static inline void adc_context_start_read(struct adc_context *ctx,
					  const struct adc_sequence *sequence)
{
	ctx->sequence = *sequence;
    3dda:	462f      	mov	r7, r5
    p_reg->RESULT.MAXCNT = size;
    3ddc:	f8c3 1630 	str.w	r1, [r3, #1584]	; 0x630
    3de0:	cf0f      	ldmia	r7!, {r0, r1, r2, r3}
    3de2:	4c2a      	ldr	r4, [pc, #168]	; (3e8c <start_read.isra.0+0x178>)
    3de4:	f104 067c 	add.w	r6, r4, #124	; 0x7c
    3de8:	c60f      	stmia	r6!, {r0, r1, r2, r3}
    3dea:	683b      	ldr	r3, [r7, #0]
    3dec:	6033      	str	r3, [r6, #0]
	ctx->status = 0;

	if (sequence->options) {
    3dee:	682b      	ldr	r3, [r5, #0]
	ctx->status = 0;
    3df0:	2600      	movs	r6, #0
    3df2:	6726      	str	r6, [r4, #112]	; 0x70
	if (sequence->options) {
    3df4:	2b00      	cmp	r3, #0
    3df6:	d03c      	beq.n	3e72 <start_read.isra.0+0x15e>
		ctx->options = *sequence->options;
    3df8:	cb0f      	ldmia	r3, {r0, r1, r2, r3}
    3dfa:	f104 0590 	add.w	r5, r4, #144	; 0x90
    3dfe:	e885 000f 	stmia.w	r5, {r0, r1, r2, r3}
		ctx->sequence.options = &ctx->options;
    3e02:	67e5      	str	r5, [r4, #124]	; 0x7c
		ctx->sampling_index = 0U;
    3e04:	f8a4 60a0 	strh.w	r6, [r4, #160]	; 0xa0

		if (ctx->options.interval_us != 0U) {
    3e08:	b398      	cbz	r0, 3e72 <start_read.isra.0+0x15e>
	return __atomic_exchange_n(target, value, __ATOMIC_SEQ_CST);
    3e0a:	f3bf 8f5b 	dmb	ish
    3e0e:	e854 3f00 	ldrex	r3, [r4]
    3e12:	e844 6200 	strex	r2, r6, [r4]
    3e16:	2a00      	cmp	r2, #0
    3e18:	d1f9      	bne.n	3e0e <start_read.isra.0+0xfa>
    3e1a:	f3bf 8f5b 	dmb	ish
			return (t * to_hz + off) / from_hz;
    3e1e:	481c      	ldr	r0, [pc, #112]	; (3e90 <start_read.isra.0+0x17c>)
    3e20:	f8d4 6090 	ldr.w	r6, [r4, #144]	; 0x90
    3e24:	4a1b      	ldr	r2, [pc, #108]	; (3e94 <start_read.isra.0+0x180>)
    3e26:	f44f 4500 	mov.w	r5, #32768	; 0x8000
    3e2a:	2100      	movs	r1, #0
    3e2c:	2300      	movs	r3, #0
    3e2e:	fbe5 0106 	umlal	r0, r1, r5, r6
    3e32:	f7fc fff9 	bl	e28 <__aeabi_uldivmod>
	z_impl_k_timer_start(timer, duration, period);
    3e36:	2200      	movs	r2, #0
    3e38:	e9cd 0100 	strd	r0, r1, [sp]
    3e3c:	2300      	movs	r3, #0
    3e3e:	f104 0008 	add.w	r0, r4, #8
    3e42:	f005 fa11 	bl	9268 <z_impl_k_timer_start>
	if (ctx->asynchronous) {
    3e46:	f894 3078 	ldrb.w	r3, [r4, #120]	; 0x78
    3e4a:	b9bb      	cbnz	r3, 3e7c <start_read.isra.0+0x168>
	return z_impl_k_sem_take(sem, timeout);
    3e4c:	4812      	ldr	r0, [pc, #72]	; (3e98 <start_read.isra.0+0x184>)
    3e4e:	f04f 32ff 	mov.w	r2, #4294967295
    3e52:	f04f 33ff 	mov.w	r3, #4294967295
    3e56:	f004 fc21 	bl	869c <z_impl_k_sem_take>
	return ctx->status;
    3e5a:	6f20      	ldr	r0, [r4, #112]	; 0x70

	adc_context_start_read(&m_data.ctx, sequence);

	error = adc_context_wait_for_completion(&m_data.ctx);
	return error;
}
    3e5c:	b003      	add	sp, #12
    3e5e:	bdf0      	pop	{r4, r5, r6, r7, pc}
		nrf_resolution = NRF_SAADC_RESOLUTION_12BIT;
    3e60:	2202      	movs	r2, #2
		break;
    3e62:	e7a3      	b.n	3dac <start_read.isra.0+0x98>
		nrf_resolution = NRF_SAADC_RESOLUTION_14BIT;
    3e64:	2203      	movs	r2, #3
		break;
    3e66:	e7a1      	b.n	3dac <start_read.isra.0+0x98>
		nrf_resolution = NRF_SAADC_RESOLUTION_8BIT;
    3e68:	2200      	movs	r2, #0
    3e6a:	e79f      	b.n	3dac <start_read.isra.0+0x98>
	switch (sequence->oversampling) {
    3e6c:	2a08      	cmp	r2, #8
    3e6e:	d9a5      	bls.n	3dbc <start_read.isra.0+0xa8>
    3e70:	e754      	b.n	3d1c <start_read.isra.0+0x8>
			adc_context_enable_timer(ctx);
			return;
		}
	}

	adc_context_start_sampling(ctx);
    3e72:	f894 008e 	ldrb.w	r0, [r4, #142]	; 0x8e
    3e76:	f7ff fed3 	bl	3c20 <adc_context_start_sampling.isra.0>
    3e7a:	e7e4      	b.n	3e46 <start_read.isra.0+0x132>
		return 0;
    3e7c:	2000      	movs	r0, #0
	return error;
    3e7e:	e7ed      	b.n	3e5c <start_read.isra.0+0x148>
		return -ENOMEM;
    3e80:	f06f 000b 	mvn.w	r0, #11
    3e84:	e7ea      	b.n	3e5c <start_read.isra.0+0x148>
    3e86:	bf00      	nop
    3e88:	40007000 	.word	0x40007000
    3e8c:	20000000 	.word	0x20000000
    3e90:	000f423f 	.word	0x000f423f
    3e94:	000f4240 	.word	0x000f4240
    3e98:	20000058 	.word	0x20000058

00003e9c <adc_nrfx_read_async>:
#ifdef CONFIG_ADC_ASYNC
/* Implementation of the ADC driver API function: adc_read_async. */
static int adc_nrfx_read_async(const struct device *dev,
			       const struct adc_sequence *sequence,
			       struct k_poll_signal *async)
{
    3e9c:	b570      	push	{r4, r5, r6, lr}
    3e9e:	460c      	mov	r4, r1
    3ea0:	4616      	mov	r6, r2
    3ea2:	4d0d      	ldr	r5, [pc, #52]	; (3ed8 <adc_nrfx_read_async+0x3c>)
    3ea4:	f04f 32ff 	mov.w	r2, #4294967295
    3ea8:	f04f 33ff 	mov.w	r3, #4294967295
    3eac:	f105 0040 	add.w	r0, r5, #64	; 0x40
    3eb0:	f004 fbf4 	bl	869c <z_impl_k_sem_take>
	ctx->asynchronous = asynchronous;
    3eb4:	2301      	movs	r3, #1
	int error;

	adc_context_lock(&m_data.ctx, true, async);
	error = start_read(dev, sequence);
    3eb6:	4620      	mov	r0, r4
    3eb8:	f885 3078 	strb.w	r3, [r5, #120]	; 0x78
	ctx->signal = signal;
    3ebc:	676e      	str	r6, [r5, #116]	; 0x74
    3ebe:	f7ff ff29 	bl	3d14 <start_read.isra.0>
	if (ctx->asynchronous && (status == 0)) {
    3ec2:	f895 3078 	ldrb.w	r3, [r5, #120]	; 0x78
    3ec6:	4604      	mov	r4, r0
    3ec8:	b103      	cbz	r3, 3ecc <adc_nrfx_read_async+0x30>
    3eca:	b110      	cbz	r0, 3ed2 <adc_nrfx_read_async+0x36>
	z_impl_k_sem_give(sem);
    3ecc:	4803      	ldr	r0, [pc, #12]	; (3edc <adc_nrfx_read_async+0x40>)
    3ece:	f004 fba1 	bl	8614 <z_impl_k_sem_give>
	adc_context_release(&m_data.ctx, error);

	return error;
}
    3ed2:	4620      	mov	r0, r4
    3ed4:	bd70      	pop	{r4, r5, r6, pc}
    3ed6:	bf00      	nop
    3ed8:	20000000 	.word	0x20000000
    3edc:	20000040 	.word	0x20000040

00003ee0 <init_saadc>:
    *((volatile uint32_t *)((uint8_t *)p_reg + (uint32_t)event)) = 0x0UL;
    3ee0:	4b0d      	ldr	r3, [pc, #52]	; (3f18 <init_saadc+0x38>)
		nrf_saadc_task_trigger(NRF_SAADC, NRF_SAADC_TASK_SAMPLE);
	}
}

static int init_saadc(const struct device *dev)
{
    3ee2:	b510      	push	{r4, lr}
    3ee4:	2400      	movs	r4, #0
    3ee6:	601c      	str	r4, [r3, #0]
#ifndef NRF_DECLARE_ONLY

NRF_STATIC_INLINE void nrf_event_readback(void * p_event_reg)
{
#if NRFX_CHECK(NRFX_EVENT_READBACK_ENABLED) && !defined(NRF51)
    (void)*((volatile uint32_t *)(p_event_reg));
    3ee8:	681b      	ldr	r3, [r3, #0]
    3eea:	4b0c      	ldr	r3, [pc, #48]	; (3f1c <init_saadc+0x3c>)
    3eec:	601c      	str	r4, [r3, #0]
    3eee:	681b      	ldr	r3, [r3, #0]
    p_reg->INTENSET = mask;
    3ef0:	4b0b      	ldr	r3, [pc, #44]	; (3f20 <init_saadc+0x40>)
    3ef2:	2212      	movs	r2, #18
    3ef4:	f8c3 2304 	str.w	r2, [r3, #772]	; 0x304
	nrf_saadc_event_clear(NRF_SAADC, NRF_SAADC_EVENT_END);
	nrf_saadc_event_clear(NRF_SAADC, NRF_SAADC_EVENT_CALIBRATEDONE);
	nrf_saadc_int_enable(NRF_SAADC,
			     NRF_SAADC_INT_END | NRF_SAADC_INT_CALIBRATEDONE);
	NRFX_IRQ_ENABLE(DT_INST_IRQN(0));
    3ef8:	2007      	movs	r0, #7
    3efa:	f7ff fa37 	bl	336c <arch_irq_enable>

	IRQ_CONNECT(DT_INST_IRQN(0), DT_INST_IRQ(0, priority),
    3efe:	4622      	mov	r2, r4
    3f00:	2101      	movs	r1, #1
    3f02:	2007      	movs	r0, #7
    3f04:	f7ff fa50 	bl	33a8 <z_arm_irq_priority_set>
	return z_impl_k_sem_count_get(sem);
    3f08:	4806      	ldr	r0, [pc, #24]	; (3f24 <init_saadc+0x44>)
	if (!k_sem_count_get(&ctx->lock)) {
    3f0a:	6c83      	ldr	r3, [r0, #72]	; 0x48
    3f0c:	b913      	cbnz	r3, 3f14 <init_saadc+0x34>
	z_impl_k_sem_give(sem);
    3f0e:	3040      	adds	r0, #64	; 0x40
    3f10:	f004 fb80 	bl	8614 <z_impl_k_sem_give>
		    saadc_irq_handler, DEVICE_DT_INST_GET(0), 0);

	adc_context_unlock_unconditionally(&m_data.ctx);

	return 0;
}
    3f14:	2000      	movs	r0, #0
    3f16:	bd10      	pop	{r4, pc}
    3f18:	40007104 	.word	0x40007104
    3f1c:	40007110 	.word	0x40007110
    3f20:	40007000 	.word	0x40007000
    3f24:	20000000 	.word	0x20000000

00003f28 <saadc_irq_handler>:
    return (bool)*(volatile uint32_t *)((uint8_t *)p_reg + (uint32_t)event);
    3f28:	4b34      	ldr	r3, [pc, #208]	; (3ffc <saadc_irq_handler+0xd4>)
    3f2a:	681a      	ldr	r2, [r3, #0]
{
    3f2c:	b510      	push	{r4, lr}
	if (nrf_saadc_event_check(NRF_SAADC, NRF_SAADC_EVENT_END)) {
    3f2e:	2a00      	cmp	r2, #0
    3f30:	d055      	beq.n	3fde <saadc_irq_handler+0xb6>
    *((volatile uint32_t *)((uint8_t *)p_reg + (uint32_t)event)) = 0x0UL;
    3f32:	2200      	movs	r2, #0
    3f34:	601a      	str	r2, [r3, #0]
    3f36:	681b      	ldr	r3, [r3, #0]
 * function if required and takes further actions accordingly.
 */
static inline void adc_context_on_sampling_done(struct adc_context *ctx,
						const struct device *dev)
{
	if (ctx->sequence.options) {
    3f38:	4c31      	ldr	r4, [pc, #196]	; (4000 <saadc_irq_handler+0xd8>)
    *((volatile uint32_t *)((uint8_t *)p_reg + (uint32_t)task)) = 0x1UL;
    3f3a:	4b32      	ldr	r3, [pc, #200]	; (4004 <saadc_irq_handler+0xdc>)
    3f3c:	2101      	movs	r1, #1
    3f3e:	6019      	str	r1, [r3, #0]
    p_reg->ENABLE = (SAADC_ENABLE_ENABLE_Disabled << SAADC_ENABLE_ENABLE_Pos);
    3f40:	f8c3 24f8 	str.w	r2, [r3, #1272]	; 0x4f8
    3f44:	6fe3      	ldr	r3, [r4, #124]	; 0x7c
    3f46:	b3db      	cbz	r3, 3fc0 <saadc_irq_handler+0x98>
		adc_sequence_callback callback = ctx->options.callback;
    3f48:	f8d4 3094 	ldr.w	r3, [r4, #148]	; 0x94
		enum adc_action action;
		bool finish = false;
		bool repeat = false;

		if (callback) {
    3f4c:	b143      	cbz	r3, 3f60 <saadc_irq_handler+0x38>
			action = callback(dev,
    3f4e:	f8b4 20a0 	ldrh.w	r2, [r4, #160]	; 0xa0
    3f52:	f104 017c 	add.w	r1, r4, #124	; 0x7c
    3f56:	4798      	blx	r3
					  ctx->sampling_index);
		} else {
			action = ADC_ACTION_CONTINUE;
		}

		switch (action) {
    3f58:	2801      	cmp	r0, #1
    3f5a:	d014      	beq.n	3f86 <saadc_irq_handler+0x5e>
    3f5c:	2802      	cmp	r0, #2
    3f5e:	d029      	beq.n	3fb4 <saadc_irq_handler+0x8c>
			break;
		case ADC_ACTION_FINISH:
			finish = true;
			break;
		default: /* ADC_ACTION_CONTINUE */
			if (ctx->sampling_index <
    3f60:	f8b4 30a0 	ldrh.w	r3, [r4, #160]	; 0xa0
    3f64:	f8b4 209c 	ldrh.w	r2, [r4, #156]	; 0x9c
    3f68:	429a      	cmp	r2, r3
    3f6a:	d923      	bls.n	3fb4 <saadc_irq_handler+0x8c>
			    ctx->options.extra_samplings) {
				++ctx->sampling_index;
    3f6c:	3301      	adds	r3, #1
    3f6e:	f8a4 30a0 	strh.w	r3, [r4, #160]	; 0xa0
    return (nrf_saadc_value_t *)p_reg->RESULT.PTR;
    3f72:	4b25      	ldr	r3, [pc, #148]	; (4008 <saadc_irq_handler+0xe0>)
    3f74:	f8d3 262c 	ldr.w	r2, [r3, #1580]	; 0x62c
    return p_reg->RESULT.AMOUNT;
    3f78:	f8d3 1634 	ldr.w	r1, [r3, #1588]	; 0x634
			nrf_saadc_buffer_pointer_get(NRF_SAADC) +
    3f7c:	b289      	uxth	r1, r1
		nrf_saadc_buffer_pointer_set(
    3f7e:	eb02 0241 	add.w	r2, r2, r1, lsl #1
    p_reg->RESULT.PTR = (uint32_t)p_buffer;
    3f82:	f8c3 262c 	str.w	r2, [r3, #1580]	; 0x62c
			/*
			 * Immediately start the next sampling if working with
			 * a zero interval or if the timer expired again while
			 * the current sampling was in progress.
			 */
			if (ctx->options.interval_us == 0U) {
    3f86:	f8d4 3090 	ldr.w	r3, [r4, #144]	; 0x90
    3f8a:	b92b      	cbnz	r3, 3f98 <saadc_irq_handler+0x70>
				adc_context_start_sampling(ctx);
			} else if (atomic_dec(&ctx->sampling_requested) > 1) {
				adc_context_start_sampling(ctx);
    3f8c:	f894 008e 	ldrb.w	r0, [r4, #142]	; 0x8e
}
    3f90:	e8bd 4010 	ldmia.w	sp!, {r4, lr}
    3f94:	f7ff be44 	b.w	3c20 <adc_context_start_sampling.isra.0>
	return __atomic_fetch_sub(target, value, __ATOMIC_SEQ_CST);
    3f98:	f3bf 8f5b 	dmb	ish
    3f9c:	e854 3f00 	ldrex	r3, [r4]
    3fa0:	1e5a      	subs	r2, r3, #1
    3fa2:	e844 2100 	strex	r1, r2, [r4]
    3fa6:	2900      	cmp	r1, #0
    3fa8:	d1f8      	bne.n	3f9c <saadc_irq_handler+0x74>
    3faa:	f3bf 8f5b 	dmb	ish
			} else if (atomic_dec(&ctx->sampling_requested) > 1) {
    3fae:	2b01      	cmp	r3, #1
    3fb0:	dcec      	bgt.n	3f8c <saadc_irq_handler+0x64>
    3fb2:	bd10      	pop	{r4, pc}
			}

			return;
		}

		if (ctx->options.interval_us != 0U) {
    3fb4:	f8d4 3090 	ldr.w	r3, [r4, #144]	; 0x90
    3fb8:	b113      	cbz	r3, 3fc0 <saadc_irq_handler+0x98>
	z_impl_k_timer_stop(timer);
    3fba:	4814      	ldr	r0, [pc, #80]	; (400c <saadc_irq_handler+0xe4>)
    3fbc:	f006 fe79 	bl	acb2 <z_impl_k_timer_stop>
	if (ctx->asynchronous) {
    3fc0:	f894 3078 	ldrb.w	r3, [r4, #120]	; 0x78
    3fc4:	b14b      	cbz	r3, 3fda <saadc_irq_handler+0xb2>
		if (ctx->signal) {
    3fc6:	6f60      	ldr	r0, [r4, #116]	; 0x74
    3fc8:	b110      	cbz	r0, 3fd0 <saadc_irq_handler+0xa8>
	return z_impl_k_poll_signal_raise(sig, result);
    3fca:	2100      	movs	r1, #0
    3fcc:	f003 f898 	bl	7100 <z_impl_k_poll_signal_raise>
	z_impl_k_sem_give(sem);
    3fd0:	480f      	ldr	r0, [pc, #60]	; (4010 <saadc_irq_handler+0xe8>)
    3fd2:	e8bd 4010 	ldmia.w	sp!, {r4, lr}
    3fd6:	f004 bb1d 	b.w	8614 <z_impl_k_sem_give>
    3fda:	480e      	ldr	r0, [pc, #56]	; (4014 <saadc_irq_handler+0xec>)
    3fdc:	e7f9      	b.n	3fd2 <saadc_irq_handler+0xaa>
    return (bool)*(volatile uint32_t *)((uint8_t *)p_reg + (uint32_t)event);
    3fde:	4b0e      	ldr	r3, [pc, #56]	; (4018 <saadc_irq_handler+0xf0>)
    3fe0:	6819      	ldr	r1, [r3, #0]
	} else if (nrf_saadc_event_check(NRF_SAADC,
    3fe2:	2900      	cmp	r1, #0
    3fe4:	d0e5      	beq.n	3fb2 <saadc_irq_handler+0x8a>
    *((volatile uint32_t *)((uint8_t *)p_reg + (uint32_t)event)) = 0x0UL;
    3fe6:	601a      	str	r2, [r3, #0]
    *((volatile uint32_t *)((uint8_t *)p_reg + (uint32_t)task)) = 0x1UL;
    3fe8:	4a06      	ldr	r2, [pc, #24]	; (4004 <saadc_irq_handler+0xdc>)
    3fea:	681b      	ldr	r3, [r3, #0]
    3fec:	2301      	movs	r3, #1
    3fee:	6013      	str	r3, [r2, #0]
    3ff0:	f842 3c08 	str.w	r3, [r2, #-8]
    3ff4:	f842 3c04 	str.w	r3, [r2, #-4]
}
    3ff8:	e7db      	b.n	3fb2 <saadc_irq_handler+0x8a>
    3ffa:	bf00      	nop
    3ffc:	40007104 	.word	0x40007104
    4000:	20000000 	.word	0x20000000
    4004:	40007008 	.word	0x40007008
    4008:	40007000 	.word	0x40007000
    400c:	20000008 	.word	0x20000008
    4010:	20000040 	.word	0x20000040
    4014:	20000058 	.word	0x20000058
    4018:	40007110 	.word	0x40007110

0000401c <adc_nrfx_read>:
{
    401c:	b538      	push	{r3, r4, r5, lr}
    401e:	460c      	mov	r4, r1
	return z_impl_k_sem_take(sem, timeout);
    4020:	4d0c      	ldr	r5, [pc, #48]	; (4054 <adc_nrfx_read+0x38>)
    4022:	f04f 32ff 	mov.w	r2, #4294967295
    4026:	f04f 33ff 	mov.w	r3, #4294967295
    402a:	f105 0040 	add.w	r0, r5, #64	; 0x40
    402e:	f004 fb35 	bl	869c <z_impl_k_sem_take>
	ctx->asynchronous = asynchronous;
    4032:	2300      	movs	r3, #0
	error = start_read(dev, sequence);
    4034:	4620      	mov	r0, r4
    4036:	f885 3078 	strb.w	r3, [r5, #120]	; 0x78
	ctx->signal = signal;
    403a:	676b      	str	r3, [r5, #116]	; 0x74
    403c:	f7ff fe6a 	bl	3d14 <start_read.isra.0>
	if (ctx->asynchronous && (status == 0)) {
    4040:	f895 3078 	ldrb.w	r3, [r5, #120]	; 0x78
    4044:	4604      	mov	r4, r0
    4046:	b103      	cbz	r3, 404a <adc_nrfx_read+0x2e>
    4048:	b110      	cbz	r0, 4050 <adc_nrfx_read+0x34>
	z_impl_k_sem_give(sem);
    404a:	4803      	ldr	r0, [pc, #12]	; (4058 <adc_nrfx_read+0x3c>)
    404c:	f004 fae2 	bl	8614 <z_impl_k_sem_give>
}
    4050:	4620      	mov	r0, r4
    4052:	bd38      	pop	{r3, r4, r5, pc}
    4054:	20000000 	.word	0x20000000
    4058:	20000040 	.word	0x20000040

0000405c <onoff_start>:
	notify(mgr, 0);
}

static void onoff_start(struct onoff_manager *mgr,
			onoff_notify_fn notify)
{
    405c:	e92d 41f0 	stmdb	sp!, {r4, r5, r6, r7, r8, lr}
	size_t offset = (size_t)(mgr - data->mgr);
    4060:	4c10      	ldr	r4, [pc, #64]	; (40a4 <onoff_start+0x48>)
    4062:	1b07      	subs	r7, r0, r4
    4064:	f3c7 1747 	ubfx	r7, r7, #5, #8
	err = set_starting_state(&subdata->flags, ctx);
    4068:	f04f 080c 	mov.w	r8, #12
    406c:	fb08 f807 	mul.w	r8, r8, r7
{
    4070:	4606      	mov	r6, r0
	err = set_starting_state(&subdata->flags, ctx);
    4072:	f108 0048 	add.w	r0, r8, #72	; 0x48
{
    4076:	460d      	mov	r5, r1
	err = set_starting_state(&subdata->flags, ctx);
    4078:	4420      	add	r0, r4
    407a:	2140      	movs	r1, #64	; 0x40
    407c:	f006 f911 	bl	a2a2 <set_starting_state>
	if (err < 0) {
    4080:	1e01      	subs	r1, r0, #0
    4082:	db09      	blt.n	4098 <onoff_start+0x3c>
	subdata->cb = cb;
    4084:	4b08      	ldr	r3, [pc, #32]	; (40a8 <onoff_start+0x4c>)
    4086:	4444      	add	r4, r8
	subdata->user_data = user_data;
    4088:	e9c4 3510 	strd	r3, r5, [r4, #64]	; 0x40
	 get_sub_config(dev, type)->start();
    408c:	4b07      	ldr	r3, [pc, #28]	; (40ac <onoff_start+0x50>)
    408e:	f853 3037 	ldr.w	r3, [r3, r7, lsl #3]
	err = async_start(CLOCK_DEVICE, get_subsys(mgr),
			  onoff_started_callback, notify, CTX_ONOFF);
	if (err < 0) {
		notify(mgr, err);
	}
}
    4092:	e8bd 41f0 	ldmia.w	sp!, {r4, r5, r6, r7, r8, lr}
	 get_sub_config(dev, type)->start();
    4096:	4718      	bx	r3
		notify(mgr, err);
    4098:	4630      	mov	r0, r6
    409a:	462b      	mov	r3, r5
}
    409c:	e8bd 41f0 	ldmia.w	sp!, {r4, r5, r6, r7, r8, lr}
		notify(mgr, err);
    40a0:	4718      	bx	r3
    40a2:	bf00      	nop
    40a4:	20000da0 	.word	0x20000da0
    40a8:	0000a305 	.word	0x0000a305
    40ac:	0000b078 	.word	0x0000b078

000040b0 <get_status>:
{
    40b0:	b538      	push	{r3, r4, r5, lr}
	__ASSERT_NO_MSG(type < CLOCK_CONTROL_NRF_TYPE_COUNT);
    40b2:	b2cc      	uxtb	r4, r1
    40b4:	2c01      	cmp	r4, #1
{
    40b6:	4605      	mov	r5, r0
	__ASSERT_NO_MSG(type < CLOCK_CONTROL_NRF_TYPE_COUNT);
    40b8:	d909      	bls.n	40ce <get_status+0x1e>
    40ba:	4909      	ldr	r1, [pc, #36]	; (40e0 <get_status+0x30>)
    40bc:	4809      	ldr	r0, [pc, #36]	; (40e4 <get_status+0x34>)
    40be:	4a0a      	ldr	r2, [pc, #40]	; (40e8 <get_status+0x38>)
    40c0:	2379      	movs	r3, #121	; 0x79
    40c2:	f005 febc 	bl	9e3e <printk>
    40c6:	4808      	ldr	r0, [pc, #32]	; (40e8 <get_status+0x38>)
    40c8:	2179      	movs	r1, #121	; 0x79
    40ca:	f005 fdb5 	bl	9c38 <assert_post_action>
	return GET_STATUS(get_sub_data(dev, type)->flags);
    40ce:	692b      	ldr	r3, [r5, #16]
    40d0:	210c      	movs	r1, #12
    40d2:	fb04 3401 	mla	r4, r4, r1, r3
    40d6:	6ca0      	ldr	r0, [r4, #72]	; 0x48
}
    40d8:	f000 0007 	and.w	r0, r0, #7
    40dc:	bd38      	pop	{r3, r4, r5, pc}
    40de:	bf00      	nop
    40e0:	0000bea2 	.word	0x0000bea2
    40e4:	0000b2d3 	.word	0x0000b2d3
    40e8:	0000be65 	.word	0x0000be65

000040ec <stop>:
{
    40ec:	b5f8      	push	{r3, r4, r5, r6, r7, lr}
    40ee:	b2cc      	uxtb	r4, r1
	__ASSERT_NO_MSG(type < CLOCK_CONTROL_NRF_TYPE_COUNT);
    40f0:	2c01      	cmp	r4, #1
	struct nrf_clock_control_sub_data *subdata = get_sub_data(dev, type);
    40f2:	6907      	ldr	r7, [r0, #16]
{
    40f4:	4605      	mov	r5, r0
    40f6:	4616      	mov	r6, r2
	__ASSERT_NO_MSG(type < CLOCK_CONTROL_NRF_TYPE_COUNT);
    40f8:	d90b      	bls.n	4112 <stop+0x26>
    40fa:	4918      	ldr	r1, [pc, #96]	; (415c <stop+0x70>)
    40fc:	4818      	ldr	r0, [pc, #96]	; (4160 <stop+0x74>)
    40fe:	4a19      	ldr	r2, [pc, #100]	; (4164 <stop+0x78>)
    4100:	f240 134d 	movw	r3, #333	; 0x14d
    4104:	f005 fe9b 	bl	9e3e <printk>
    4108:	4816      	ldr	r0, [pc, #88]	; (4164 <stop+0x78>)
    410a:	f240 114d 	movw	r1, #333	; 0x14d
    410e:	f005 fd93 	bl	9c38 <assert_post_action>
	__asm__ volatile(
    4112:	f04f 0320 	mov.w	r3, #32
    4116:	f3ef 8211 	mrs	r2, BASEPRI
    411a:	f383 8812 	msr	BASEPRI_MAX, r3
    411e:	f3bf 8f6f 	isb	sy
	uint32_t current_ctx = GET_CTX(*flags);
    4122:	230c      	movs	r3, #12
    4124:	fb03 7104 	mla	r1, r3, r4, r7
    4128:	6c89      	ldr	r1, [r1, #72]	; 0x48
	if ((current_ctx != 0) && (current_ctx != ctx)) {
    412a:	f011 01c0 	ands.w	r1, r1, #192	; 0xc0
    412e:	d001      	beq.n	4134 <stop+0x48>
    4130:	428e      	cmp	r6, r1
    4132:	d110      	bne.n	4156 <stop+0x6a>
		*flags = CLOCK_CONTROL_STATUS_OFF;
    4134:	fb03 7304 	mla	r3, r3, r4, r7
    4138:	2101      	movs	r1, #1
    413a:	6499      	str	r1, [r3, #72]	; 0x48
	int err = 0;
    413c:	2000      	movs	r0, #0
	__asm__ volatile(
    413e:	f382 8811 	msr	BASEPRI, r2
    4142:	f3bf 8f6f 	isb	sy
	if (err < 0) {
    4146:	b928      	cbnz	r0, 4154 <stop+0x68>
	get_sub_config(dev, type)->stop();
    4148:	6869      	ldr	r1, [r5, #4]
    414a:	eb01 04c4 	add.w	r4, r1, r4, lsl #3
    414e:	6863      	ldr	r3, [r4, #4]
    4150:	4798      	blx	r3
	return 0;
    4152:	2000      	movs	r0, #0
}
    4154:	bdf8      	pop	{r3, r4, r5, r6, r7, pc}
		err = -EPERM;
    4156:	f04f 30ff 	mov.w	r0, #4294967295
    415a:	e7f0      	b.n	413e <stop+0x52>
    415c:	0000bea2 	.word	0x0000bea2
    4160:	0000b2d3 	.word	0x0000b2d3
    4164:	0000be65 	.word	0x0000be65

00004168 <onoff_stop>:
{
    4168:	b570      	push	{r4, r5, r6, lr}
    416a:	460d      	mov	r5, r1
	size_t offset = (size_t)(mgr - data->mgr);
    416c:	4906      	ldr	r1, [pc, #24]	; (4188 <onoff_stop+0x20>)
    416e:	1a41      	subs	r1, r0, r1
{
    4170:	4604      	mov	r4, r0
	res = stop(CLOCK_DEVICE, get_subsys(mgr), CTX_ONOFF);
    4172:	1149      	asrs	r1, r1, #5
    4174:	4805      	ldr	r0, [pc, #20]	; (418c <onoff_stop+0x24>)
    4176:	2240      	movs	r2, #64	; 0x40
    4178:	f7ff ffb8 	bl	40ec <stop>
	notify(mgr, res);
    417c:	462b      	mov	r3, r5
	res = stop(CLOCK_DEVICE, get_subsys(mgr), CTX_ONOFF);
    417e:	4601      	mov	r1, r0
	notify(mgr, res);
    4180:	4620      	mov	r0, r4
}
    4182:	e8bd 4070 	ldmia.w	sp!, {r4, r5, r6, lr}
	notify(mgr, res);
    4186:	4718      	bx	r3
    4188:	20000da0 	.word	0x20000da0
    418c:	0000ad90 	.word	0x0000ad90

00004190 <clk_init>:
	static const struct onoff_transitions transitions = {
		.start = onoff_start,
		.stop = onoff_stop
	};

	IRQ_CONNECT(DT_INST_IRQN(0), DT_INST_IRQ(0, priority),
    4190:	2200      	movs	r2, #0
{
    4192:	b570      	push	{r4, r5, r6, lr}
	IRQ_CONNECT(DT_INST_IRQN(0), DT_INST_IRQ(0, priority),
    4194:	2101      	movs	r1, #1
{
    4196:	4604      	mov	r4, r0
	IRQ_CONNECT(DT_INST_IRQN(0), DT_INST_IRQ(0, priority),
    4198:	4610      	mov	r0, r2
    419a:	f7ff f905 	bl	33a8 <z_arm_irq_priority_set>
		    nrfx_isr, nrfx_power_clock_irq_handler, 0);
	irq_enable(DT_INST_IRQN(0));
    419e:	2000      	movs	r0, #0
    41a0:	f7ff f8e4 	bl	336c <arch_irq_enable>

	nrfx_err = nrfx_clock_init(clock_event_handler);
    41a4:	480f      	ldr	r0, [pc, #60]	; (41e4 <clk_init+0x54>)
    41a6:	f001 fa2d 	bl	5604 <nrfx_clock_init>
	if (nrfx_err != NRFX_SUCCESS) {
    41aa:	4b0f      	ldr	r3, [pc, #60]	; (41e8 <clk_init+0x58>)
    41ac:	4298      	cmp	r0, r3
    41ae:	d115      	bne.n	41dc <clk_init+0x4c>
		struct nrf_clock_control_data *data = dev->data;

		z_nrf_clock_calibration_init(data->mgr);
	}

	nrfx_clock_enable();
    41b0:	f001 fa4c 	bl	564c <nrfx_clock_enable>

	for (enum clock_control_nrf_type i = 0;
		i < CLOCK_CONTROL_NRF_TYPE_COUNT; i++) {
		struct nrf_clock_control_sub_data *subdata =
						get_sub_data(dev, i);
    41b4:	6926      	ldr	r6, [r4, #16]

		err = onoff_manager_init(get_onoff_manager(dev, i),
    41b6:	490d      	ldr	r1, [pc, #52]	; (41ec <clk_init+0x5c>)
    41b8:	4630      	mov	r0, r6
    41ba:	f005 fe2b 	bl	9e14 <onoff_manager_init>
					 &transitions);
		if (err < 0) {
    41be:	2800      	cmp	r0, #0
    41c0:	db0b      	blt.n	41da <clk_init+0x4a>
			return err;
		}

		subdata->flags = CLOCK_CONTROL_STATUS_OFF;
    41c2:	2501      	movs	r5, #1
    41c4:	64b5      	str	r5, [r6, #72]	; 0x48
						get_sub_data(dev, i);
    41c6:	6924      	ldr	r4, [r4, #16]
		err = onoff_manager_init(get_onoff_manager(dev, i),
    41c8:	4908      	ldr	r1, [pc, #32]	; (41ec <clk_init+0x5c>)
    41ca:	f104 0020 	add.w	r0, r4, #32
    41ce:	f005 fe21 	bl	9e14 <onoff_manager_init>
		if (err < 0) {
    41d2:	2800      	cmp	r0, #0
    41d4:	db01      	blt.n	41da <clk_init+0x4a>
		subdata->flags = CLOCK_CONTROL_STATUS_OFF;
    41d6:	6565      	str	r5, [r4, #84]	; 0x54
	}

	return 0;
    41d8:	2000      	movs	r0, #0
}
    41da:	bd70      	pop	{r4, r5, r6, pc}
		return -EIO;
    41dc:	f06f 0004 	mvn.w	r0, #4
    41e0:	e7fb      	b.n	41da <clk_init+0x4a>
    41e2:	bf00      	nop
    41e4:	00004225 	.word	0x00004225
    41e8:	0bad0000 	.word	0x0bad0000
    41ec:	0000b088 	.word	0x0000b088

000041f0 <clkstarted_handle.constprop.0>:
static void clkstarted_handle(const struct device *dev,
    41f0:	4601      	mov	r1, r0
	clock_control_cb_t callback = sub_data->cb;
    41f2:	230c      	movs	r3, #12
    41f4:	4809      	ldr	r0, [pc, #36]	; (421c <clkstarted_handle.constprop.0+0x2c>)
    41f6:	434b      	muls	r3, r1
static void clkstarted_handle(const struct device *dev,
    41f8:	b570      	push	{r4, r5, r6, lr}
	clock_control_cb_t callback = sub_data->cb;
    41fa:	18c4      	adds	r4, r0, r3
	void *user_data = sub_data->user_data;
    41fc:	e9d4 5610 	ldrd	r5, r6, [r4, #64]	; 0x40
	sub_data->cb = NULL;
    4200:	2200      	movs	r2, #0
	set_on_state(&sub_data->flags);
    4202:	3348      	adds	r3, #72	; 0x48
	sub_data->cb = NULL;
    4204:	6422      	str	r2, [r4, #64]	; 0x40
	set_on_state(&sub_data->flags);
    4206:	4418      	add	r0, r3
    4208:	f006 f869 	bl	a2de <set_on_state>
	if (callback) {
    420c:	b12d      	cbz	r5, 421a <clkstarted_handle.constprop.0+0x2a>
		callback(dev, (clock_control_subsys_t)type, user_data);
    420e:	4632      	mov	r2, r6
    4210:	462b      	mov	r3, r5
    4212:	4803      	ldr	r0, [pc, #12]	; (4220 <clkstarted_handle.constprop.0+0x30>)
}
    4214:	e8bd 4070 	ldmia.w	sp!, {r4, r5, r6, lr}
		callback(dev, (clock_control_subsys_t)type, user_data);
    4218:	4718      	bx	r3
}
    421a:	bd70      	pop	{r4, r5, r6, pc}
    421c:	20000da0 	.word	0x20000da0
    4220:	0000ad90 	.word	0x0000ad90

00004224 <clock_event_handler>:
	switch (event) {
    4224:	2801      	cmp	r0, #1
{
    4226:	b508      	push	{r3, lr}
	switch (event) {
    4228:	d006      	beq.n	4238 <clock_event_handler+0x14>
    422a:	2803      	cmp	r0, #3
    422c:	d008      	beq.n	4240 <clock_event_handler+0x1c>
    422e:	b9a8      	cbnz	r0, 425c <clock_event_handler+0x38>
		if (GET_STATUS(data->flags) == CLOCK_CONTROL_STATUS_STARTING) {
    4230:	4b10      	ldr	r3, [pc, #64]	; (4274 <clock_event_handler+0x50>)
    4232:	6c9b      	ldr	r3, [r3, #72]	; 0x48
    4234:	075b      	lsls	r3, r3, #29
    4236:	d11b      	bne.n	4270 <clock_event_handler+0x4c>
}
    4238:	e8bd 4008 	ldmia.w	sp!, {r3, lr}
		clkstarted_handle(dev, CLOCK_CONTROL_NRF_TYPE_LFCLK);
    423c:	f7ff bfd8 	b.w	41f0 <clkstarted_handle.constprop.0>
			__ASSERT_NO_MSG(false);
    4240:	490d      	ldr	r1, [pc, #52]	; (4278 <clock_event_handler+0x54>)
    4242:	4a0e      	ldr	r2, [pc, #56]	; (427c <clock_event_handler+0x58>)
    4244:	480e      	ldr	r0, [pc, #56]	; (4280 <clock_event_handler+0x5c>)
    4246:	f240 235e 	movw	r3, #606	; 0x25e
    424a:	f005 fdf8 	bl	9e3e <printk>
    424e:	f240 215e 	movw	r1, #606	; 0x25e
}
    4252:	e8bd 4008 	ldmia.w	sp!, {r3, lr}
		__ASSERT_NO_MSG(0);
    4256:	4809      	ldr	r0, [pc, #36]	; (427c <clock_event_handler+0x58>)
    4258:	f005 bcee 	b.w	9c38 <assert_post_action>
    425c:	4906      	ldr	r1, [pc, #24]	; (4278 <clock_event_handler+0x54>)
    425e:	4a07      	ldr	r2, [pc, #28]	; (427c <clock_event_handler+0x58>)
    4260:	4807      	ldr	r0, [pc, #28]	; (4280 <clock_event_handler+0x5c>)
    4262:	f240 2362 	movw	r3, #610	; 0x262
    4266:	f005 fdea 	bl	9e3e <printk>
    426a:	f240 2162 	movw	r1, #610	; 0x262
    426e:	e7f0      	b.n	4252 <clock_event_handler+0x2e>
}
    4270:	bd08      	pop	{r3, pc}
    4272:	bf00      	nop
    4274:	20000da0 	.word	0x20000da0
    4278:	0000b2d1 	.word	0x0000b2d1
    427c:	0000be65 	.word	0x0000be65
    4280:	0000b2d3 	.word	0x0000b2d3

00004284 <generic_hfclk_start>:
{
    4284:	b508      	push	{r3, lr}
	__asm__ volatile(
    4286:	f04f 0320 	mov.w	r3, #32
    428a:	f3ef 8111 	mrs	r1, BASEPRI
    428e:	f383 8812 	msr	BASEPRI_MAX, r3
    4292:	f3bf 8f6f 	isb	sy
	hfclk_users |= HF_USER_GENERIC;
    4296:	4a12      	ldr	r2, [pc, #72]	; (42e0 <generic_hfclk_start+0x5c>)
    4298:	6813      	ldr	r3, [r2, #0]
    429a:	f043 0002 	orr.w	r0, r3, #2
	if (hfclk_users & HF_USER_BT) {
    429e:	f013 0301 	ands.w	r3, r3, #1
	hfclk_users |= HF_USER_GENERIC;
    42a2:	6010      	str	r0, [r2, #0]
	if (hfclk_users & HF_USER_BT) {
    42a4:	d00c      	beq.n	42c0 <generic_hfclk_start+0x3c>
            break;
        case NRF_CLOCK_DOMAIN_HFCLK:
            if (p_clk_src != NULL)
            {
                (*(nrf_clock_hfclk_t *)p_clk_src) =
                    (nrf_clock_hfclk_t)((p_reg->HFCLKSTAT & CLOCK_HFCLKSTAT_SRC_Msk)
    42a6:	f04f 4280 	mov.w	r2, #1073741824	; 0x40000000
    42aa:	f8d2 340c 	ldr.w	r3, [r2, #1036]	; 0x40c
                                        >> CLOCK_HFCLKSTAT_SRC_Pos);
            }
            if ((p_reg->HFCLKSTAT & CLOCK_HFCLKSTAT_STATE_Msk)
    42ae:	f8d2 240c 	ldr.w	r2, [r2, #1036]	; 0x40c
		if (type == NRF_CLOCK_HFCLK_HIGH_ACCURACY) {
    42b2:	f013 0301 	ands.w	r3, r3, #1
    42b6:	d003      	beq.n	42c0 <generic_hfclk_start+0x3c>
			set_on_state(get_hf_flags());
    42b8:	480a      	ldr	r0, [pc, #40]	; (42e4 <generic_hfclk_start+0x60>)
    42ba:	f006 f810 	bl	a2de <set_on_state>
			already_started = true;
    42be:	2301      	movs	r3, #1
	__asm__ volatile(
    42c0:	f381 8811 	msr	BASEPRI, r1
    42c4:	f3bf 8f6f 	isb	sy
	if (already_started) {
    42c8:	b123      	cbz	r3, 42d4 <generic_hfclk_start+0x50>
}
    42ca:	e8bd 4008 	ldmia.w	sp!, {r3, lr}
		clkstarted_handle(CLOCK_DEVICE,
    42ce:	2000      	movs	r0, #0
    42d0:	f7ff bf8e 	b.w	41f0 <clkstarted_handle.constprop.0>
}
    42d4:	e8bd 4008 	ldmia.w	sp!, {r3, lr}
    nrfx_clock_stop(NRF_CLOCK_DOMAIN_LFCLK);
}

NRFX_STATIC_INLINE void nrfx_clock_hfclk_start(void)
{
    nrfx_clock_start(NRF_CLOCK_DOMAIN_HFCLK);
    42d8:	2001      	movs	r0, #1
    42da:	f001 b9d7 	b.w	568c <nrfx_clock_start>
    42de:	bf00      	nop
    42e0:	20000df8 	.word	0x20000df8
    42e4:	20000de8 	.word	0x20000de8

000042e8 <generic_hfclk_stop>:
	return __atomic_fetch_and(target, value, __ATOMIC_SEQ_CST);
    42e8:	4b09      	ldr	r3, [pc, #36]	; (4310 <generic_hfclk_stop+0x28>)
    42ea:	f3bf 8f5b 	dmb	ish
    42ee:	e853 2f00 	ldrex	r2, [r3]
    42f2:	f022 0102 	bic.w	r1, r2, #2
    42f6:	e843 1000 	strex	r0, r1, [r3]
    42fa:	2800      	cmp	r0, #0
    42fc:	d1f7      	bne.n	42ee <generic_hfclk_stop+0x6>
    42fe:	f3bf 8f5b 	dmb	ish
	if (atomic_and(&hfclk_users, ~HF_USER_GENERIC) & HF_USER_BT) {
    4302:	07d3      	lsls	r3, r2, #31
    4304:	d402      	bmi.n	430c <generic_hfclk_stop+0x24>
}

NRFX_STATIC_INLINE void nrfx_clock_hfclk_stop(void)
{
    nrfx_clock_stop(NRF_CLOCK_DOMAIN_HFCLK);
    4306:	2001      	movs	r0, #1
    4308:	f001 ba14 	b.w	5734 <nrfx_clock_stop>
}
    430c:	4770      	bx	lr
    430e:	bf00      	nop
    4310:	20000df8 	.word	0x20000df8

00004314 <api_blocking_start>:
{
    4314:	b57f      	push	{r0, r1, r2, r3, r4, r5, r6, lr}
	struct k_sem sem = Z_SEM_INITIALIZER(sem, 0, 1);
    4316:	2200      	movs	r2, #0
    4318:	2301      	movs	r3, #1
    431a:	e9cd 2302 	strd	r2, r3, [sp, #8]
    431e:	ab04      	add	r3, sp, #16
    4320:	e9cd 3304 	strd	r3, r3, [sp, #16]
	err = api_start(dev, subsys, blocking_start_callback, &sem);
    4324:	4a09      	ldr	r2, [pc, #36]	; (434c <api_blocking_start+0x38>)
	struct k_sem sem = Z_SEM_INITIALIZER(sem, 0, 1);
    4326:	f8cd d000 	str.w	sp, [sp]
	err = api_start(dev, subsys, blocking_start_callback, &sem);
    432a:	466b      	mov	r3, sp
	struct k_sem sem = Z_SEM_INITIALIZER(sem, 0, 1);
    432c:	f8cd d004 	str.w	sp, [sp, #4]
	err = api_start(dev, subsys, blocking_start_callback, &sem);
    4330:	f005 fffa 	bl	a328 <api_start>
	if (err < 0) {
    4334:	2800      	cmp	r0, #0
    4336:	db05      	blt.n	4344 <api_blocking_start+0x30>
	return z_impl_k_sem_take(sem, timeout);
    4338:	f44f 4280 	mov.w	r2, #16384	; 0x4000
    433c:	2300      	movs	r3, #0
    433e:	4668      	mov	r0, sp
    4340:	f004 f9ac 	bl	869c <z_impl_k_sem_take>
}
    4344:	b007      	add	sp, #28
    4346:	f85d fb04 	ldr.w	pc, [sp], #4
    434a:	bf00      	nop
    434c:	0000a323 	.word	0x0000a323

00004350 <z_nrf_clock_control_lf_on>:
{
    4350:	e92d 43f8 	stmdb	sp!, {r3, r4, r5, r6, r7, r8, r9, lr}
	return __atomic_exchange_n(target, value, __ATOMIC_SEQ_CST);
    4354:	4949      	ldr	r1, [pc, #292]	; (447c <z_nrf_clock_control_lf_on+0x12c>)
    4356:	f3bf 8f5b 	dmb	ish
    435a:	4605      	mov	r5, r0
    435c:	2201      	movs	r2, #1
    435e:	e851 3f00 	ldrex	r3, [r1]
    4362:	e841 2000 	strex	r0, r2, [r1]
    4366:	2800      	cmp	r0, #0
    4368:	d1f9      	bne.n	435e <z_nrf_clock_control_lf_on+0xe>
    436a:	f3bf 8f5b 	dmb	ish
	if (atomic_set(&on, 1) == 0) {
    436e:	b9a3      	cbnz	r3, 439a <z_nrf_clock_control_lf_on+0x4a>
 */
static inline void sys_notify_init_spinwait(struct sys_notify *notify)
{
	__ASSERT_NO_MSG(notify != NULL);

	*notify = (struct sys_notify){
    4370:	4943      	ldr	r1, [pc, #268]	; (4480 <z_nrf_clock_control_lf_on+0x130>)
		err = onoff_request(mgr, &cli);
    4372:	4844      	ldr	r0, [pc, #272]	; (4484 <z_nrf_clock_control_lf_on+0x134>)
    4374:	604b      	str	r3, [r1, #4]
    4376:	60cb      	str	r3, [r1, #12]
    4378:	608a      	str	r2, [r1, #8]
    437a:	f7fe fd4d 	bl	2e18 <onoff_request>
		__ASSERT_NO_MSG(err >= 0);
    437e:	2800      	cmp	r0, #0
    4380:	da0b      	bge.n	439a <z_nrf_clock_control_lf_on+0x4a>
    4382:	4941      	ldr	r1, [pc, #260]	; (4488 <z_nrf_clock_control_lf_on+0x138>)
    4384:	4841      	ldr	r0, [pc, #260]	; (448c <z_nrf_clock_control_lf_on+0x13c>)
    4386:	4a42      	ldr	r2, [pc, #264]	; (4490 <z_nrf_clock_control_lf_on+0x140>)
    4388:	f44f 7308 	mov.w	r3, #544	; 0x220
    438c:	f005 fd57 	bl	9e3e <printk>
    4390:	483f      	ldr	r0, [pc, #252]	; (4490 <z_nrf_clock_control_lf_on+0x140>)
    4392:	f44f 7108 	mov.w	r1, #544	; 0x220
    4396:	f005 fc4f 	bl	9c38 <assert_post_action>
	switch (start_mode) {
    439a:	b3ad      	cbz	r5, 4408 <z_nrf_clock_control_lf_on+0xb8>
    439c:	1e6b      	subs	r3, r5, #1
    439e:	2b01      	cmp	r3, #1
    43a0:	d856      	bhi.n	4450 <z_nrf_clock_control_lf_on+0x100>
	if ((mode == CLOCK_CONTROL_NRF_LF_START_AVAILABLE) &&
    43a2:	2d01      	cmp	r5, #1
    43a4:	d107      	bne.n	43b6 <z_nrf_clock_control_lf_on+0x66>
    return clk_src;
}

NRF_STATIC_INLINE nrf_clock_lfclk_t nrf_clock_lf_srccopy_get(NRF_CLOCK_Type const * p_reg)
{
    return (nrf_clock_lfclk_t)((p_reg->LFCLKSRCCOPY & CLOCK_LFCLKSRCCOPY_SRC_Msk)
    43a6:	f04f 4380 	mov.w	r3, #1073741824	; 0x40000000
    43aa:	f8d3 341c 	ldr.w	r3, [r3, #1052]	; 0x41c
    43ae:	f003 0303 	and.w	r3, r3, #3
	    (target_type == NRF_CLOCK_LFCLK_Xtal) &&
    43b2:	2b01      	cmp	r3, #1
    43b4:	d028      	beq.n	4408 <z_nrf_clock_control_lf_on+0xb8>
	bool isr_mode = k_is_in_isr() || k_is_pre_kernel();
    43b6:	f006 fc5b 	bl	ac70 <k_is_in_isr>
    43ba:	4604      	mov	r4, r0
    43bc:	b918      	cbnz	r0, 43c6 <z_nrf_clock_control_lf_on+0x76>
	return !z_sys_post_kernel;
    43be:	4b35      	ldr	r3, [pc, #212]	; (4494 <z_nrf_clock_control_lf_on+0x144>)
	int key = isr_mode ? irq_lock() : 0;
    43c0:	781b      	ldrb	r3, [r3, #0]
    43c2:	2b00      	cmp	r3, #0
    43c4:	d152      	bne.n	446c <z_nrf_clock_control_lf_on+0x11c>
	__asm__ volatile(
    43c6:	f04f 0320 	mov.w	r3, #32
    43ca:	f3ef 8611 	mrs	r6, BASEPRI
    43ce:	f383 8812 	msr	BASEPRI_MAX, r3
    43d2:	f3bf 8f6f 	isb	sy
    43d6:	2401      	movs	r4, #1
    return (bool)*((volatile uint32_t *)((uint8_t *)p_reg + event));
    43d8:	4f2f      	ldr	r7, [pc, #188]	; (4498 <z_nrf_clock_control_lf_on+0x148>)
    NVIC->ICPR[(((uint32_t)IRQn) >> 5UL)] = (uint32_t)(1UL << (((uint32_t)IRQn) & 0x1FUL));
    43da:	f8df 80c4 	ldr.w	r8, [pc, #196]	; 44a0 <z_nrf_clock_control_lf_on+0x150>
    *((volatile uint32_t *)((uint8_t *)p_reg + (uint32_t)task)) = 0x1UL;
    43de:	f8df 90c4 	ldr.w	r9, [pc, #196]	; 44a4 <z_nrf_clock_control_lf_on+0x154>
                    (nrf_clock_lfclk_t)((p_reg->LFCLKSTAT & CLOCK_LFCLKSTAT_SRC_Msk)
    43e2:	f04f 4280 	mov.w	r2, #1073741824	; 0x40000000
    43e6:	f8d2 3418 	ldr.w	r3, [r2, #1048]	; 0x418
            if ((p_reg->LFCLKSTAT & CLOCK_LFCLKSTAT_STATE_Msk)
    43ea:	f8d2 2418 	ldr.w	r2, [r2, #1048]	; 0x418
    43ee:	03d2      	lsls	r2, r2, #15
    43f0:	d50c      	bpl.n	440c <z_nrf_clock_control_lf_on+0xbc>
                                        >> CLOCK_LFCLKSTAT_SRC_Pos);
    43f2:	f003 0303 	and.w	r3, r3, #3
	while (!(nrfx_clock_is_running(d, (void *)&type)
    43f6:	2b01      	cmp	r3, #1
    43f8:	d001      	beq.n	43fe <z_nrf_clock_control_lf_on+0xae>
		     || (mode == CLOCK_CONTROL_NRF_LF_START_AVAILABLE)))) {
    43fa:	2d01      	cmp	r5, #1
    43fc:	d106      	bne.n	440c <z_nrf_clock_control_lf_on+0xbc>
	if (isr_mode) {
    43fe:	b30c      	cbz	r4, 4444 <z_nrf_clock_control_lf_on+0xf4>
	__asm__ volatile(
    4400:	f386 8811 	msr	BASEPRI, r6
    4404:	f3bf 8f6f 	isb	sy
}
    4408:	e8bd 83f8 	ldmia.w	sp!, {r3, r4, r5, r6, r7, r8, r9, pc}
			if (isr_mode || !IS_ENABLED(CONFIG_MULTITHREADING)) {
    440c:	b1ac      	cbz	r4, 443a <z_nrf_clock_control_lf_on+0xea>
 *
 * @return N/A
 */
static inline void k_cpu_atomic_idle(unsigned int key)
{
	arch_cpu_atomic_idle(key);
    440e:	4630      	mov	r0, r6
    4410:	f7fe ff44 	bl	329c <arch_cpu_atomic_idle>
    return (nrf_clock_lfclk_t)(p_reg->LFCLKSRC);
    4414:	f04f 4280 	mov.w	r2, #1073741824	; 0x40000000
    4418:	f8d2 3518 	ldr.w	r3, [r2, #1304]	; 0x518
		if ((target_type ==  NRF_CLOCK_LFCLK_Xtal)
    441c:	2b00      	cmp	r3, #0
    441e:	d1e0      	bne.n	43e2 <z_nrf_clock_control_lf_on+0x92>
    return (bool)*((volatile uint32_t *)((uint8_t *)p_reg + event));
    4420:	6839      	ldr	r1, [r7, #0]
		    && nrf_clock_event_check(NRF_CLOCK,
    4422:	2900      	cmp	r1, #0
    4424:	d0dd      	beq.n	43e2 <z_nrf_clock_control_lf_on+0x92>
    *((volatile uint32_t *)((uint8_t *)p_reg + (uint32_t)event)) = 0x0UL;
    4426:	603b      	str	r3, [r7, #0]
    4428:	683b      	ldr	r3, [r7, #0]
    p_reg->LFCLKSRC = (uint32_t)(source);
    442a:	2301      	movs	r3, #1
    442c:	f8c2 3518 	str.w	r3, [r2, #1304]	; 0x518
    4430:	f8c8 3180 	str.w	r3, [r8, #384]	; 0x180
    *((volatile uint32_t *)((uint8_t *)p_reg + (uint32_t)task)) = 0x1UL;
    4434:	f8c9 3000 	str.w	r3, [r9]
}
    4438:	e7d3      	b.n	43e2 <z_nrf_clock_control_lf_on+0x92>
	return z_impl_k_sleep(timeout);
    443a:	2100      	movs	r1, #0
    443c:	2021      	movs	r0, #33	; 0x21
    443e:	f003 ff7d 	bl	833c <z_impl_k_sleep>
	return k_sleep(Z_TIMEOUT_MS(ms));
    4442:	e7e7      	b.n	4414 <z_nrf_clock_control_lf_on+0xc4>
    p_reg->INTENSET = mask;
    4444:	f04f 4380 	mov.w	r3, #1073741824	; 0x40000000
    4448:	2202      	movs	r2, #2
    444a:	f8c3 2304 	str.w	r2, [r3, #772]	; 0x304
}
    444e:	e7db      	b.n	4408 <z_nrf_clock_control_lf_on+0xb8>
		__ASSERT_NO_MSG(false);
    4450:	4912      	ldr	r1, [pc, #72]	; (449c <z_nrf_clock_control_lf_on+0x14c>)
    4452:	480e      	ldr	r0, [pc, #56]	; (448c <z_nrf_clock_control_lf_on+0x13c>)
    4454:	4a0e      	ldr	r2, [pc, #56]	; (4490 <z_nrf_clock_control_lf_on+0x140>)
    4456:	f240 2332 	movw	r3, #562	; 0x232
    445a:	f005 fcf0 	bl	9e3e <printk>
}
    445e:	e8bd 43f8 	ldmia.w	sp!, {r3, r4, r5, r6, r7, r8, r9, lr}
		__ASSERT_NO_MSG(false);
    4462:	480b      	ldr	r0, [pc, #44]	; (4490 <z_nrf_clock_control_lf_on+0x140>)
    4464:	f240 2132 	movw	r1, #562	; 0x232
    4468:	f005 bbe6 	b.w	9c38 <assert_post_action>
    p_reg->INTENCLR = mask;
    446c:	f04f 4380 	mov.w	r3, #1073741824	; 0x40000000
    4470:	2202      	movs	r2, #2
    4472:	f8c3 2308 	str.w	r2, [r3, #776]	; 0x308
	int key = isr_mode ? irq_lock() : 0;
    4476:	4606      	mov	r6, r0
}
    4478:	e7ae      	b.n	43d8 <z_nrf_clock_control_lf_on+0x88>
    447a:	bf00      	nop
    447c:	20000dfc 	.word	0x20000dfc
    4480:	20000d90 	.word	0x20000d90
    4484:	20000dc0 	.word	0x20000dc0
    4488:	0000bec6 	.word	0x0000bec6
    448c:	0000b2d3 	.word	0x0000b2d3
    4490:	0000be65 	.word	0x0000be65
    4494:	2000115e 	.word	0x2000115e
    4498:	40000104 	.word	0x40000104
    449c:	0000b2d1 	.word	0x0000b2d1
    44a0:	e000e100 	.word	0xe000e100
    44a4:	40000008 	.word	0x40000008

000044a8 <console_out>:

static int console_out(int c)
{
#ifdef CONFIG_UART_CONSOLE_DEBUG_SERVER_HOOKS

	int handled_by_debug_server = HANDLE_DEBUG_HOOK_OUT(c);
    44a8:	4b0a      	ldr	r3, [pc, #40]	; (44d4 <console_out+0x2c>)
{
    44aa:	b570      	push	{r4, r5, r6, lr}
	int handled_by_debug_server = HANDLE_DEBUG_HOOK_OUT(c);
    44ac:	b2c6      	uxtb	r6, r0
    44ae:	681b      	ldr	r3, [r3, #0]
{
    44b0:	4604      	mov	r4, r0
	int handled_by_debug_server = HANDLE_DEBUG_HOOK_OUT(c);
    44b2:	4630      	mov	r0, r6
    44b4:	4798      	blx	r3

	if (handled_by_debug_server) {
    44b6:	2801      	cmp	r0, #1
    44b8:	d00a      	beq.n	44d0 <console_out+0x28>
		return c;
	}

#endif  /* CONFIG_UART_CONSOLE_DEBUG_SERVER_HOOKS */

	if ('\n' == c) {
    44ba:	2c0a      	cmp	r4, #10
    44bc:	4d06      	ldr	r5, [pc, #24]	; (44d8 <console_out+0x30>)
    44be:	d103      	bne.n	44c8 <console_out+0x20>
		uart_poll_out(uart_console_dev, '\r');
    44c0:	6828      	ldr	r0, [r5, #0]
    44c2:	210d      	movs	r1, #13
    44c4:	f005 ff4b 	bl	a35e <uart_poll_out>
	}
	uart_poll_out(uart_console_dev, c);
    44c8:	6828      	ldr	r0, [r5, #0]
    44ca:	4631      	mov	r1, r6
    44cc:	f005 ff47 	bl	a35e <uart_poll_out>

	return c;
}
    44d0:	4620      	mov	r0, r4
    44d2:	bd70      	pop	{r4, r5, r6, pc}
    44d4:	200000e0 	.word	0x200000e0
    44d8:	20000e00 	.word	0x20000e00

000044dc <uart_console_init>:
 * @brief Initialize one UART as the console/debug port
 *
 * @return 0 if successful, otherwise failed.
 */
static int uart_console_init(const struct device *arg)
{
    44dc:	b508      	push	{r3, lr}

	ARG_UNUSED(arg);

	/* Claim console device */
	uart_console_dev = DEVICE_DT_GET(DT_CHOSEN(zephyr_console));
    44de:	4b08      	ldr	r3, [pc, #32]	; (4500 <uart_console_init+0x24>)
    44e0:	4808      	ldr	r0, [pc, #32]	; (4504 <uart_console_init+0x28>)
    44e2:	6018      	str	r0, [r3, #0]
    44e4:	f006 fb52 	bl	ab8c <z_device_ready>
    44e8:	b138      	cbz	r0, 44fa <uart_console_init+0x1e>
	__stdout_hook_install(console_out);
    44ea:	4807      	ldr	r0, [pc, #28]	; (4508 <uart_console_init+0x2c>)
    44ec:	f7ff fb34 	bl	3b58 <__stdout_hook_install>
	__printk_hook_install(console_out);
    44f0:	4805      	ldr	r0, [pc, #20]	; (4508 <uart_console_init+0x2c>)
    44f2:	f7fe fe77 	bl	31e4 <__printk_hook_install>
		return -ENODEV;
	}

	uart_console_hook_install();

	return 0;
    44f6:	2000      	movs	r0, #0
}
    44f8:	bd08      	pop	{r3, pc}
		return -ENODEV;
    44fa:	f06f 0012 	mvn.w	r0, #18
    44fe:	e7fb      	b.n	44f8 <uart_console_init+0x1c>
    4500:	20000e00 	.word	0x20000e00
    4504:	0000adf0 	.word	0x0000adf0
    4508:	000044a9 	.word	0x000044a9

0000450c <gpio_nrfx_manage_callback>:
}

static int gpio_nrfx_manage_callback(const struct device *port,
				     struct gpio_callback *callback,
				     bool set)
{
    450c:	b570      	push	{r4, r5, r6, lr}
	return gpio_manage_callback(&get_port_data(port)->callbacks,
    450e:	6905      	ldr	r5, [r0, #16]
{
    4510:	4616      	mov	r6, r2
 */
static inline int gpio_manage_callback(sys_slist_t *callbacks,
					struct gpio_callback *callback,
					bool set)
{
	__ASSERT(callback, "No callback!");
    4512:	460c      	mov	r4, r1
    4514:	b961      	cbnz	r1, 4530 <gpio_nrfx_manage_callback+0x24>
    4516:	4922      	ldr	r1, [pc, #136]	; (45a0 <gpio_nrfx_manage_callback+0x94>)
    4518:	4a22      	ldr	r2, [pc, #136]	; (45a4 <gpio_nrfx_manage_callback+0x98>)
    451a:	4823      	ldr	r0, [pc, #140]	; (45a8 <gpio_nrfx_manage_callback+0x9c>)
    451c:	2324      	movs	r3, #36	; 0x24
    451e:	f005 fc8e 	bl	9e3e <printk>
    4522:	4822      	ldr	r0, [pc, #136]	; (45ac <gpio_nrfx_manage_callback+0xa0>)
    4524:	f005 fc8b 	bl	9e3e <printk>
    4528:	481e      	ldr	r0, [pc, #120]	; (45a4 <gpio_nrfx_manage_callback+0x98>)
    452a:	2124      	movs	r1, #36	; 0x24
    452c:	f005 fb84 	bl	9c38 <assert_post_action>
	__ASSERT(callback->handler, "No callback handler!");
    4530:	6863      	ldr	r3, [r4, #4]
    4532:	b963      	cbnz	r3, 454e <gpio_nrfx_manage_callback+0x42>
    4534:	491e      	ldr	r1, [pc, #120]	; (45b0 <gpio_nrfx_manage_callback+0xa4>)
    4536:	4a1b      	ldr	r2, [pc, #108]	; (45a4 <gpio_nrfx_manage_callback+0x98>)
    4538:	481b      	ldr	r0, [pc, #108]	; (45a8 <gpio_nrfx_manage_callback+0x9c>)
    453a:	2325      	movs	r3, #37	; 0x25
    453c:	f005 fc7f 	bl	9e3e <printk>
    4540:	481c      	ldr	r0, [pc, #112]	; (45b4 <gpio_nrfx_manage_callback+0xa8>)
    4542:	f005 fc7c 	bl	9e3e <printk>
    4546:	4817      	ldr	r0, [pc, #92]	; (45a4 <gpio_nrfx_manage_callback+0x98>)
    4548:	2125      	movs	r1, #37	; 0x25
    454a:	f005 fb75 	bl	9c38 <assert_post_action>
Z_GENLIST_IS_EMPTY(slist)
    454e:	686b      	ldr	r3, [r5, #4]

	if (!sys_slist_is_empty(callbacks)) {
    4550:	b15b      	cbz	r3, 456a <gpio_nrfx_manage_callback+0x5e>
 */
static inline bool sys_slist_find_and_remove(sys_slist_t *list,
					     sys_snode_t *node);

/** @} */
Z_GENLIST_FIND_AND_REMOVE(slist, snode)
    4552:	2200      	movs	r2, #0
    4554:	429c      	cmp	r4, r3
    4556:	d113      	bne.n	4580 <gpio_nrfx_manage_callback+0x74>
Z_GENLIST_REMOVE(slist, snode)
    4558:	6823      	ldr	r3, [r4, #0]
    455a:	b95a      	cbnz	r2, 4574 <gpio_nrfx_manage_callback+0x68>
    455c:	68aa      	ldr	r2, [r5, #8]
	list->head = node;
    455e:	606b      	str	r3, [r5, #4]
Z_GENLIST_REMOVE(slist, snode)
    4560:	4294      	cmp	r4, r2
    4562:	d100      	bne.n	4566 <gpio_nrfx_manage_callback+0x5a>
	list->tail = node;
    4564:	60ab      	str	r3, [r5, #8]
	parent->next = child;
    4566:	2300      	movs	r3, #0
    4568:	6023      	str	r3, [r4, #0]
				return -EINVAL;
			}
		}
	}

	if (set) {
    456a:	b976      	cbnz	r6, 458a <gpio_nrfx_manage_callback+0x7e>
		sys_slist_prepend(callbacks, &callback->node);
	}

	return 0;
    456c:	2000      	movs	r0, #0
				     callback, set);
}
    456e:	bd70      	pop	{r4, r5, r6, pc}
    4570:	460b      	mov	r3, r1
    4572:	e7ef      	b.n	4554 <gpio_nrfx_manage_callback+0x48>
    4574:	6013      	str	r3, [r2, #0]
Z_GENLIST_REMOVE(slist, snode)
    4576:	68ab      	ldr	r3, [r5, #8]
    4578:	429c      	cmp	r4, r3
	list->tail = node;
    457a:	bf08      	it	eq
    457c:	60aa      	streq	r2, [r5, #8]
}
    457e:	e7f2      	b.n	4566 <gpio_nrfx_manage_callback+0x5a>
Z_GENLIST_PEEK_NEXT_NO_CHECK(slist, snode)
    4580:	6819      	ldr	r1, [r3, #0]
Z_GENLIST_FIND_AND_REMOVE(slist, snode)
    4582:	461a      	mov	r2, r3
    4584:	2900      	cmp	r1, #0
    4586:	d1f3      	bne.n	4570 <gpio_nrfx_manage_callback+0x64>
			if (!set) {
    4588:	b13e      	cbz	r6, 459a <gpio_nrfx_manage_callback+0x8e>
Z_GENLIST_PREPEND(slist, snode)
    458a:	686b      	ldr	r3, [r5, #4]
	parent->next = child;
    458c:	6023      	str	r3, [r4, #0]
Z_GENLIST_PREPEND(slist, snode)
    458e:	68a8      	ldr	r0, [r5, #8]
	list->head = node;
    4590:	606c      	str	r4, [r5, #4]
Z_GENLIST_PREPEND(slist, snode)
    4592:	2800      	cmp	r0, #0
    4594:	d1ea      	bne.n	456c <gpio_nrfx_manage_callback+0x60>
	list->tail = node;
    4596:	60ac      	str	r4, [r5, #8]
}
    4598:	e7e9      	b.n	456e <gpio_nrfx_manage_callback+0x62>
				return -EINVAL;
    459a:	f06f 0015 	mvn.w	r0, #21
	return gpio_manage_callback(&get_port_data(port)->callbacks,
    459e:	e7e6      	b.n	456e <gpio_nrfx_manage_callback+0x62>
    45a0:	0000bf02 	.word	0x0000bf02
    45a4:	0000bed5 	.word	0x0000bed5
    45a8:	0000b2d3 	.word	0x0000b2d3
    45ac:	0000bf0b 	.word	0x0000bf0b
    45b0:	0000bf1a 	.word	0x0000bf1a
    45b4:	0000bf2c 	.word	0x0000bf2c

000045b8 <nrfx_gpio_handler>:
			dev = DEVICE_DT_INST_GET(i); \
		}

	if (0) {
	} /* Followed by else if from FOREACH macro. Done to avoid return statement in macro.  */
	DT_INST_FOREACH_STATUS_OKAY(GPIO_NRF_GET_DEV)
    45b8:	0943      	lsrs	r3, r0, #5
}

static void nrfx_gpio_handler(nrfx_gpiote_pin_t abs_pin,
			      nrfx_gpiote_trigger_t trigger,
			      void *context)
{
    45ba:	e92d 47f0 	stmdb	sp!, {r4, r5, r6, r7, r8, r9, sl, lr}
	DT_INST_FOREACH_STATUS_OKAY(GPIO_NRF_GET_DEV)
    45be:	d003      	beq.n	45c8 <nrfx_gpio_handler+0x10>
    45c0:	2b01      	cmp	r3, #1
    45c2:	d036      	beq.n	4632 <nrfx_gpio_handler+0x7a>

	struct gpio_nrfx_data *data = get_port_data(port);
	sys_slist_t *list = &data->callbacks;

	gpio_fire_callbacks(list, port, BIT(pin));
}
    45c4:	e8bd 87f0 	ldmia.w	sp!, {r4, r5, r6, r7, r8, r9, sl, pc}
	DT_INST_FOREACH_STATUS_OKAY(GPIO_NRF_GET_DEV)
    45c8:	4f1b      	ldr	r7, [pc, #108]	; (4638 <nrfx_gpio_handler+0x80>)
					const struct device *port,
					uint32_t pins)
{
	struct gpio_callback *cb, *tmp;

	SYS_SLIST_FOR_EACH_CONTAINER_SAFE(list, cb, tmp, node) {
    45ca:	693b      	ldr	r3, [r7, #16]
    45cc:	685c      	ldr	r4, [r3, #4]
    45ce:	2c00      	cmp	r4, #0
    45d0:	d0f8      	beq.n	45c4 <nrfx_gpio_handler+0xc>
    45d2:	6825      	ldr	r5, [r4, #0]
		if (cb->pin_mask & pins) {
			__ASSERT(cb->handler, "No callback handler!");
    45d4:	f8df 806c 	ldr.w	r8, [pc, #108]	; 4644 <nrfx_gpio_handler+0x8c>
    45d8:	f8df 906c 	ldr.w	r9, [pc, #108]	; 4648 <nrfx_gpio_handler+0x90>
    45dc:	f8df a06c 	ldr.w	sl, [pc, #108]	; 464c <nrfx_gpio_handler+0x94>
}

NRF_STATIC_INLINE uint32_t nrf_gpio_pin_port_number_extract(uint32_t * p_pin)
{
    uint32_t pin_number = *p_pin;
    *p_pin = pin_number & 0x1F;
    45e0:	f000 001f 	and.w	r0, r0, #31
	gpio_fire_callbacks(list, port, BIT(pin));
    45e4:	2601      	movs	r6, #1
    45e6:	2d00      	cmp	r5, #0
    45e8:	fa06 f600 	lsl.w	r6, r6, r0
	return node->next;
    45ec:	bf38      	it	cc
    45ee:	2500      	movcc	r5, #0
		if (cb->pin_mask & pins) {
    45f0:	68a3      	ldr	r3, [r4, #8]
    45f2:	421e      	tst	r6, r3
    45f4:	d014      	beq.n	4620 <nrfx_gpio_handler+0x68>
			__ASSERT(cb->handler, "No callback handler!");
    45f6:	6863      	ldr	r3, [r4, #4]
    45f8:	b963      	cbnz	r3, 4614 <nrfx_gpio_handler+0x5c>
    45fa:	4649      	mov	r1, r9
    45fc:	2345      	movs	r3, #69	; 0x45
    45fe:	4642      	mov	r2, r8
    4600:	4650      	mov	r0, sl
    4602:	f005 fc1c 	bl	9e3e <printk>
    4606:	480d      	ldr	r0, [pc, #52]	; (463c <nrfx_gpio_handler+0x84>)
    4608:	f005 fc19 	bl	9e3e <printk>
    460c:	2145      	movs	r1, #69	; 0x45
    460e:	4640      	mov	r0, r8
    4610:	f005 fb12 	bl	9c38 <assert_post_action>
			cb->handler(port, cb, cb->pin_mask & pins);
    4614:	e9d4 3201 	ldrd	r3, r2, [r4, #4]
    4618:	4621      	mov	r1, r4
    461a:	4032      	ands	r2, r6
    461c:	4638      	mov	r0, r7
    461e:	4798      	blx	r3
	SYS_SLIST_FOR_EACH_CONTAINER_SAFE(list, cb, tmp, node) {
    4620:	2d00      	cmp	r5, #0
    4622:	d0cf      	beq.n	45c4 <nrfx_gpio_handler+0xc>
    4624:	682b      	ldr	r3, [r5, #0]
    4626:	2b00      	cmp	r3, #0
    4628:	bf38      	it	cc
    462a:	2300      	movcc	r3, #0
Z_GENLIST_PEEK_NEXT_NO_CHECK(slist, snode)
    462c:	462c      	mov	r4, r5
    462e:	461d      	mov	r5, r3
    4630:	e7de      	b.n	45f0 <nrfx_gpio_handler+0x38>
	DT_INST_FOREACH_STATUS_OKAY(GPIO_NRF_GET_DEV)
    4632:	4f03      	ldr	r7, [pc, #12]	; (4640 <nrfx_gpio_handler+0x88>)
    4634:	e7c9      	b.n	45ca <nrfx_gpio_handler+0x12>
    4636:	bf00      	nop
    4638:	0000ada8 	.word	0x0000ada8
    463c:	0000bf2c 	.word	0x0000bf2c
    4640:	0000adc0 	.word	0x0000adc0
    4644:	0000bed5 	.word	0x0000bed5
    4648:	0000bf43 	.word	0x0000bf43
    464c:	0000b2d3 	.word	0x0000b2d3

00004650 <gpio_nrfx_pin_interrupt_configure>:
{
    4650:	b57f      	push	{r0, r1, r2, r3, r4, r5, r6, lr}
	uint32_t abs_pin = NRF_GPIO_PIN_MAP(get_port_cfg(port)->port_num, pin);
    4652:	6840      	ldr	r0, [r0, #4]
    4654:	7b05      	ldrb	r5, [r0, #12]
    4656:	f001 041f 	and.w	r4, r1, #31
	if (mode == GPIO_INT_MODE_DISABLED) {
    465a:	f5b2 5f00 	cmp.w	r2, #8192	; 0x2000
	uint32_t abs_pin = NRF_GPIO_PIN_MAP(get_port_cfg(port)->port_num, pin);
    465e:	ea44 1445 	orr.w	r4, r4, r5, lsl #5
	if (mode == GPIO_INT_MODE_DISABLED) {
    4662:	f04f 0500 	mov.w	r5, #0
    4666:	d104      	bne.n	4672 <gpio_nrfx_pin_interrupt_configure+0x22>
		nrfx_gpiote_trigger_disable(abs_pin);
    4668:	4620      	mov	r0, r4
    466a:	f001 fbfb 	bl	5e64 <nrfx_gpiote_trigger_disable>
	return 0;
    466e:	2000      	movs	r0, #0
    4670:	e054      	b.n	471c <gpio_nrfx_pin_interrupt_configure+0xcc>
	if (mode == GPIO_INT_MODE_LEVEL) {
    4672:	f5b2 4f80 	cmp.w	r2, #16384	; 0x4000
	nrfx_gpiote_trigger_config_t trigger_config = {
    4676:	e9cd 5502 	strd	r5, r5, [sp, #8]
	if (mode == GPIO_INT_MODE_LEVEL) {
    467a:	d151      	bne.n	4720 <gpio_nrfx_pin_interrupt_configure+0xd0>
		return trig == GPIO_INT_TRIG_LOW ? NRFX_GPIOTE_TRIGGER_LOW :
    467c:	f5b3 3f00 	cmp.w	r3, #131072	; 0x20000
    4680:	bf0c      	ite	eq
    4682:	2304      	moveq	r3, #4
    4684:	2305      	movne	r3, #5
	nrfx_gpiote_trigger_config_t trigger_config = {
    4686:	f88d 3008 	strb.w	r3, [sp, #8]
	if (!(BIT(pin) & get_port_cfg(port)->edge_sense) &&
    468a:	6883      	ldr	r3, [r0, #8]
    468c:	fa23 f101 	lsr.w	r1, r3, r1
    4690:	f011 0101 	ands.w	r1, r1, #1
    4694:	d155      	bne.n	4742 <gpio_nrfx_pin_interrupt_configure+0xf2>
    4696:	f5b2 3fa0 	cmp.w	r2, #81920	; 0x14000
    469a:	d152      	bne.n	4742 <gpio_nrfx_pin_interrupt_configure+0xf2>
    switch (port)
    469c:	0966      	lsrs	r6, r4, #5
    469e:	d04a      	beq.n	4736 <gpio_nrfx_pin_interrupt_configure+0xe6>
            mask = P1_FEATURE_PINS_PRESENT;
    46a0:	f64f 73ff 	movw	r3, #65535	; 0xffff
    46a4:	2e01      	cmp	r6, #1
    46a6:	bf08      	it	eq
    46a8:	4619      	moveq	r1, r3
    pin_number &= 0x1F;
    46aa:	f004 051f 	and.w	r5, r4, #31
    return (mask & (1UL << pin_number)) ? true : false;
    46ae:	40e9      	lsrs	r1, r5
    NRFX_ASSERT(nrf_gpio_pin_present_check(*p_pin));
    46b0:	07ca      	lsls	r2, r1, #31
    46b2:	d40b      	bmi.n	46cc <gpio_nrfx_pin_interrupt_configure+0x7c>
    46b4:	492b      	ldr	r1, [pc, #172]	; (4764 <gpio_nrfx_pin_interrupt_configure+0x114>)
    46b6:	482c      	ldr	r0, [pc, #176]	; (4768 <gpio_nrfx_pin_interrupt_configure+0x118>)
    46b8:	4a2c      	ldr	r2, [pc, #176]	; (476c <gpio_nrfx_pin_interrupt_configure+0x11c>)
    46ba:	f240 2329 	movw	r3, #553	; 0x229
    46be:	f005 fbbe 	bl	9e3e <printk>
    46c2:	482a      	ldr	r0, [pc, #168]	; (476c <gpio_nrfx_pin_interrupt_configure+0x11c>)
    46c4:	f240 2129 	movw	r1, #553	; 0x229
    46c8:	f005 fab6 	bl	9c38 <assert_post_action>
    switch (nrf_gpio_pin_port_number_extract(p_pin))
    46cc:	b16e      	cbz	r6, 46ea <gpio_nrfx_pin_interrupt_configure+0x9a>
    46ce:	2e01      	cmp	r6, #1
    46d0:	d034      	beq.n	473c <gpio_nrfx_pin_interrupt_configure+0xec>
            NRFX_ASSERT(0);
    46d2:	4927      	ldr	r1, [pc, #156]	; (4770 <gpio_nrfx_pin_interrupt_configure+0x120>)
    46d4:	4824      	ldr	r0, [pc, #144]	; (4768 <gpio_nrfx_pin_interrupt_configure+0x118>)
    46d6:	4a25      	ldr	r2, [pc, #148]	; (476c <gpio_nrfx_pin_interrupt_configure+0x11c>)
    46d8:	f240 232e 	movw	r3, #558	; 0x22e
    46dc:	f005 fbaf 	bl	9e3e <printk>
    46e0:	4822      	ldr	r0, [pc, #136]	; (476c <gpio_nrfx_pin_interrupt_configure+0x11c>)
    46e2:	f240 212e 	movw	r1, #558	; 0x22e
    46e6:	f005 faa7 	bl	9c38 <assert_post_action>
        case 0: return NRF_P0;
    46ea:	f04f 43a0 	mov.w	r3, #1342177280	; 0x50000000
    return (nrf_gpio_pin_dir_t)((reg->PIN_CNF[pin_number] &
    46ee:	f505 75e0 	add.w	r5, r5, #448	; 0x1c0
    46f2:	f853 3025 	ldr.w	r3, [r3, r5, lsl #2]
	    (mode == GPIO_INT_MODE_EDGE) &&
    46f6:	07db      	lsls	r3, r3, #31
    46f8:	d423      	bmi.n	4742 <gpio_nrfx_pin_interrupt_configure+0xf2>
		err = nrfx_gpiote_channel_get(abs_pin, &ch);
    46fa:	f10d 0507 	add.w	r5, sp, #7
    46fe:	4629      	mov	r1, r5
    4700:	4620      	mov	r0, r4
    4702:	f001 fad9 	bl	5cb8 <nrfx_gpiote_channel_get>
		if (err == NRFX_ERROR_INVALID_PARAM) {
    4706:	4b1b      	ldr	r3, [pc, #108]	; (4774 <gpio_nrfx_pin_interrupt_configure+0x124>)
    4708:	4298      	cmp	r0, r3
    470a:	d119      	bne.n	4740 <gpio_nrfx_pin_interrupt_configure+0xf0>
			err = nrfx_gpiote_channel_alloc(&ch);
    470c:	4628      	mov	r0, r5
    470e:	f001 fb33 	bl	5d78 <nrfx_gpiote_channel_alloc>
			if (err != NRFX_SUCCESS) {
    4712:	4b19      	ldr	r3, [pc, #100]	; (4778 <gpio_nrfx_pin_interrupt_configure+0x128>)
    4714:	4298      	cmp	r0, r3
    4716:	d013      	beq.n	4740 <gpio_nrfx_pin_interrupt_configure+0xf0>
				return -ENOMEM;
    4718:	f06f 000b 	mvn.w	r0, #11
}
    471c:	b004      	add	sp, #16
    471e:	bd70      	pop	{r4, r5, r6, pc}
	return trig == GPIO_INT_TRIG_BOTH ? NRFX_GPIOTE_TRIGGER_TOGGLE :
    4720:	f5b3 2fc0 	cmp.w	r3, #393216	; 0x60000
    4724:	d005      	beq.n	4732 <gpio_nrfx_pin_interrupt_configure+0xe2>
    4726:	f5b3 3f00 	cmp.w	r3, #131072	; 0x20000
    472a:	bf0c      	ite	eq
    472c:	2302      	moveq	r3, #2
    472e:	2301      	movne	r3, #1
    4730:	e7a9      	b.n	4686 <gpio_nrfx_pin_interrupt_configure+0x36>
    4732:	2303      	movs	r3, #3
    4734:	e7a7      	b.n	4686 <gpio_nrfx_pin_interrupt_configure+0x36>
            mask = P0_FEATURE_PINS_PRESENT;
    4736:	f04f 31ff 	mov.w	r1, #4294967295
    473a:	e7b6      	b.n	46aa <gpio_nrfx_pin_interrupt_configure+0x5a>
    switch (nrf_gpio_pin_port_number_extract(p_pin))
    473c:	4b0f      	ldr	r3, [pc, #60]	; (477c <gpio_nrfx_pin_interrupt_configure+0x12c>)
    473e:	e7d6      	b.n	46ee <gpio_nrfx_pin_interrupt_configure+0x9e>
		trigger_config.p_in_channel = &ch;
    4740:	9503      	str	r5, [sp, #12]
	err = nrfx_gpiote_input_configure(abs_pin, NULL, &trigger_config, NULL);
    4742:	2300      	movs	r3, #0
    4744:	4619      	mov	r1, r3
    4746:	aa02      	add	r2, sp, #8
    4748:	4620      	mov	r0, r4
    474a:	f001 f997 	bl	5a7c <nrfx_gpiote_input_configure>
	if (err != NRFX_SUCCESS) {
    474e:	4b0a      	ldr	r3, [pc, #40]	; (4778 <gpio_nrfx_pin_interrupt_configure+0x128>)
    4750:	4298      	cmp	r0, r3
    4752:	d104      	bne.n	475e <gpio_nrfx_pin_interrupt_configure+0x10e>
	nrfx_gpiote_trigger_enable(abs_pin, true);
    4754:	2101      	movs	r1, #1
    4756:	4620      	mov	r0, r4
    4758:	f001 fb14 	bl	5d84 <nrfx_gpiote_trigger_enable>
    475c:	e787      	b.n	466e <gpio_nrfx_pin_interrupt_configure+0x1e>
		return -EIO;
    475e:	f06f 0004 	mvn.w	r0, #4
    4762:	e7db      	b.n	471c <gpio_nrfx_pin_interrupt_configure+0xcc>
    4764:	0000bf82 	.word	0x0000bf82
    4768:	0000b2d3 	.word	0x0000b2d3
    476c:	0000bf4f 	.word	0x0000bf4f
    4770:	0000b2d1 	.word	0x0000b2d1
    4774:	0bad0004 	.word	0x0bad0004
    4778:	0bad0000 	.word	0x0bad0000
    477c:	50000300 	.word	0x50000300

00004780 <gpio_nrfx_init>:

#define GPIOTE_NODE DT_INST(0, nordic_nrf_gpiote)

static int gpio_nrfx_init(const struct device *port)
{
    4780:	b510      	push	{r4, lr}
	nrfx_err_t err;

	if (nrfx_gpiote_is_init()) {
    4782:	f001 fae9 	bl	5d58 <nrfx_gpiote_is_init>
    4786:	4604      	mov	r4, r0
    4788:	b968      	cbnz	r0, 47a6 <gpio_nrfx_init+0x26>
		return 0;
	}

	err = nrfx_gpiote_init(0/*not used*/);
    478a:	f001 fabd 	bl	5d08 <nrfx_gpiote_init>
	if (err != NRFX_SUCCESS) {
    478e:	4b08      	ldr	r3, [pc, #32]	; (47b0 <gpio_nrfx_init+0x30>)
    4790:	4298      	cmp	r0, r3
    4792:	d10a      	bne.n	47aa <gpio_nrfx_init+0x2a>
		return -EIO;
	}

	nrfx_gpiote_global_callback_set(nrfx_gpio_handler, NULL);
    4794:	4807      	ldr	r0, [pc, #28]	; (47b4 <gpio_nrfx_init+0x34>)
    4796:	4621      	mov	r1, r4
    4798:	f001 fa88 	bl	5cac <nrfx_gpiote_global_callback_set>

	IRQ_CONNECT(DT_IRQN(GPIOTE_NODE), DT_IRQ(GPIOTE_NODE, priority),
    479c:	4622      	mov	r2, r4
    479e:	2105      	movs	r1, #5
    47a0:	2006      	movs	r0, #6
    47a2:	f7fe fe01 	bl	33a8 <z_arm_irq_priority_set>
		return 0;
    47a6:	2000      	movs	r0, #0
		    nrfx_isr, nrfx_gpiote_irq_handler, 0);

	return 0;
}
    47a8:	bd10      	pop	{r4, pc}
		return -EIO;
    47aa:	f06f 0004 	mvn.w	r0, #4
    47ae:	e7fb      	b.n	47a8 <gpio_nrfx_init+0x28>
    47b0:	0bad0000 	.word	0x0bad0000
    47b4:	000045b9 	.word	0x000045b9

000047b8 <gpio_nrfx_pin_configure>:
{
    47b8:	e92d 43f0 	stmdb	sp!, {r4, r5, r6, r7, r8, r9, lr}
	const struct gpio_nrfx_cfg *cfg = get_port_cfg(port);
    47bc:	6847      	ldr	r7, [r0, #4]
	nrfx_gpiote_pin_t abs_pin = NRF_GPIO_PIN_MAP(cfg->port_num, pin);
    47be:	7b3b      	ldrb	r3, [r7, #12]
    47c0:	f001 051f 	and.w	r5, r1, #31
{
    47c4:	b085      	sub	sp, #20
    47c6:	460e      	mov	r6, r1
	nrfx_gpiote_pin_t abs_pin = NRF_GPIO_PIN_MAP(cfg->port_num, pin);
    47c8:	ea45 1543 	orr.w	r5, r5, r3, lsl #5
	if (flags == GPIO_DISCONNECTED) {
    47cc:	4614      	mov	r4, r2
    47ce:	b9ca      	cbnz	r2, 4804 <gpio_nrfx_pin_configure+0x4c>
	err = nrfx_gpiote_channel_get(pin, &ch);
    47d0:	a902      	add	r1, sp, #8
    47d2:	4628      	mov	r0, r5
    47d4:	f001 fa70 	bl	5cb8 <nrfx_gpiote_channel_get>
    47d8:	4604      	mov	r4, r0
	err = nrfx_gpiote_pin_uninit(pin);
    47da:	4628      	mov	r0, r5
    47dc:	f001 fb64 	bl	5ea8 <nrfx_gpiote_pin_uninit>
	if (err != NRFX_SUCCESS) {
    47e0:	4b48      	ldr	r3, [pc, #288]	; (4904 <gpio_nrfx_pin_configure+0x14c>)
    47e2:	4298      	cmp	r0, r3
    47e4:	d004      	beq.n	47f0 <gpio_nrfx_pin_configure+0x38>
		return -EIO;
    47e6:	f06f 0004 	mvn.w	r0, #4
}
    47ea:	b005      	add	sp, #20
    47ec:	e8bd 83f0 	ldmia.w	sp!, {r4, r5, r6, r7, r8, r9, pc}
	if (free_ch) {
    47f0:	4284      	cmp	r4, r0
    47f2:	d105      	bne.n	4800 <gpio_nrfx_pin_configure+0x48>
		err = nrfx_gpiote_channel_free(ch);
    47f4:	f89d 0008 	ldrb.w	r0, [sp, #8]
    47f8:	f001 fab8 	bl	5d6c <nrfx_gpiote_channel_free>
	return (err != NRFX_SUCCESS) ? -EIO : 0;
    47fc:	42a0      	cmp	r0, r4
    47fe:	d1f2      	bne.n	47e6 <gpio_nrfx_pin_configure+0x2e>
	return (err != NRFX_SUCCESS) ? -EINVAL : 0;
    4800:	2000      	movs	r0, #0
    4802:	e7f2      	b.n	47ea <gpio_nrfx_pin_configure+0x32>
	nrfx_gpiote_trigger_config_t trigger_config = {
    4804:	f04f 0900 	mov.w	r9, #0
	err = nrfx_gpiote_channel_get(pin, &ch);
    4808:	f10d 0103 	add.w	r1, sp, #3
    480c:	4630      	mov	r0, r6
	nrfx_gpiote_trigger_config_t trigger_config = {
    480e:	e9cd 9902 	strd	r9, r9, [sp, #8]
	err = nrfx_gpiote_channel_get(pin, &ch);
    4812:	f001 fa51 	bl	5cb8 <nrfx_gpiote_channel_get>
	err = nrfx_gpiote_input_configure(abs_pin, NULL, &trigger_config, NULL);
    4816:	464b      	mov	r3, r9
	err = nrfx_gpiote_channel_get(pin, &ch);
    4818:	4680      	mov	r8, r0
	err = nrfx_gpiote_input_configure(abs_pin, NULL, &trigger_config, NULL);
    481a:	aa02      	add	r2, sp, #8
    481c:	4649      	mov	r1, r9
    481e:	4628      	mov	r0, r5
    4820:	f001 f92c 	bl	5a7c <nrfx_gpiote_input_configure>
	if (err != NRFX_SUCCESS) {
    4824:	4b37      	ldr	r3, [pc, #220]	; (4904 <gpio_nrfx_pin_configure+0x14c>)
    4826:	4298      	cmp	r0, r3
    4828:	d002      	beq.n	4830 <gpio_nrfx_pin_configure+0x78>
	switch (flags & (GPIO_DS_LOW_MASK | GPIO_DS_HIGH_MASK |
    482a:	f06f 0015 	mvn.w	r0, #21
    482e:	e7dc      	b.n	47ea <gpio_nrfx_pin_configure+0x32>
	if (free_ch) {
    4830:	4580      	cmp	r8, r0
    4832:	d103      	bne.n	483c <gpio_nrfx_pin_configure+0x84>
		err = nrfx_gpiote_channel_free(ch);
    4834:	f89d 0003 	ldrb.w	r0, [sp, #3]
    4838:	f001 fa98 	bl	5d6c <nrfx_gpiote_channel_free>
	if (flags & GPIO_OUTPUT) {
    483c:	05a3      	lsls	r3, r4, #22
    483e:	d54e      	bpl.n	48de <gpio_nrfx_pin_configure+0x126>
	switch (flags & (GPIO_DS_LOW_MASK | GPIO_DS_HIGH_MASK |
    4840:	4b31      	ldr	r3, [pc, #196]	; (4908 <gpio_nrfx_pin_configure+0x150>)
    4842:	4a32      	ldr	r2, [pc, #200]	; (490c <gpio_nrfx_pin_configure+0x154>)
    4844:	4023      	ands	r3, r4
    4846:	4293      	cmp	r3, r2
    4848:	d03a      	beq.n	48c0 <gpio_nrfx_pin_configure+0x108>
    484a:	d80c      	bhi.n	4866 <gpio_nrfx_pin_configure+0xae>
    484c:	2b06      	cmp	r3, #6
    484e:	d014      	beq.n	487a <gpio_nrfx_pin_configure+0xc2>
    4850:	d804      	bhi.n	485c <gpio_nrfx_pin_configure+0xa4>
    4852:	b193      	cbz	r3, 487a <gpio_nrfx_pin_configure+0xc2>
    4854:	2b02      	cmp	r3, #2
    4856:	d1e8      	bne.n	482a <gpio_nrfx_pin_configure+0x72>
    4858:	2304      	movs	r3, #4
    485a:	e00e      	b.n	487a <gpio_nrfx_pin_configure+0xc2>
    485c:	f5b3 1f80 	cmp.w	r3, #1048576	; 0x100000
    4860:	d1e3      	bne.n	482a <gpio_nrfx_pin_configure+0x72>
		*drive = NRF_GPIO_PIN_H0S1;
    4862:	2301      	movs	r3, #1
    4864:	e009      	b.n	487a <gpio_nrfx_pin_configure+0xc2>
	switch (flags & (GPIO_DS_LOW_MASK | GPIO_DS_HIGH_MASK |
    4866:	4a2a      	ldr	r2, [pc, #168]	; (4910 <gpio_nrfx_pin_configure+0x158>)
    4868:	4293      	cmp	r3, r2
    486a:	d02b      	beq.n	48c4 <gpio_nrfx_pin_configure+0x10c>
    486c:	f5b3 0fa0 	cmp.w	r3, #5242880	; 0x500000
    4870:	d02a      	beq.n	48c8 <gpio_nrfx_pin_configure+0x110>
    4872:	f5b3 0f80 	cmp.w	r3, #4194304	; 0x400000
    4876:	d1d8      	bne.n	482a <gpio_nrfx_pin_configure+0x72>
		*drive = NRF_GPIO_PIN_S0H1;
    4878:	2302      	movs	r3, #2
		nrfx_gpiote_output_config_t output_config = {
    487a:	f88d 3004 	strb.w	r3, [sp, #4]
				NRF_GPIO_PIN_INPUT_CONNECT :
    487e:	f484 7380 	eor.w	r3, r4, #256	; 0x100
    4882:	f3c3 2300 	ubfx	r3, r3, #8, #1
	if (flags & GPIO_PULL_UP) {
    4886:	06e0      	lsls	r0, r4, #27
		nrfx_gpiote_output_config_t output_config = {
    4888:	f88d 3005 	strb.w	r3, [sp, #5]
		return NRF_GPIO_PIN_PULLDOWN;
    488c:	bf54      	ite	pl
    488e:	f3c4 1340 	ubfxpl	r3, r4, #5, #1
		return NRF_GPIO_PIN_PULLUP;
    4892:	2303      	movmi	r3, #3
		if (flags & GPIO_OUTPUT_INIT_HIGH) {
    4894:	0521      	lsls	r1, r4, #20
		nrfx_gpiote_output_config_t output_config = {
    4896:	f88d 3006 	strb.w	r3, [sp, #6]
		if (flags & GPIO_OUTPUT_INIT_HIGH) {
    489a:	d517      	bpl.n	48cc <gpio_nrfx_pin_configure+0x114>
			nrf_gpio_port_out_set(cfg->port, BIT(pin));
    489c:	687b      	ldr	r3, [r7, #4]
    489e:	2101      	movs	r1, #1
    48a0:	fa01 f606 	lsl.w	r6, r1, r6
    p_reg->OUTSET = set_mask;
    48a4:	f8c3 6508 	str.w	r6, [r3, #1288]	; 0x508
		err = nrfx_gpiote_output_configure(abs_pin, &output_config, NULL);
    48a8:	2200      	movs	r2, #0
    48aa:	a901      	add	r1, sp, #4
    48ac:	4628      	mov	r0, r5
    48ae:	f001 f98d 	bl	5bcc <nrfx_gpiote_output_configure>
		return (err != NRFX_SUCCESS) ? -EINVAL : 0;
    48b2:	4b14      	ldr	r3, [pc, #80]	; (4904 <gpio_nrfx_pin_configure+0x14c>)
    48b4:	4298      	cmp	r0, r3
    48b6:	bf14      	ite	ne
    48b8:	f06f 0015 	mvnne.w	r0, #21
    48bc:	2000      	moveq	r0, #0
    48be:	e794      	b.n	47ea <gpio_nrfx_pin_configure+0x32>
		*drive = NRF_GPIO_PIN_H0D1;
    48c0:	2307      	movs	r3, #7
    48c2:	e7da      	b.n	487a <gpio_nrfx_pin_configure+0xc2>
		*drive = NRF_GPIO_PIN_D0H1;
    48c4:	2305      	movs	r3, #5
    48c6:	e7d8      	b.n	487a <gpio_nrfx_pin_configure+0xc2>
		*drive = NRF_GPIO_PIN_H0H1;
    48c8:	2303      	movs	r3, #3
    48ca:	e7d6      	b.n	487a <gpio_nrfx_pin_configure+0xc2>
		} else if (flags & GPIO_OUTPUT_INIT_LOW) {
    48cc:	0562      	lsls	r2, r4, #21
			nrf_gpio_port_out_clear(cfg->port, BIT(pin));
    48ce:	bf41      	itttt	mi
    48d0:	687b      	ldrmi	r3, [r7, #4]
    48d2:	2101      	movmi	r1, #1
    48d4:	fa01 f606 	lslmi.w	r6, r1, r6
    p_reg->OUTCLR = clr_mask;
    48d8:	f8c3 650c 	strmi.w	r6, [r3, #1292]	; 0x50c
}
    48dc:	e7e4      	b.n	48a8 <gpio_nrfx_pin_configure+0xf0>
	if (flags & GPIO_PULL_UP) {
    48de:	06e3      	lsls	r3, r4, #27
	err = nrfx_gpiote_input_configure(abs_pin, &input_config, NULL, NULL);
    48e0:	f04f 0300 	mov.w	r3, #0
		return NRF_GPIO_PIN_PULLUP;
    48e4:	bf54      	ite	pl
    48e6:	f3c4 1440 	ubfxpl	r4, r4, #5, #1
    48ea:	2403      	movmi	r4, #3
	err = nrfx_gpiote_input_configure(abs_pin, &input_config, NULL, NULL);
    48ec:	461a      	mov	r2, r3
    48ee:	a901      	add	r1, sp, #4
    48f0:	4628      	mov	r0, r5
	nrfx_gpiote_input_config_t input_config = {
    48f2:	f88d 4004 	strb.w	r4, [sp, #4]
	err = nrfx_gpiote_input_configure(abs_pin, &input_config, NULL, NULL);
    48f6:	f001 f8c1 	bl	5a7c <nrfx_gpiote_input_configure>
	return (err != NRFX_SUCCESS) ? -EINVAL : 0;
    48fa:	4b02      	ldr	r3, [pc, #8]	; (4904 <gpio_nrfx_pin_configure+0x14c>)
    48fc:	4298      	cmp	r0, r3
    48fe:	f43f af7f 	beq.w	4800 <gpio_nrfx_pin_configure+0x48>
    4902:	e792      	b.n	482a <gpio_nrfx_pin_configure+0x72>
    4904:	0bad0000 	.word	0x0bad0000
    4908:	00f00006 	.word	0x00f00006
    490c:	00100006 	.word	0x00100006
    4910:	00400002 	.word	0x00400002

00004914 <pwm_nrfx_get_cycles_per_sec>:
{
	/* TODO: Since this function might be removed, we will always return
	 * 16MHz from this function and handle the conversion with prescaler,
	 * etc, in the pin set function. See issue #6958.
	 */
	*cycles = 16ul * 1000ul * 1000ul;
    4914:	4802      	ldr	r0, [pc, #8]	; (4920 <pwm_nrfx_get_cycles_per_sec+0xc>)
    4916:	2100      	movs	r1, #0
    4918:	e9c2 0100 	strd	r0, r1, [r2]

	return 0;
}
    491c:	2000      	movs	r0, #0
    491e:	4770      	bx	lr
    4920:	00f42400 	.word	0x00f42400

00004924 <pwm_nrfx_init>:
	.pin_set = pwm_nrfx_pin_set,
	.get_cycles_per_sec = pwm_nrfx_get_cycles_per_sec,
};

static int pwm_nrfx_init(const struct device *dev)
{
    4924:	4602      	mov	r2, r0
	const struct pwm_nrfx_config *config = dev->config;
    4926:	6840      	ldr	r0, [r0, #4]
	struct pwm_nrfx_data *data = dev->data;

	for (size_t i = 0; i < ARRAY_SIZE(data->current); i++) {
    4928:	6912      	ldr	r2, [r2, #16]
{
    492a:	b538      	push	{r3, r4, r5, lr}
    492c:	f100 0308 	add.w	r3, r0, #8
    4930:	3204      	adds	r2, #4
    4932:	f100 040c 	add.w	r4, r0, #12
    4936:	4619      	mov	r1, r3
		bool inverted = config->initial_config.output_pins[i] & NRFX_PWM_PIN_INVERTED;
		uint16_t value = (inverted)?(PWM_NRFX_CH_VALUE_INVERTED):(PWM_NRFX_CH_VALUE_NORMAL);
    4938:	f913 5b01 	ldrsb.w	r5, [r3], #1
    493c:	2d00      	cmp	r5, #0
    493e:	bfb4      	ite	lt
    4940:	2500      	movlt	r5, #0
    4942:	f44f 4500 	movge.w	r5, #32768	; 0x8000
	for (size_t i = 0; i < ARRAY_SIZE(data->current); i++) {
    4946:	42a3      	cmp	r3, r4

		data->current[i] = value;
    4948:	f822 5b02 	strh.w	r5, [r2], #2
	for (size_t i = 0; i < ARRAY_SIZE(data->current); i++) {
    494c:	d1f4      	bne.n	4938 <pwm_nrfx_init+0x14>
	};

	nrfx_err_t result = nrfx_pwm_init(&config->pwm,
    494e:	2300      	movs	r3, #0
    4950:	461a      	mov	r2, r3
    4952:	f001 fc6b 	bl	622c <nrfx_pwm_init>
					  &config->initial_config,
					  NULL,
					  NULL);
	if (result != NRFX_SUCCESS) {
    4956:	4b03      	ldr	r3, [pc, #12]	; (4964 <pwm_nrfx_init+0x40>)
		LOG_ERR("Failed to initialize device: %s", dev->name);
		return -EBUSY;
    4958:	4298      	cmp	r0, r3
	}

	return 0;
}
    495a:	bf14      	ite	ne
    495c:	f06f 000f 	mvnne.w	r0, #15
    4960:	2000      	moveq	r0, #0
    4962:	bd38      	pop	{r3, r4, r5, pc}
    4964:	0bad0000 	.word	0x0bad0000

00004968 <nrf_gpio_pin_port_decode>:
    NRFX_ASSERT(nrf_gpio_pin_present_check(*p_pin));
    4968:	6802      	ldr	r2, [r0, #0]
    switch (port)
    496a:	0953      	lsrs	r3, r2, #5
{
    496c:	b510      	push	{r4, lr}
    496e:	4604      	mov	r4, r0
    switch (port)
    4970:	d02c      	beq.n	49cc <nrf_gpio_pin_port_decode+0x64>
    4972:	2b01      	cmp	r3, #1
    uint32_t mask = 0;
    4974:	f64f 73ff 	movw	r3, #65535	; 0xffff
    4978:	bf18      	it	ne
    497a:	2300      	movne	r3, #0
    pin_number &= 0x1F;
    497c:	f002 021f 	and.w	r2, r2, #31
    return (mask & (1UL << pin_number)) ? true : false;
    4980:	40d3      	lsrs	r3, r2
    NRFX_ASSERT(nrf_gpio_pin_present_check(*p_pin));
    4982:	07db      	lsls	r3, r3, #31
    4984:	d40b      	bmi.n	499e <nrf_gpio_pin_port_decode+0x36>
    4986:	4914      	ldr	r1, [pc, #80]	; (49d8 <nrf_gpio_pin_port_decode+0x70>)
    4988:	4814      	ldr	r0, [pc, #80]	; (49dc <nrf_gpio_pin_port_decode+0x74>)
    498a:	4a15      	ldr	r2, [pc, #84]	; (49e0 <nrf_gpio_pin_port_decode+0x78>)
    498c:	f240 2329 	movw	r3, #553	; 0x229
    4990:	f005 fa55 	bl	9e3e <printk>
    4994:	4812      	ldr	r0, [pc, #72]	; (49e0 <nrf_gpio_pin_port_decode+0x78>)
    4996:	f240 2129 	movw	r1, #553	; 0x229
    499a:	f005 f94d 	bl	9c38 <assert_post_action>
    uint32_t pin_number = *p_pin;
    499e:	6823      	ldr	r3, [r4, #0]
    *p_pin = pin_number & 0x1F;
    49a0:	f003 021f 	and.w	r2, r3, #31
    switch (nrf_gpio_pin_port_number_extract(p_pin))
    49a4:	095b      	lsrs	r3, r3, #5
    *p_pin = pin_number & 0x1F;
    49a6:	6022      	str	r2, [r4, #0]
    switch (nrf_gpio_pin_port_number_extract(p_pin))
    49a8:	d00d      	beq.n	49c6 <nrf_gpio_pin_port_decode+0x5e>
    49aa:	2b01      	cmp	r3, #1
    49ac:	d011      	beq.n	49d2 <nrf_gpio_pin_port_decode+0x6a>
            NRFX_ASSERT(0);
    49ae:	490d      	ldr	r1, [pc, #52]	; (49e4 <nrf_gpio_pin_port_decode+0x7c>)
    49b0:	480a      	ldr	r0, [pc, #40]	; (49dc <nrf_gpio_pin_port_decode+0x74>)
    49b2:	4a0b      	ldr	r2, [pc, #44]	; (49e0 <nrf_gpio_pin_port_decode+0x78>)
    49b4:	f240 232e 	movw	r3, #558	; 0x22e
    49b8:	f005 fa41 	bl	9e3e <printk>
    49bc:	4808      	ldr	r0, [pc, #32]	; (49e0 <nrf_gpio_pin_port_decode+0x78>)
    49be:	f240 212e 	movw	r1, #558	; 0x22e
    49c2:	f005 f939 	bl	9c38 <assert_post_action>
    switch (nrf_gpio_pin_port_number_extract(p_pin))
    49c6:	f04f 40a0 	mov.w	r0, #1342177280	; 0x50000000
}
    49ca:	bd10      	pop	{r4, pc}
    switch (port)
    49cc:	f04f 33ff 	mov.w	r3, #4294967295
    49d0:	e7d4      	b.n	497c <nrf_gpio_pin_port_decode+0x14>
        case 1: return NRF_P1;
    49d2:	4805      	ldr	r0, [pc, #20]	; (49e8 <nrf_gpio_pin_port_decode+0x80>)
    49d4:	e7f9      	b.n	49ca <nrf_gpio_pin_port_decode+0x62>
    49d6:	bf00      	nop
    49d8:	0000bf82 	.word	0x0000bf82
    49dc:	0000b2d3 	.word	0x0000b2d3
    49e0:	0000bf4f 	.word	0x0000bf4f
    49e4:	0000b2d1 	.word	0x0000b2d1
    49e8:	50000300 	.word	0x50000300

000049ec <uarte_nrfx_configure>:
	return 0;
}

static int uarte_nrfx_configure(const struct device *dev,
				const struct uart_config *cfg)
{
    49ec:	b5f0      	push	{r4, r5, r6, r7, lr}
	nrf_uarte_config_t uarte_cfg;

#if defined(UARTE_CONFIG_STOP_Msk)
	switch (cfg->stop_bits) {
    49ee:	794b      	ldrb	r3, [r1, #5]
    49f0:	2b01      	cmp	r3, #1
    49f2:	d026      	beq.n	4a42 <uarte_nrfx_configure+0x56>
    49f4:	2b03      	cmp	r3, #3
    49f6:	d121      	bne.n	4a3c <uarte_nrfx_configure+0x50>
	case UART_CFG_STOP_BITS_1:
		uarte_cfg.stop = NRF_UARTE_STOP_ONE;
		break;
	case UART_CFG_STOP_BITS_2:
		uarte_cfg.stop = NRF_UARTE_STOP_TWO;
    49f8:	2610      	movs	r6, #16
	if (cfg->stop_bits != UART_CFG_STOP_BITS_1) {
		return -ENOTSUP;
	}
#endif

	if (cfg->data_bits != UART_CFG_DATA_BITS_8) {
    49fa:	798b      	ldrb	r3, [r1, #6]
    49fc:	2b03      	cmp	r3, #3
    49fe:	d11d      	bne.n	4a3c <uarte_nrfx_configure+0x50>
		return -ENOTSUP;
	}

	switch (cfg->flow_ctrl) {
    4a00:	79cc      	ldrb	r4, [r1, #7]
    4a02:	b10c      	cbz	r4, 4a08 <uarte_nrfx_configure+0x1c>
    4a04:	2c01      	cmp	r4, #1
    4a06:	d119      	bne.n	4a3c <uarte_nrfx_configure+0x50>
	}

#if defined(UARTE_CONFIG_PARITYTYPE_Msk)
	uarte_cfg.paritytype = NRF_UARTE_PARITYTYPE_EVEN;
#endif
	switch (cfg->parity) {
    4a08:	790a      	ldrb	r2, [r1, #4]
    4a0a:	b112      	cbz	r2, 4a12 <uarte_nrfx_configure+0x26>
    4a0c:	2a02      	cmp	r2, #2
    4a0e:	d115      	bne.n	4a3c <uarte_nrfx_configure+0x50>
	case UART_CFG_PARITY_NONE:
		uarte_cfg.parity = NRF_UARTE_PARITY_EXCLUDED;
		break;
	case UART_CFG_PARITY_EVEN:
		uarte_cfg.parity = NRF_UARTE_PARITY_INCLUDED;
    4a10:	220e      	movs	r2, #14
#endif
	default:
		return -ENOTSUP;
	}

	if (baudrate_set(dev, cfg->baudrate) != 0) {
    4a12:	680b      	ldr	r3, [r1, #0]
	return config->uarte_regs;
    4a14:	6845      	ldr	r5, [r0, #4]
	switch (baudrate) {
    4a16:	f5b3 4f16 	cmp.w	r3, #38400	; 0x9600
	return config->uarte_regs;
    4a1a:	682d      	ldr	r5, [r5, #0]
	switch (baudrate) {
    4a1c:	d065      	beq.n	4aea <uarte_nrfx_configure+0xfe>
    4a1e:	d82d      	bhi.n	4a7c <uarte_nrfx_configure+0x90>
    4a20:	f5b3 5f16 	cmp.w	r3, #9600	; 0x2580
    4a24:	d064      	beq.n	4af0 <uarte_nrfx_configure+0x104>
    4a26:	d816      	bhi.n	4a56 <uarte_nrfx_configure+0x6a>
    4a28:	f5b3 6f96 	cmp.w	r3, #1200	; 0x4b0
    4a2c:	d062      	beq.n	4af4 <uarte_nrfx_configure+0x108>
    4a2e:	d80a      	bhi.n	4a46 <uarte_nrfx_configure+0x5a>
    4a30:	f5b3 7f96 	cmp.w	r3, #300	; 0x12c
    4a34:	d061      	beq.n	4afa <uarte_nrfx_configure+0x10e>
    4a36:	f5b3 7f16 	cmp.w	r3, #600	; 0x258
    4a3a:	d061      	beq.n	4b00 <uarte_nrfx_configure+0x114>
    4a3c:	f06f 0085 	mvn.w	r0, #133	; 0x85
    4a40:	e052      	b.n	4ae8 <uarte_nrfx_configure+0xfc>
	switch (cfg->stop_bits) {
    4a42:	2600      	movs	r6, #0
    4a44:	e7d9      	b.n	49fa <uarte_nrfx_configure+0xe>
	switch (baudrate) {
    4a46:	f5b3 6f16 	cmp.w	r3, #2400	; 0x960
    4a4a:	d05c      	beq.n	4b06 <uarte_nrfx_configure+0x11a>
    4a4c:	f5b3 5f96 	cmp.w	r3, #4800	; 0x12c0
    4a50:	d1f4      	bne.n	4a3c <uarte_nrfx_configure+0x50>
		nrf_baudrate = NRF_UARTE_BAUDRATE_4800;
    4a52:	4b37      	ldr	r3, [pc, #220]	; (4b30 <uarte_nrfx_configure+0x144>)
    4a54:	e03c      	b.n	4ad0 <uarte_nrfx_configure+0xe4>
	switch (baudrate) {
    4a56:	f5b3 4fe1 	cmp.w	r3, #28800	; 0x7080
    4a5a:	d057      	beq.n	4b0c <uarte_nrfx_configure+0x120>
    4a5c:	d807      	bhi.n	4a6e <uarte_nrfx_configure+0x82>
    4a5e:	f5b3 5f61 	cmp.w	r3, #14400	; 0x3840
    4a62:	d055      	beq.n	4b10 <uarte_nrfx_configure+0x124>
    4a64:	f5b3 4f96 	cmp.w	r3, #19200	; 0x4b00
    4a68:	d1e8      	bne.n	4a3c <uarte_nrfx_configure+0x50>
		nrf_baudrate = NRF_UARTE_BAUDRATE_19200;
    4a6a:	4b32      	ldr	r3, [pc, #200]	; (4b34 <uarte_nrfx_configure+0x148>)
    4a6c:	e030      	b.n	4ad0 <uarte_nrfx_configure+0xe4>
	switch (baudrate) {
    4a6e:	f647 2712 	movw	r7, #31250	; 0x7a12
    4a72:	42bb      	cmp	r3, r7
    4a74:	d1e2      	bne.n	4a3c <uarte_nrfx_configure+0x50>
		nrf_baudrate = NRF_UARTE_BAUDRATE_31250;
    4a76:	f44f 0300 	mov.w	r3, #8388608	; 0x800000
    4a7a:	e029      	b.n	4ad0 <uarte_nrfx_configure+0xe4>
	switch (baudrate) {
    4a7c:	f5b3 3f61 	cmp.w	r3, #230400	; 0x38400
    4a80:	d048      	beq.n	4b14 <uarte_nrfx_configure+0x128>
    4a82:	d813      	bhi.n	4aac <uarte_nrfx_configure+0xc0>
    4a84:	f5b3 3f96 	cmp.w	r3, #76800	; 0x12c00
    4a88:	d047      	beq.n	4b1a <uarte_nrfx_configure+0x12e>
    4a8a:	d809      	bhi.n	4aa0 <uarte_nrfx_configure+0xb4>
    4a8c:	f64d 27c0 	movw	r7, #56000	; 0xdac0
    4a90:	42bb      	cmp	r3, r7
    4a92:	d044      	beq.n	4b1e <uarte_nrfx_configure+0x132>
    4a94:	f5b3 4f61 	cmp.w	r3, #57600	; 0xe100
    4a98:	d1d0      	bne.n	4a3c <uarte_nrfx_configure+0x50>
		nrf_baudrate = NRF_UARTE_BAUDRATE_57600;
    4a9a:	f44f 036b 	mov.w	r3, #15400960	; 0xeb0000
    4a9e:	e017      	b.n	4ad0 <uarte_nrfx_configure+0xe4>
	switch (baudrate) {
    4aa0:	f5b3 3fe1 	cmp.w	r3, #115200	; 0x1c200
    4aa4:	d1ca      	bne.n	4a3c <uarte_nrfx_configure+0x50>
		nrf_baudrate = NRF_UARTE_BAUDRATE_115200;
    4aa6:	f04f 73eb 	mov.w	r3, #30801920	; 0x1d60000
    4aaa:	e011      	b.n	4ad0 <uarte_nrfx_configure+0xe4>
	switch (baudrate) {
    4aac:	f5b3 2f61 	cmp.w	r3, #921600	; 0xe1000
    4ab0:	d038      	beq.n	4b24 <uarte_nrfx_configure+0x138>
    4ab2:	d808      	bhi.n	4ac6 <uarte_nrfx_configure+0xda>
    4ab4:	4f20      	ldr	r7, [pc, #128]	; (4b38 <uarte_nrfx_configure+0x14c>)
    4ab6:	42bb      	cmp	r3, r7
    4ab8:	d037      	beq.n	4b2a <uarte_nrfx_configure+0x13e>
    4aba:	f5b3 2fe1 	cmp.w	r3, #460800	; 0x70800
    4abe:	d1bd      	bne.n	4a3c <uarte_nrfx_configure+0x50>
		nrf_baudrate = NRF_UARTE_BAUDRATE_460800;
    4ac0:	f04f 63e8 	mov.w	r3, #121634816	; 0x7400000
    4ac4:	e004      	b.n	4ad0 <uarte_nrfx_configure+0xe4>
	switch (baudrate) {
    4ac6:	4f1d      	ldr	r7, [pc, #116]	; (4b3c <uarte_nrfx_configure+0x150>)
    4ac8:	42bb      	cmp	r3, r7
    4aca:	d1b7      	bne.n	4a3c <uarte_nrfx_configure+0x50>
		nrf_baudrate = NRF_UARTE_BAUDRATE_1000000;
    4acc:	f04f 5380 	mov.w	r3, #268435456	; 0x10000000
                    | (uint32_t)p_cfg->hwfc;
}

NRF_STATIC_INLINE void nrf_uarte_baudrate_set(NRF_UARTE_Type * p_reg, nrf_uarte_baudrate_t baudrate)
{
    p_reg->BAUDRATE = baudrate;
    4ad0:	f8c5 3524 	str.w	r3, [r5, #1316]	; 0x524
		return -ENOTSUP;
	}

	nrf_uarte_configure(get_uarte_instance(dev), &uarte_cfg);

	get_dev_data(dev)->uart_config = *cfg;
    4ad4:	6903      	ldr	r3, [r0, #16]
    4ad6:	c903      	ldmia	r1, {r0, r1}
                    | (uint32_t)p_cfg->hwfc;
    4ad8:	4334      	orrs	r4, r6
    4ada:	4322      	orrs	r2, r4
    4adc:	3304      	adds	r3, #4
    p_reg->CONFIG = (uint32_t)p_cfg->parity
    4ade:	f8c5 256c 	str.w	r2, [r5, #1388]	; 0x56c
    4ae2:	e883 0003 	stmia.w	r3, {r0, r1}

	return 0;
    4ae6:	2000      	movs	r0, #0
}
    4ae8:	bdf0      	pop	{r4, r5, r6, r7, pc}
		nrf_baudrate = NRF_UARTE_BAUDRATE_38400;
    4aea:	f44f 031d 	mov.w	r3, #10289152	; 0x9d0000
    4aee:	e7ef      	b.n	4ad0 <uarte_nrfx_configure+0xe4>
		nrf_baudrate = NRF_UARTE_BAUDRATE_9600;
    4af0:	4b13      	ldr	r3, [pc, #76]	; (4b40 <uarte_nrfx_configure+0x154>)
    4af2:	e7ed      	b.n	4ad0 <uarte_nrfx_configure+0xe4>
		nrf_baudrate = NRF_UARTE_BAUDRATE_1200;
    4af4:	f44f 239e 	mov.w	r3, #323584	; 0x4f000
    4af8:	e7ea      	b.n	4ad0 <uarte_nrfx_configure+0xe4>
		nrf_baudrate = 0x00014000;
    4afa:	f44f 33a0 	mov.w	r3, #81920	; 0x14000
    4afe:	e7e7      	b.n	4ad0 <uarte_nrfx_configure+0xe4>
	switch (baudrate) {
    4b00:	f44f 331c 	mov.w	r3, #159744	; 0x27000
    4b04:	e7e4      	b.n	4ad0 <uarte_nrfx_configure+0xe4>
		nrf_baudrate = NRF_UARTE_BAUDRATE_2400;
    4b06:	f44f 231d 	mov.w	r3, #643072	; 0x9d000
    4b0a:	e7e1      	b.n	4ad0 <uarte_nrfx_configure+0xe4>
		nrf_baudrate = NRF_UARTE_BAUDRATE_28800;
    4b0c:	4b0d      	ldr	r3, [pc, #52]	; (4b44 <uarte_nrfx_configure+0x158>)
    4b0e:	e7df      	b.n	4ad0 <uarte_nrfx_configure+0xe4>
		nrf_baudrate = NRF_UARTE_BAUDRATE_14400;
    4b10:	4b0d      	ldr	r3, [pc, #52]	; (4b48 <uarte_nrfx_configure+0x15c>)
    4b12:	e7dd      	b.n	4ad0 <uarte_nrfx_configure+0xe4>
		nrf_baudrate = NRF_UARTE_BAUDRATE_230400;
    4b14:	f04f 736c 	mov.w	r3, #61865984	; 0x3b00000
    4b18:	e7da      	b.n	4ad0 <uarte_nrfx_configure+0xe4>
		nrf_baudrate = NRF_UARTE_BAUDRATE_76800;
    4b1a:	4b0c      	ldr	r3, [pc, #48]	; (4b4c <uarte_nrfx_configure+0x160>)
    4b1c:	e7d8      	b.n	4ad0 <uarte_nrfx_configure+0xe4>
		nrf_baudrate = NRF_UARTE_BAUDRATE_56000;
    4b1e:	f44f 0365 	mov.w	r3, #15007744	; 0xe50000
    4b22:	e7d5      	b.n	4ad0 <uarte_nrfx_configure+0xe4>
		nrf_baudrate = NRF_UARTE_BAUDRATE_921600;
    4b24:	f04f 6370 	mov.w	r3, #251658240	; 0xf000000
    4b28:	e7d2      	b.n	4ad0 <uarte_nrfx_configure+0xe4>
		nrf_baudrate = NRF_UARTE_BAUDRATE_250000;
    4b2a:	f04f 6380 	mov.w	r3, #67108864	; 0x4000000
    4b2e:	e7cf      	b.n	4ad0 <uarte_nrfx_configure+0xe4>
    4b30:	0013b000 	.word	0x0013b000
    4b34:	004ea000 	.word	0x004ea000
    4b38:	0003d090 	.word	0x0003d090
    4b3c:	000f4240 	.word	0x000f4240
    4b40:	00275000 	.word	0x00275000
    4b44:	0075c000 	.word	0x0075c000
    4b48:	003af000 	.word	0x003af000
    4b4c:	013a9000 	.word	0x013a9000

00004b50 <nrf_gpio_pin_port_decode>:
    NRFX_ASSERT(nrf_gpio_pin_present_check(*p_pin));
    4b50:	6802      	ldr	r2, [r0, #0]
    switch (port)
    4b52:	0953      	lsrs	r3, r2, #5
{
    4b54:	b510      	push	{r4, lr}
    4b56:	4604      	mov	r4, r0
    switch (port)
    4b58:	d02c      	beq.n	4bb4 <nrf_gpio_pin_port_decode+0x64>
    4b5a:	2b01      	cmp	r3, #1
    uint32_t mask = 0;
    4b5c:	f64f 73ff 	movw	r3, #65535	; 0xffff
    4b60:	bf18      	it	ne
    4b62:	2300      	movne	r3, #0
    pin_number &= 0x1F;
    4b64:	f002 021f 	and.w	r2, r2, #31
    return (mask & (1UL << pin_number)) ? true : false;
    4b68:	40d3      	lsrs	r3, r2
    NRFX_ASSERT(nrf_gpio_pin_present_check(*p_pin));
    4b6a:	07db      	lsls	r3, r3, #31
    4b6c:	d40b      	bmi.n	4b86 <nrf_gpio_pin_port_decode+0x36>
    4b6e:	4914      	ldr	r1, [pc, #80]	; (4bc0 <nrf_gpio_pin_port_decode+0x70>)
    4b70:	4814      	ldr	r0, [pc, #80]	; (4bc4 <nrf_gpio_pin_port_decode+0x74>)
    4b72:	4a15      	ldr	r2, [pc, #84]	; (4bc8 <nrf_gpio_pin_port_decode+0x78>)
    4b74:	f240 2329 	movw	r3, #553	; 0x229
    4b78:	f005 f961 	bl	9e3e <printk>
    4b7c:	4812      	ldr	r0, [pc, #72]	; (4bc8 <nrf_gpio_pin_port_decode+0x78>)
    4b7e:	f240 2129 	movw	r1, #553	; 0x229
    4b82:	f005 f859 	bl	9c38 <assert_post_action>
    uint32_t pin_number = *p_pin;
    4b86:	6823      	ldr	r3, [r4, #0]
    *p_pin = pin_number & 0x1F;
    4b88:	f003 021f 	and.w	r2, r3, #31
    switch (nrf_gpio_pin_port_number_extract(p_pin))
    4b8c:	095b      	lsrs	r3, r3, #5
    *p_pin = pin_number & 0x1F;
    4b8e:	6022      	str	r2, [r4, #0]
    switch (nrf_gpio_pin_port_number_extract(p_pin))
    4b90:	d00d      	beq.n	4bae <nrf_gpio_pin_port_decode+0x5e>
    4b92:	2b01      	cmp	r3, #1
    4b94:	d011      	beq.n	4bba <nrf_gpio_pin_port_decode+0x6a>
            NRFX_ASSERT(0);
    4b96:	490d      	ldr	r1, [pc, #52]	; (4bcc <nrf_gpio_pin_port_decode+0x7c>)
    4b98:	480a      	ldr	r0, [pc, #40]	; (4bc4 <nrf_gpio_pin_port_decode+0x74>)
    4b9a:	4a0b      	ldr	r2, [pc, #44]	; (4bc8 <nrf_gpio_pin_port_decode+0x78>)
    4b9c:	f240 232e 	movw	r3, #558	; 0x22e
    4ba0:	f005 f94d 	bl	9e3e <printk>
    4ba4:	4808      	ldr	r0, [pc, #32]	; (4bc8 <nrf_gpio_pin_port_decode+0x78>)
    4ba6:	f240 212e 	movw	r1, #558	; 0x22e
    4baa:	f005 f845 	bl	9c38 <assert_post_action>
    switch (nrf_gpio_pin_port_number_extract(p_pin))
    4bae:	f04f 40a0 	mov.w	r0, #1342177280	; 0x50000000
}
    4bb2:	bd10      	pop	{r4, pc}
    switch (port)
    4bb4:	f04f 33ff 	mov.w	r3, #4294967295
    4bb8:	e7d4      	b.n	4b64 <nrf_gpio_pin_port_decode+0x14>
        case 1: return NRF_P1;
    4bba:	4805      	ldr	r0, [pc, #20]	; (4bd0 <nrf_gpio_pin_port_decode+0x80>)
    4bbc:	e7f9      	b.n	4bb2 <nrf_gpio_pin_port_decode+0x62>
    4bbe:	bf00      	nop
    4bc0:	0000bf82 	.word	0x0000bf82
    4bc4:	0000b2d3 	.word	0x0000b2d3
    4bc8:	0000bf4f 	.word	0x0000bf4f
    4bcc:	0000b2d1 	.word	0x0000b2d1
    4bd0:	50000300 	.word	0x50000300

00004bd4 <uarte_nrfx_rx_enable>:
}

static int uarte_nrfx_rx_enable(const struct device *dev, uint8_t *buf,
				size_t len,
				int32_t timeout)
{
    4bd4:	e92d 43f0 	stmdb	sp!, {r4, r5, r6, r7, r8, r9, lr}
    4bd8:	4615      	mov	r5, r2
	struct uarte_nrfx_data *data = get_dev_data(dev);
	const struct uarte_nrfx_config *cfg = get_dev_config(dev);
    4bda:	6842      	ldr	r2, [r0, #4]
	struct uarte_nrfx_data *data = get_dev_data(dev);
    4bdc:	f8d0 9010 	ldr.w	r9, [r0, #16]
	return config->uarte_regs;
    4be0:	6817      	ldr	r7, [r2, #0]
	NRF_UARTE_Type *uarte = get_uarte_instance(dev);

	if (cfg->disable_rx) {
    4be2:	7a12      	ldrb	r2, [r2, #8]
{
    4be4:	b087      	sub	sp, #28
    4be6:	4604      	mov	r4, r0
    4be8:	4688      	mov	r8, r1
	if (cfg->disable_rx) {
    4bea:	b19a      	cbz	r2, 4c14 <uarte_nrfx_rx_enable+0x40>
		__ASSERT(false, "TX only UARTE instance");
    4bec:	4a4f      	ldr	r2, [pc, #316]	; (4d2c <uarte_nrfx_rx_enable+0x158>)
    4bee:	4950      	ldr	r1, [pc, #320]	; (4d30 <uarte_nrfx_rx_enable+0x15c>)
    4bf0:	4850      	ldr	r0, [pc, #320]	; (4d34 <uarte_nrfx_rx_enable+0x160>)
    4bf2:	f240 337f 	movw	r3, #895	; 0x37f
    4bf6:	f005 f922 	bl	9e3e <printk>
    4bfa:	484f      	ldr	r0, [pc, #316]	; (4d38 <uarte_nrfx_rx_enable+0x164>)
    4bfc:	f005 f91f 	bl	9e3e <printk>
    4c00:	484a      	ldr	r0, [pc, #296]	; (4d2c <uarte_nrfx_rx_enable+0x158>)
    4c02:	f240 317f 	movw	r1, #895	; 0x37f
    4c06:	f005 f817 	bl	9c38 <assert_post_action>
		return -ENOTSUP;
    4c0a:	f06f 0085 	mvn.w	r0, #133	; 0x85
	}

	nrf_uarte_task_trigger(uarte, NRF_UARTE_TASK_STARTRX);

	return 0;
}
    4c0e:	b007      	add	sp, #28
    4c10:	e8bd 83f0 	ldmia.w	sp!, {r4, r5, r6, r7, r8, r9, pc}
	if (data->async->rx_enabled) {
    4c14:	f8d9 1010 	ldr.w	r1, [r9, #16]
    4c18:	f891 20d2 	ldrb.w	r2, [r1, #210]	; 0xd2
    4c1c:	2a00      	cmp	r2, #0
    4c1e:	f040 8081 	bne.w	4d24 <uarte_nrfx_rx_enable+0x150>
		MAX(timeout / RX_TIMEOUT_DIV,
    4c22:	f5b3 7fe8 	cmp.w	r3, #464	; 0x1d0
	data->async->rx_timeout = timeout;
    4c26:	67cb      	str	r3, [r1, #124]	; 0x7c
		MAX(timeout / RX_TIMEOUT_DIV,
    4c28:	bfd2      	itee	le
    4c2a:	235c      	movle	r3, #92	; 0x5c
    4c2c:	2205      	movgt	r2, #5
    4c2e:	fb93 f3f2 	sdivgt	r3, r3, r2
	data->async->rx_timeout_slab =
    4c32:	f8c1 3080 	str.w	r3, [r1, #128]	; 0x80
	data->async->rx_offset = 0;
    4c36:	2300      	movs	r3, #0
	data->async->rx_buf_len = len;
    4c38:	e9c1 8518 	strd	r8, r5, [r1, #96]	; 0x60
	data->async->rx_next_buf = NULL;
    4c3c:	e9c1 331a 	strd	r3, r3, [r1, #104]	; 0x68
	data->async->rx_next_buf_len = 0;
    4c40:	670b      	str	r3, [r1, #112]	; 0x70
	if (get_dev_config(dev)->flags & UARTE_CFG_FLAG_LOW_POWER) {
    4c42:	6843      	ldr	r3, [r0, #4]
    4c44:	685b      	ldr	r3, [r3, #4]
    4c46:	06da      	lsls	r2, r3, #27
    4c48:	d539      	bpl.n	4cbe <uarte_nrfx_rx_enable+0xea>
		if (data->async->rx_flush_cnt) {
    4c4a:	f891 60d1 	ldrb.w	r6, [r1, #209]	; 0xd1
    4c4e:	b3b6      	cbz	r6, 4cbe <uarte_nrfx_rx_enable+0xea>
			int cpy_len = MIN(len, data->async->rx_flush_cnt);
    4c50:	42ae      	cmp	r6, r5
    4c52:	bf28      	it	cs
    4c54:	462e      	movcs	r6, r5
			memcpy(buf, data->async->rx_flush_buffer, cpy_len);
    4c56:	4640      	mov	r0, r8
    4c58:	4632      	mov	r2, r6
    4c5a:	31cc      	adds	r1, #204	; 0xcc
    4c5c:	f005 fad8 	bl	a210 <memcpy>
			if (!len) {
    4c60:	1bad      	subs	r5, r5, r6
			buf += cpy_len;
    4c62:	44b0      	add	r8, r6
			if (!len) {
    4c64:	d12b      	bne.n	4cbe <uarte_nrfx_rx_enable+0xea>
				data->async->rx_flush_cnt -= cpy_len;
    4c66:	f8d9 2010 	ldr.w	r2, [r9, #16]
    4c6a:	f892 30d1 	ldrb.w	r3, [r2, #209]	; 0xd1
    4c6e:	1b9b      	subs	r3, r3, r6
				notify_uart_rx_rdy(dev, cpy_len);
    4c70:	4631      	mov	r1, r6
				data->async->rx_flush_cnt -= cpy_len;
    4c72:	f882 30d1 	strb.w	r3, [r2, #209]	; 0xd1
				notify_uart_rx_rdy(dev, cpy_len);
    4c76:	4620      	mov	r0, r4
    4c78:	f005 fcee 	bl	a658 <notify_uart_rx_rdy>
				notify_rx_buf_release(dev, &data->async->rx_buf,
    4c7c:	f8d9 6010 	ldr.w	r6, [r9, #16]
	if (*buf) {
    4c80:	6e37      	ldr	r7, [r6, #96]	; 0x60
    4c82:	b177      	cbz	r7, 4ca2 <uarte_nrfx_rx_enable+0xce>
		struct uart_event evt = {
    4c84:	2214      	movs	r2, #20
    4c86:	4629      	mov	r1, r5
    4c88:	a801      	add	r0, sp, #4
    4c8a:	f005 facc 	bl	a226 <memset>
    4c8e:	2304      	movs	r3, #4
		user_callback(dev, &evt);
    4c90:	eb0d 0103 	add.w	r1, sp, r3
    4c94:	4620      	mov	r0, r4
		struct uart_event evt = {
    4c96:	f88d 3004 	strb.w	r3, [sp, #4]
    4c9a:	9702      	str	r7, [sp, #8]
		user_callback(dev, &evt);
    4c9c:	f005 fcd5 	bl	a64a <user_callback>
			*buf = NULL;
    4ca0:	6635      	str	r5, [r6, #96]	; 0x60
	struct uart_event evt = {
    4ca2:	2100      	movs	r1, #0
    4ca4:	2214      	movs	r2, #20
    4ca6:	a801      	add	r0, sp, #4
    4ca8:	f005 fabd 	bl	a226 <memset>
    4cac:	2305      	movs	r3, #5
	user_callback(dev, (struct uart_event *)&evt);
    4cae:	a901      	add	r1, sp, #4
    4cb0:	4620      	mov	r0, r4
	struct uart_event evt = {
    4cb2:	f88d 3004 	strb.w	r3, [sp, #4]
	user_callback(dev, (struct uart_event *)&evt);
    4cb6:	f005 fcc8 	bl	a64a <user_callback>
	return 0;
    4cba:	2000      	movs	r0, #0
    4cbc:	e7a7      	b.n	4c0e <uarte_nrfx_rx_enable+0x3a>
    *((volatile uint32_t *)((uint8_t *)p_reg + (uint32_t)event)) = 0x0UL;
    4cbe:	2300      	movs	r3, #0

NRF_STATIC_INLINE void nrf_uarte_rx_buffer_set(NRF_UARTE_Type * p_reg,
                                               uint8_t *        p_buffer,
                                               size_t           length)
{
    p_reg->RXD.PTR    = (uint32_t)p_buffer;
    4cc0:	f8c7 8534 	str.w	r8, [r7, #1332]	; 0x534
    p_reg->RXD.MAXCNT = length;
    4cc4:	f8c7 5538 	str.w	r5, [r7, #1336]	; 0x538
    *((volatile uint32_t *)((uint8_t *)p_reg + (uint32_t)event)) = 0x0UL;
    4cc8:	f8c7 3110 	str.w	r3, [r7, #272]	; 0x110
    4ccc:	f8d7 2110 	ldr.w	r2, [r7, #272]	; 0x110
    4cd0:	f8c7 314c 	str.w	r3, [r7, #332]	; 0x14c
    4cd4:	f8d7 314c 	ldr.w	r3, [r7, #332]	; 0x14c
	data->async->rx_enabled = true;
    4cd8:	f8d9 3010 	ldr.w	r3, [r9, #16]
    4cdc:	2201      	movs	r2, #1
    4cde:	f883 20d2 	strb.w	r2, [r3, #210]	; 0xd2
	if (get_dev_config(dev)->flags & UARTE_CFG_FLAG_LOW_POWER) {
    4ce2:	6863      	ldr	r3, [r4, #4]
    4ce4:	685b      	ldr	r3, [r3, #4]
    4ce6:	06db      	lsls	r3, r3, #27
    4ce8:	d519      	bpl.n	4d1e <uarte_nrfx_rx_enable+0x14a>
	__asm__ volatile(
    4cea:	f04f 0320 	mov.w	r3, #32
    4cee:	f3ef 8111 	mrs	r1, BASEPRI
    4cf2:	f383 8812 	msr	BASEPRI_MAX, r3
    4cf6:	f3bf 8f6f 	isb	sy
	if (data->async) {
    4cfa:	6923      	ldr	r3, [r4, #16]
    4cfc:	691b      	ldr	r3, [r3, #16]
    4cfe:	b12b      	cbz	r3, 4d0c <uarte_nrfx_rx_enable+0x138>
		data->async->low_power_mask |= mask;
    4d00:	f8d3 20c8 	ldr.w	r2, [r3, #200]	; 0xc8
    4d04:	f042 0202 	orr.w	r2, r2, #2
    4d08:	f8c3 20c8 	str.w	r2, [r3, #200]	; 0xc8
	return config->uarte_regs;
    4d0c:	6863      	ldr	r3, [r4, #4]
    4d0e:	681b      	ldr	r3, [r3, #0]
    p_reg->ENABLE = UARTE_ENABLE_ENABLE_Enabled;
    4d10:	2208      	movs	r2, #8
    4d12:	f8c3 2500 	str.w	r2, [r3, #1280]	; 0x500
	__asm__ volatile(
    4d16:	f381 8811 	msr	BASEPRI, r1
    4d1a:	f3bf 8f6f 	isb	sy
    *((volatile uint32_t *)((uint8_t *)p_reg + (uint32_t)task)) = 0x1UL;
    4d1e:	2301      	movs	r3, #1
    4d20:	603b      	str	r3, [r7, #0]
    4d22:	e7ca      	b.n	4cba <uarte_nrfx_rx_enable+0xe6>
		return -EBUSY;
    4d24:	f06f 000f 	mvn.w	r0, #15
    4d28:	e771      	b.n	4c0e <uarte_nrfx_rx_enable+0x3a>
    4d2a:	bf00      	nop
    4d2c:	0000bfac 	.word	0x0000bfac
    4d30:	0000b2d1 	.word	0x0000b2d1
    4d34:	0000b2d3 	.word	0x0000b2d3
    4d38:	0000bfe0 	.word	0x0000bfe0

00004d3c <uarte_instance_init.isra.0>:
	nrfx_gppi_channels_enable(BIT(data->ppi_ch_endtx));

	return 0;
}

static int uarte_instance_init(const struct device *dev,
    4d3c:	e92d 43f7 	stmdb	sp!, {r0, r1, r2, r4, r5, r6, r7, r8, r9, lr}
	const struct uarte_nrfx_config *config = get_dev_config(dev);
    4d40:	f8d0 8004 	ldr.w	r8, [r0, #4]
			       uint8_t interrupts_active)
{
	int err;
	NRF_UARTE_Type *uarte = get_uarte_instance(dev);
	struct uarte_nrfx_data *data = get_dev_data(dev);
    4d44:	6907      	ldr	r7, [r0, #16]
	return config->uarte_regs;
    4d46:	f8d8 4000 	ldr.w	r4, [r8]
    p_reg->ENABLE = UARTE_ENABLE_ENABLE_Disabled;
    4d4a:	2300      	movs	r3, #0
    4d4c:	f8c4 3500 	str.w	r3, [r4, #1280]	; 0x500
	const struct uarte_nrfx_config *cfg = get_dev_config(dev);

	nrf_uarte_disable(uarte);

	data->dev = dev;
    4d50:	6038      	str	r0, [r7, #0]
	const struct uarte_nrfx_config *cfg = get_dev_config(dev);
    4d52:	6845      	ldr	r5, [r0, #4]
		if (cfg->tx_pin != NRF_UARTE_PSEL_DISCONNECTED) {
    4d54:	68eb      	ldr	r3, [r5, #12]
static int uarte_instance_init(const struct device *dev,
    4d56:	4606      	mov	r6, r0
		if (cfg->tx_pin != NRF_UARTE_PSEL_DISCONNECTED) {
    4d58:	1c58      	adds	r0, r3, #1
    4d5a:	d013      	beq.n	4d84 <uarte_instance_init.isra.0+0x48>
    NRF_GPIO_Type * reg = nrf_gpio_pin_port_decode(&pin_number);
    4d5c:	a801      	add	r0, sp, #4
    4d5e:	9301      	str	r3, [sp, #4]
    4d60:	f7ff fef6 	bl	4b50 <nrf_gpio_pin_port_decode>
    nrf_gpio_port_out_set(reg, 1UL << pin_number);
    4d64:	9a01      	ldr	r2, [sp, #4]
    4d66:	2301      	movs	r3, #1
    4d68:	4093      	lsls	r3, r2
    p_reg->OUTSET = set_mask;
    4d6a:	f8c0 3508 	str.w	r3, [r0, #1288]	; 0x508
    nrf_gpio_cfg(
    4d6e:	68eb      	ldr	r3, [r5, #12]
    4d70:	9301      	str	r3, [sp, #4]
    NRF_GPIO_Type * reg = nrf_gpio_pin_port_decode(&pin_number);
    4d72:	a801      	add	r0, sp, #4
    4d74:	f7ff feec 	bl	4b50 <nrf_gpio_pin_port_decode>
    reg->PIN_CNF[pin_number] = cnf;
    4d78:	9b01      	ldr	r3, [sp, #4]
    4d7a:	f503 73e0 	add.w	r3, r3, #448	; 0x1c0
    4d7e:	2203      	movs	r2, #3
    4d80:	f840 2023 	str.w	r2, [r0, r3, lsl #2]
		if (cfg->rx_pin != NRF_UARTE_PSEL_DISCONNECTED) {
    4d84:	692b      	ldr	r3, [r5, #16]
    4d86:	1c59      	adds	r1, r3, #1
    4d88:	d011      	beq.n	4dae <uarte_instance_init.isra.0+0x72>
			nrf_gpio_cfg_input(cfg->rx_pin,
    4d8a:	7f2a      	ldrb	r2, [r5, #28]
    4d8c:	9301      	str	r3, [sp, #4]
    4d8e:	2a00      	cmp	r2, #0
    NRF_GPIO_Type * reg = nrf_gpio_pin_port_decode(&pin_number);
    4d90:	a801      	add	r0, sp, #4
    4d92:	bf14      	ite	ne
    4d94:	f04f 0903 	movne.w	r9, #3
    4d98:	f04f 0900 	moveq.w	r9, #0
    4d9c:	f7ff fed8 	bl	4b50 <nrf_gpio_pin_port_decode>
    reg->PIN_CNF[pin_number] = cnf;
    4da0:	9b01      	ldr	r3, [sp, #4]
    4da2:	f503 73e0 	add.w	r3, r3, #448	; 0x1c0
           ((uint32_t)pull << GPIO_PIN_CNF_PULL_Pos)   |
    4da6:	ea4f 0289 	mov.w	r2, r9, lsl #2
    reg->PIN_CNF[pin_number] = cnf;
    4daa:	f840 2023 	str.w	r2, [r0, r3, lsl #2]
		if (cfg->rts_pin != NRF_UARTE_PSEL_DISCONNECTED) {
    4dae:	696b      	ldr	r3, [r5, #20]
    4db0:	1c5a      	adds	r2, r3, #1
    4db2:	d013      	beq.n	4ddc <uarte_instance_init.isra.0+0xa0>
    NRF_GPIO_Type * reg = nrf_gpio_pin_port_decode(&pin_number);
    4db4:	a801      	add	r0, sp, #4
    4db6:	9301      	str	r3, [sp, #4]
    4db8:	f7ff feca 	bl	4b50 <nrf_gpio_pin_port_decode>
    nrf_gpio_port_out_set(reg, 1UL << pin_number);
    4dbc:	9a01      	ldr	r2, [sp, #4]
    4dbe:	2301      	movs	r3, #1
    4dc0:	4093      	lsls	r3, r2
    p_reg->OUTSET = set_mask;
    4dc2:	f8c0 3508 	str.w	r3, [r0, #1288]	; 0x508
    nrf_gpio_cfg(
    4dc6:	696b      	ldr	r3, [r5, #20]
    4dc8:	9301      	str	r3, [sp, #4]
    NRF_GPIO_Type * reg = nrf_gpio_pin_port_decode(&pin_number);
    4dca:	a801      	add	r0, sp, #4
    4dcc:	f7ff fec0 	bl	4b50 <nrf_gpio_pin_port_decode>
    reg->PIN_CNF[pin_number] = cnf;
    4dd0:	9b01      	ldr	r3, [sp, #4]
    4dd2:	f503 73e0 	add.w	r3, r3, #448	; 0x1c0
    4dd6:	2203      	movs	r2, #3
    4dd8:	f840 2023 	str.w	r2, [r0, r3, lsl #2]
		if (cfg->cts_pin != NRF_UARTE_PSEL_DISCONNECTED) {
    4ddc:	69ab      	ldr	r3, [r5, #24]
    4dde:	1c58      	adds	r0, r3, #1
    4de0:	d011      	beq.n	4e06 <uarte_instance_init.isra.0+0xca>
			nrf_gpio_cfg_input(cfg->cts_pin,
    4de2:	7f6a      	ldrb	r2, [r5, #29]
    4de4:	9301      	str	r3, [sp, #4]
    4de6:	2a00      	cmp	r2, #0
    NRF_GPIO_Type * reg = nrf_gpio_pin_port_decode(&pin_number);
    4de8:	a801      	add	r0, sp, #4
    4dea:	bf14      	ite	ne
    4dec:	f04f 0903 	movne.w	r9, #3
    4df0:	f04f 0900 	moveq.w	r9, #0
    4df4:	f7ff feac 	bl	4b50 <nrf_gpio_pin_port_decode>
    reg->PIN_CNF[pin_number] = cnf;
    4df8:	9b01      	ldr	r3, [sp, #4]
    4dfa:	f503 73e0 	add.w	r3, r3, #448	; 0x1c0
           ((uint32_t)pull << GPIO_PIN_CNF_PULL_Pos)   |
    4dfe:	ea4f 0289 	mov.w	r2, r9, lsl #2
    reg->PIN_CNF[pin_number] = cnf;
    4e02:	f840 2023 	str.w	r2, [r0, r3, lsl #2]
	nrf_uarte_txrx_pins_set(cfg->uarte_regs, cfg->tx_pin, cfg->rx_pin);
    4e06:	e9d5 1203 	ldrd	r1, r2, [r5, #12]
    4e0a:	682b      	ldr	r3, [r5, #0]
    p_reg->PSEL.TXD = pseltxd;
    4e0c:	f8c3 150c 	str.w	r1, [r3, #1292]	; 0x50c
    p_reg->PSEL.RXD = pselrxd;
    4e10:	f8c3 2514 	str.w	r2, [r3, #1300]	; 0x514
	nrf_uarte_hwfc_pins_set(cfg->uarte_regs, cfg->rts_pin, cfg->cts_pin);
    4e14:	e9d5 1205 	ldrd	r1, r2, [r5, #20]
    p_reg->PSEL.RTS = pselrts;
    4e18:	f8c3 1508 	str.w	r1, [r3, #1288]	; 0x508
	}
#else
	uarte_nrfx_pins_configure(dev, false);
#endif /* CONFIG_PINCTRL */

	err = uarte_nrfx_configure(dev, &get_dev_data(dev)->uart_config);
    4e1c:	6931      	ldr	r1, [r6, #16]
    p_reg->PSEL.CTS = pselcts;
    4e1e:	f8c3 2510 	str.w	r2, [r3, #1296]	; 0x510
    4e22:	3104      	adds	r1, #4
    4e24:	4630      	mov	r0, r6
    4e26:	f7ff fde1 	bl	49ec <uarte_nrfx_configure>
	if (err) {
    4e2a:	4681      	mov	r9, r0
    4e2c:	2800      	cmp	r0, #0
    4e2e:	d16f      	bne.n	4f10 <uarte_instance_init.isra.0+0x1d4>
		return err;
	}

	if (IS_ENABLED(CONFIG_UART_ENHANCED_POLL_OUT) &&
	    cfg->flags & UARTE_CFG_FLAG_PPI_ENDTX) {
    4e30:	f8d8 3004 	ldr.w	r3, [r8, #4]
	if (IS_ENABLED(CONFIG_UART_ENHANCED_POLL_OUT) &&
    4e34:	0799      	lsls	r1, r3, #30
    4e36:	d519      	bpl.n	4e6c <uarte_instance_init.isra.0+0x130>
	ret = gppi_channel_alloc(&data->ppi_ch_endtx);
    4e38:	f107 001a 	add.w	r0, r7, #26
    4e3c:	f001 f932 	bl	60a4 <nrfx_ppi_channel_alloc>
	if (ret != NRFX_SUCCESS) {
    4e40:	4b41      	ldr	r3, [pc, #260]	; (4f48 <uarte_instance_init.isra.0+0x20c>)
    4e42:	4298      	cmp	r0, r3
    4e44:	d17c      	bne.n	4f40 <uarte_instance_init.isra.0+0x204>
	nrfx_gppi_channel_endpoints_setup(data->ppi_ch_endtx,
    4e46:	7eb8      	ldrb	r0, [r7, #26]
    return (uint32_t)((uint8_t *)p_reg + (uint32_t)event);
    4e48:	00c3      	lsls	r3, r0, #3
    4e4a:	f103 4380 	add.w	r3, r3, #1073741824	; 0x40000000
    4e4e:	f503 33f8 	add.w	r3, r3, #126976	; 0x1f000
    return (uint32_t)p_reg + (uint32_t)task;
    4e52:	f104 020c 	add.w	r2, r4, #12
    return (uint32_t)((uint8_t *)p_reg + (uint32_t)event);
    4e56:	f504 7190 	add.w	r1, r4, #288	; 0x120
NRF_STATIC_INLINE void nrf_ppi_channel_endpoint_setup(NRF_PPI_Type *    p_reg,
                                                      nrf_ppi_channel_t channel,
                                                      uint32_t          eep,
                                                      uint32_t          tep)
{
    p_reg->CH[(uint32_t) channel].EEP = eep;
    4e5a:	f8c3 1510 	str.w	r1, [r3, #1296]	; 0x510
    p_reg->CH[(uint32_t) channel].TEP = tep;
    4e5e:	f8c3 2514 	str.w	r2, [r3, #1300]	; 0x514
    p_reg->CHENSET = mask;
    4e62:	4a3a      	ldr	r2, [pc, #232]	; (4f4c <uarte_instance_init.isra.0+0x210>)
	nrfx_gppi_channels_enable(BIT(data->ppi_ch_endtx));
    4e64:	2301      	movs	r3, #1
    4e66:	4083      	lsls	r3, r0
    4e68:	f8c2 3504 	str.w	r3, [r2, #1284]	; 0x504
		}
	}


#ifdef CONFIG_UART_ASYNC_API
	if (data->async) {
    4e6c:	693b      	ldr	r3, [r7, #16]
    4e6e:	2b00      	cmp	r3, #0
    4e70:	d052      	beq.n	4f18 <uarte_instance_init.isra.0+0x1dc>
	return config->uarte_regs;
    4e72:	6873      	ldr	r3, [r6, #4]
	struct uarte_nrfx_data *data = get_dev_data(dev);
    4e74:	6935      	ldr	r5, [r6, #16]
	return config->uarte_regs;
    4e76:	681b      	ldr	r3, [r3, #0]
	data->async->low_power_mask = UARTE_LOW_POWER_TX;
    4e78:	6928      	ldr	r0, [r5, #16]
    p_reg->INTENSET = mask;
    4e7a:	4935      	ldr	r1, [pc, #212]	; (4f50 <uarte_instance_init.isra.0+0x214>)
    4e7c:	2204      	movs	r2, #4
    4e7e:	f8c3 2304 	str.w	r2, [r3, #772]	; 0x304
    4e82:	2201      	movs	r2, #1
    4e84:	f8c0 20c8 	str.w	r2, [r0, #200]	; 0xc8
    4e88:	f8c3 1304 	str.w	r1, [r3, #772]	; 0x304
    p_reg->ENABLE = UARTE_ENABLE_ENABLE_Enabled;
    4e8c:	2108      	movs	r1, #8
    4e8e:	f8c3 1500 	str.w	r1, [r3, #1280]	; 0x500
    return (bool)*(volatile uint32_t *)((uint8_t *)p_reg + (uint32_t)event);
    4e92:	f8d3 114c 	ldr.w	r1, [r3, #332]	; 0x14c
	if (nrf_uarte_event_check(uarte, NRF_UARTE_EVENT_RXSTARTED)) {
    4e96:	b1a1      	cbz	r1, 4ec2 <uarte_instance_init.isra.0+0x186>
    *((volatile uint32_t *)((uint8_t *)p_reg + (uint32_t)task)) = 0x1UL;
    4e98:	605a      	str	r2, [r3, #4]
    return (bool)*(volatile uint32_t *)((uint8_t *)p_reg + (uint32_t)event);
    4e9a:	f8d3 2144 	ldr.w	r2, [r3, #324]	; 0x144
		while (!nrf_uarte_event_check(uarte, NRF_UARTE_EVENT_RXTO) &&
    4e9e:	b91a      	cbnz	r2, 4ea8 <uarte_instance_init.isra.0+0x16c>
    4ea0:	f8d3 2124 	ldr.w	r2, [r3, #292]	; 0x124
    4ea4:	2a00      	cmp	r2, #0
    4ea6:	d0f8      	beq.n	4e9a <uarte_instance_init.isra.0+0x15e>
    *((volatile uint32_t *)((uint8_t *)p_reg + (uint32_t)event)) = 0x0UL;
    4ea8:	2200      	movs	r2, #0
    4eaa:	f8c3 214c 	str.w	r2, [r3, #332]	; 0x14c
    4eae:	f8d3 114c 	ldr.w	r1, [r3, #332]	; 0x14c
    4eb2:	f8c3 2110 	str.w	r2, [r3, #272]	; 0x110
    4eb6:	f8d3 1110 	ldr.w	r1, [r3, #272]	; 0x110
    4eba:	f8c3 2144 	str.w	r2, [r3, #324]	; 0x144
    4ebe:	f8d3 3144 	ldr.w	r3, [r3, #324]	; 0x144
	k_timer_init(&data->async->rx_timeout_timer, rx_timeout, NULL);
    4ec2:	4924      	ldr	r1, [pc, #144]	; (4f54 <uarte_instance_init.isra.0+0x218>)
    4ec4:	2200      	movs	r2, #0
    4ec6:	3088      	adds	r0, #136	; 0x88
    4ec8:	f005 fee7 	bl	ac9a <k_timer_init>
	k_timer_user_data_set(&data->async->rx_timeout_timer, data);
    4ecc:	692b      	ldr	r3, [r5, #16]
	timer->user_data = user_data;
    4ece:	f8c3 50bc 	str.w	r5, [r3, #188]	; 0xbc
	k_timer_init(&data->async->tx_timeout_timer, tx_timeout, NULL);
    4ed2:	6928      	ldr	r0, [r5, #16]
    4ed4:	4920      	ldr	r1, [pc, #128]	; (4f58 <uarte_instance_init.isra.0+0x21c>)
    4ed6:	2200      	movs	r2, #0
    4ed8:	3028      	adds	r0, #40	; 0x28
    4eda:	f005 fede 	bl	ac9a <k_timer_init>
	k_timer_user_data_set(&data->async->tx_timeout_timer, data);
    4ede:	692b      	ldr	r3, [r5, #16]
    4ee0:	65dd      	str	r5, [r3, #92]	; 0x5c
			nrf_uarte_rx_buffer_set(uarte, &data->rx_data, 1);
			nrf_uarte_task_trigger(uarte, NRF_UARTE_TASK_STARTRX);
		}
	}

	if (!(cfg->flags & UARTE_CFG_FLAG_PPI_ENDTX)) {
    4ee2:	f8d8 3004 	ldr.w	r3, [r8, #4]
    4ee6:	079a      	lsls	r2, r3, #30
    p_reg->INTENSET = mask;
    4ee8:	bf5c      	itt	pl
    4eea:	f44f 7280 	movpl.w	r2, #256	; 0x100
    4eee:	f8c4 2304 	strpl.w	r2, [r4, #772]	; 0x304
		nrf_uarte_int_enable(uarte, NRF_UARTE_INT_ENDTX_MASK);
	}

	if (cfg->flags & UARTE_CFG_FLAG_LOW_POWER) {
    4ef2:	06db      	lsls	r3, r3, #27
    4ef4:	bf44      	itt	mi
    4ef6:	f44f 0380 	movmi.w	r3, #4194304	; 0x400000
    4efa:	f8c4 3304 	strmi.w	r3, [r4, #772]	; 0x304

	/* Set TXSTOPPED event by requesting fake (zero-length) transfer.
	 * Pointer to RAM variable (data->tx_buffer) is set because otherwise
	 * such operation may result in HardFault or RAM corruption.
	 */
	nrf_uarte_tx_buffer_set(uarte, &data->char_out, 0);
    4efe:	3718      	adds	r7, #24
    p_reg->TXD.MAXCNT = length;
    4f00:	2300      	movs	r3, #0
    p_reg->TXD.PTR    = (uint32_t)p_buffer;
    4f02:	f8c4 7544 	str.w	r7, [r4, #1348]	; 0x544
    p_reg->TXD.MAXCNT = length;
    4f06:	f8c4 3548 	str.w	r3, [r4, #1352]	; 0x548
    *((volatile uint32_t *)((uint8_t *)p_reg + (uint32_t)task)) = 0x1UL;
    4f0a:	2301      	movs	r3, #1
    4f0c:	60a3      	str	r3, [r4, #8]
    4f0e:	60e3      	str	r3, [r4, #12]

	/* switch off transmitter to save an energy */
	nrf_uarte_task_trigger(uarte, NRF_UARTE_TASK_STOPTX);

	return 0;
}
    4f10:	4648      	mov	r0, r9
    4f12:	b003      	add	sp, #12
    4f14:	e8bd 83f0 	ldmia.w	sp!, {r4, r5, r6, r7, r8, r9, pc}
    p_reg->ENABLE = UARTE_ENABLE_ENABLE_Enabled;
    4f18:	2308      	movs	r3, #8
    4f1a:	f8c4 3500 	str.w	r3, [r4, #1280]	; 0x500
		if (!cfg->disable_rx) {
    4f1e:	f898 3008 	ldrb.w	r3, [r8, #8]
    4f22:	2b00      	cmp	r3, #0
    4f24:	d1dd      	bne.n	4ee2 <uarte_instance_init.isra.0+0x1a6>
    *((volatile uint32_t *)((uint8_t *)p_reg + (uint32_t)event)) = 0x0UL;
    4f26:	f8c4 3110 	str.w	r3, [r4, #272]	; 0x110
    4f2a:	f8d4 3110 	ldr.w	r3, [r4, #272]	; 0x110
			nrf_uarte_rx_buffer_set(uarte, &data->rx_data, 1);
    4f2e:	f107 0319 	add.w	r3, r7, #25
    p_reg->RXD.PTR    = (uint32_t)p_buffer;
    4f32:	f8c4 3534 	str.w	r3, [r4, #1332]	; 0x534
    p_reg->RXD.MAXCNT = length;
    4f36:	2301      	movs	r3, #1
    4f38:	f8c4 3538 	str.w	r3, [r4, #1336]	; 0x538
    *((volatile uint32_t *)((uint8_t *)p_reg + (uint32_t)task)) = 0x1UL;
    4f3c:	6023      	str	r3, [r4, #0]
}
    4f3e:	e7d0      	b.n	4ee2 <uarte_instance_init.isra.0+0x1a6>
		return -EIO;
    4f40:	f06f 0904 	mvn.w	r9, #4
    4f44:	e7e4      	b.n	4f10 <uarte_instance_init.isra.0+0x1d4>
    4f46:	bf00      	nop
    4f48:	0bad0000 	.word	0x0bad0000
    4f4c:	4001f000 	.word	0x4001f000
    4f50:	000a0210 	.word	0x000a0210
    4f54:	0000a7ff 	.word	0x0000a7ff
    4f58:	0000a8ef 	.word	0x0000a8ef

00004f5c <uarte_nrfx_tx>:
{
    4f5c:	e92d 41f3 	stmdb	sp!, {r0, r1, r4, r5, r6, r7, r8, lr}
    4f60:	4606      	mov	r6, r0
    4f62:	461d      	mov	r5, r3
	return config->uarte_regs;
    4f64:	6873      	ldr	r3, [r6, #4]
	struct uarte_nrfx_data *data = get_dev_data(dev);
    4f66:	6937      	ldr	r7, [r6, #16]
	return config->uarte_regs;
    4f68:	f8d3 c000 	ldr.w	ip, [r3]
	__asm__ volatile(
    4f6c:	f04f 0320 	mov.w	r3, #32
    4f70:	f3ef 8811 	mrs	r8, BASEPRI
    4f74:	f383 8812 	msr	BASEPRI_MAX, r3
    4f78:	f3bf 8f6f 	isb	sy
	if (data->async->tx_size) {
    4f7c:	693c      	ldr	r4, [r7, #16]
    4f7e:	68e3      	ldr	r3, [r4, #12]
    4f80:	b143      	cbz	r3, 4f94 <uarte_nrfx_tx+0x38>
	__asm__ volatile(
    4f82:	f388 8811 	msr	BASEPRI, r8
    4f86:	f3bf 8f6f 	isb	sy
		return -EBUSY;
    4f8a:	f06f 000f 	mvn.w	r0, #15
}
    4f8e:	b002      	add	sp, #8
    4f90:	e8bd 81f0 	ldmia.w	sp!, {r4, r5, r6, r7, r8, pc}
    p_reg->INTENSET = mask;
    4f94:	f44f 0e80 	mov.w	lr, #4194304	; 0x400000
	data->async->tx_size = len;
    4f98:	60e2      	str	r2, [r4, #12]
	data->async->tx_buf = buf;
    4f9a:	60a1      	str	r1, [r4, #8]
    4f9c:	f8cc e304 	str.w	lr, [ip, #772]	; 0x304

#ifndef NRF_DECLARE_ONLY

NRF_STATIC_INLINE bool nrfx_is_in_ram(void const * p_object)
{
    return ((((uint32_t)p_object) & 0xE0000000u) == 0x20000000u);
    4fa0:	f001 4c60 	and.w	ip, r1, #3758096384	; 0xe0000000
	if (nrfx_is_in_ram(buf)) {
    4fa4:	f1bc 5f00 	cmp.w	ip, #536870912	; 0x20000000
    4fa8:	d12c      	bne.n	5004 <uarte_nrfx_tx+0xa8>
		data->async->xfer_len = len;
    4faa:	e9c4 1204 	strd	r1, r2, [r4, #16]
	if (!is_tx_ready(dev)) {
    4fae:	4630      	mov	r0, r6
    4fb0:	f005 fb3b 	bl	a62a <is_tx_ready>
    4fb4:	693b      	ldr	r3, [r7, #16]
    4fb6:	2800      	cmp	r0, #0
    4fb8:	d132      	bne.n	5020 <uarte_nrfx_tx+0xc4>
		data->async->pending_tx = true;
    4fba:	2201      	movs	r2, #1
    4fbc:	f883 20d4 	strb.w	r2, [r3, #212]	; 0xd4
    4fc0:	f388 8811 	msr	BASEPRI, r8
    4fc4:	f3bf 8f6f 	isb	sy
	if (data->uart_config.flow_ctrl == UART_CFG_FLOW_CTRL_RTS_CTS
    4fc8:	7afb      	ldrb	r3, [r7, #11]
    4fca:	2b01      	cmp	r3, #1
    4fcc:	d118      	bne.n	5000 <uarte_nrfx_tx+0xa4>
	    && timeout != SYS_FOREVER_US) {
    4fce:	1c6b      	adds	r3, r5, #1
    4fd0:	d016      	beq.n	5000 <uarte_nrfx_tx+0xa4>
    4fd2:	481a      	ldr	r0, [pc, #104]	; (503c <uarte_nrfx_tx+0xe0>)
    4fd4:	4a1a      	ldr	r2, [pc, #104]	; (5040 <uarte_nrfx_tx+0xe4>)
		k_timer_start(&data->async->tx_timeout_timer, K_USEC(timeout),
    4fd6:	693c      	ldr	r4, [r7, #16]
    4fd8:	ea25 75e5 	bic.w	r5, r5, r5, asr #31
    4fdc:	f44f 4600 	mov.w	r6, #32768	; 0x8000
    4fe0:	2100      	movs	r1, #0
    4fe2:	2300      	movs	r3, #0
    4fe4:	fbc6 0105 	smlal	r0, r1, r6, r5
    4fe8:	f7fb ff1e 	bl	e28 <__aeabi_uldivmod>
    4fec:	3428      	adds	r4, #40	; 0x28
    4fee:	4602      	mov	r2, r0
    4ff0:	460b      	mov	r3, r1
	z_impl_k_timer_start(timer, duration, period);
    4ff2:	2000      	movs	r0, #0
    4ff4:	2100      	movs	r1, #0
    4ff6:	e9cd 0100 	strd	r0, r1, [sp]
    4ffa:	4620      	mov	r0, r4
    4ffc:	f004 f934 	bl	9268 <z_impl_k_timer_start>
	return 0;
    5000:	2000      	movs	r0, #0
    5002:	e7c4      	b.n	4f8e <uarte_nrfx_tx+0x32>
	size_t remaining = data->async->tx_size - data->async->tx_cache_offset;
    5004:	68e2      	ldr	r2, [r4, #12]
		data->async->tx_cache_offset = 0;
    5006:	6223      	str	r3, [r4, #32]
	if (!remaining) {
    5008:	2a00      	cmp	r2, #0
    500a:	d0d0      	beq.n	4fae <uarte_nrfx_tx+0x52>
	size_t len = MIN(remaining, sizeof(data->async->tx_cache));
    500c:	2a08      	cmp	r2, #8
    500e:	bf28      	it	cs
    5010:	2208      	movcs	r2, #8
	data->async->xfer_buf = data->async->tx_cache;
    5012:	f104 0018 	add.w	r0, r4, #24
	data->async->xfer_len = len;
    5016:	6162      	str	r2, [r4, #20]
	data->async->xfer_buf = data->async->tx_cache;
    5018:	6120      	str	r0, [r4, #16]
	memcpy(data->async->tx_cache, &data->async->tx_buf[data->async->tx_cache_offset], len);
    501a:	f005 f8f9 	bl	a210 <memcpy>
	return true;
    501e:	e7c6      	b.n	4fae <uarte_nrfx_tx+0x52>
		data->async->pending_tx = false;
    5020:	2200      	movs	r2, #0
    5022:	f883 20d4 	strb.w	r2, [r3, #212]	; 0xd4
		data->async->tx_amount = -1;
    5026:	f04f 32ff 	mov.w	r2, #4294967295
    502a:	f8c3 20c4 	str.w	r2, [r3, #196]	; 0xc4
		tx_start(dev, data->async->xfer_buf, data->async->xfer_len);
    502e:	4630      	mov	r0, r6
    5030:	e9d3 1204 	ldrd	r1, r2, [r3, #16]
    5034:	f005 fc9e 	bl	a974 <tx_start>
    5038:	e7c2      	b.n	4fc0 <uarte_nrfx_tx+0x64>
    503a:	bf00      	nop
    503c:	000f423f 	.word	0x000f423f
    5040:	000f4240 	.word	0x000f4240

00005044 <uarte_nrfx_poll_out>:
{
    5044:	b5f8      	push	{r3, r4, r5, r6, r7, lr}
	struct uarte_nrfx_data *data = get_dev_data(dev);
    5046:	6906      	ldr	r6, [r0, #16]
{
    5048:	4604      	mov	r4, r0
    504a:	460f      	mov	r7, r1
	bool isr_mode = k_is_in_isr() || k_is_pre_kernel();
    504c:	f005 fe10 	bl	ac70 <k_is_in_isr>
    5050:	b910      	cbnz	r0, 5058 <uarte_nrfx_poll_out+0x14>
	return !z_sys_post_kernel;
    5052:	4b28      	ldr	r3, [pc, #160]	; (50f4 <uarte_nrfx_poll_out+0xb0>)
	if (isr_mode) {
    5054:	781b      	ldrb	r3, [r3, #0]
    5056:	bb5b      	cbnz	r3, 50b0 <uarte_nrfx_poll_out+0x6c>
	__asm__ volatile(
    5058:	f04f 0320 	mov.w	r3, #32
    505c:	f3ef 8111 	mrs	r1, BASEPRI
    5060:	f383 8812 	msr	BASEPRI_MAX, r3
    5064:	f3bf 8f6f 	isb	sy
			if (is_tx_ready(dev)) {
    5068:	4620      	mov	r0, r4
			key = irq_lock();
    506a:	460d      	mov	r5, r1
			if (is_tx_ready(dev)) {
    506c:	f005 fadd 	bl	a62a <is_tx_ready>
    5070:	b1c8      	cbz	r0, 50a6 <uarte_nrfx_poll_out+0x62>
				if (data->async && data->async->tx_size &&
    5072:	6933      	ldr	r3, [r6, #16]
    5074:	b15b      	cbz	r3, 508e <uarte_nrfx_poll_out+0x4a>
    5076:	68da      	ldr	r2, [r3, #12]
    5078:	b14a      	cbz	r2, 508e <uarte_nrfx_poll_out+0x4a>
					data->async->tx_amount < 0) {
    507a:	f8d3 20c4 	ldr.w	r2, [r3, #196]	; 0xc4
				if (data->async && data->async->tx_size &&
    507e:	2a00      	cmp	r2, #0
    5080:	da05      	bge.n	508e <uarte_nrfx_poll_out+0x4a>
	return config->uarte_regs;
    5082:	6862      	ldr	r2, [r4, #4]
    5084:	6812      	ldr	r2, [r2, #0]
    return p_reg->TXD.AMOUNT;
    5086:	f8d2 254c 	ldr.w	r2, [r2, #1356]	; 0x54c
					data->async->tx_amount =
    508a:	f8c3 20c4 	str.w	r2, [r3, #196]	; 0xc4
	data->char_out = c;
    508e:	4631      	mov	r1, r6
	tx_start(dev, &data->char_out, 1);
    5090:	2201      	movs	r2, #1
	data->char_out = c;
    5092:	f801 7f18 	strb.w	r7, [r1, #24]!
	tx_start(dev, &data->char_out, 1);
    5096:	4620      	mov	r0, r4
    5098:	f005 fc6c 	bl	a974 <tx_start>
	__asm__ volatile(
    509c:	f385 8811 	msr	BASEPRI, r5
    50a0:	f3bf 8f6f 	isb	sy
}
    50a4:	bdf8      	pop	{r3, r4, r5, r6, r7, pc}
    50a6:	f381 8811 	msr	BASEPRI, r1
    50aa:	f3bf 8f6f 	isb	sy
}
    50ae:	e7d3      	b.n	5058 <uarte_nrfx_poll_out+0x14>
{
    50b0:	2564      	movs	r5, #100	; 0x64
		NRFX_WAIT_FOR(is_tx_ready(dev), 100, 1, res);
    50b2:	4620      	mov	r0, r4
    50b4:	f005 fab9 	bl	a62a <is_tx_ready>
    50b8:	b948      	cbnz	r0, 50ce <uarte_nrfx_poll_out+0x8a>
    50ba:	2001      	movs	r0, #1
    50bc:	f005 fcd1 	bl	aa62 <nrfx_busy_wait>
    50c0:	3d01      	subs	r5, #1
    50c2:	d1f6      	bne.n	50b2 <uarte_nrfx_poll_out+0x6e>
	return z_impl_k_sleep(timeout);
    50c4:	2100      	movs	r1, #0
    50c6:	2021      	movs	r0, #33	; 0x21
    50c8:	f003 f938 	bl	833c <z_impl_k_sleep>
	return k_sleep(Z_TIMEOUT_MS(ms));
    50cc:	e7f0      	b.n	50b0 <uarte_nrfx_poll_out+0x6c>
	__asm__ volatile(
    50ce:	f04f 0320 	mov.w	r3, #32
    50d2:	f3ef 8511 	mrs	r5, BASEPRI
    50d6:	f383 8812 	msr	BASEPRI_MAX, r3
    50da:	f3bf 8f6f 	isb	sy
			if (is_tx_ready(dev)) {
    50de:	4620      	mov	r0, r4
    50e0:	f005 faa3 	bl	a62a <is_tx_ready>
    50e4:	2800      	cmp	r0, #0
    50e6:	d1d2      	bne.n	508e <uarte_nrfx_poll_out+0x4a>
	__asm__ volatile(
    50e8:	f385 8811 	msr	BASEPRI, r5
    50ec:	f3bf 8f6f 	isb	sy
}
    50f0:	e7e8      	b.n	50c4 <uarte_nrfx_poll_out+0x80>
    50f2:	bf00      	nop
    50f4:	2000115e 	.word	0x2000115e

000050f8 <sys_clock_timeout_handler>:
static void sys_clock_timeout_handler(int32_t chan,
				      uint64_t expire_time,
				      void *user_data)
{
	uint32_t cc_value = absolute_time_to_cc(expire_time);
	uint64_t dticks = (expire_time - last_count) / CYC_PER_TICK;
    50f8:	4919      	ldr	r1, [pc, #100]	; (5160 <sys_clock_timeout_handler+0x68>)
{
    50fa:	b570      	push	{r4, r5, r6, lr}
    50fc:	4604      	mov	r4, r0
	return absolute_time & COUNTER_MAX;
    50fe:	f022 467f 	bic.w	r6, r2, #4278190080	; 0xff000000
	uint64_t dticks = (expire_time - last_count) / CYC_PER_TICK;
    5102:	6808      	ldr	r0, [r1, #0]

	last_count += dticks * CYC_PER_TICK;
    5104:	e9c1 2300 	strd	r2, r3, [r1]
	return (cc_value >= ANCHOR_RANGE_START) && (cc_value < ANCHOR_RANGE_END);
    5108:	f5a6 1300 	sub.w	r3, r6, #2097152	; 0x200000
	uint64_t dticks = (expire_time - last_count) / CYC_PER_TICK;
    510c:	1a10      	subs	r0, r2, r0
	if (in_anchor_range(cc_value)) {
    510e:	f5b3 0f40 	cmp.w	r3, #12582912	; 0xc00000
    5112:	f04f 0500 	mov.w	r5, #0
    5116:	d20a      	bcs.n	512e <sys_clock_timeout_handler+0x36>
		anchor = (((uint64_t)overflow_cnt) << COUNTER_BIT_WIDTH) + cc_value;
    5118:	4b12      	ldr	r3, [pc, #72]	; (5164 <sys_clock_timeout_handler+0x6c>)
    511a:	6819      	ldr	r1, [r3, #0]
    511c:	060a      	lsls	r2, r1, #24
    511e:	0a0b      	lsrs	r3, r1, #8
    5120:	1992      	adds	r2, r2, r6
    5122:	4911      	ldr	r1, [pc, #68]	; (5168 <sys_clock_timeout_handler+0x70>)
    5124:	f143 0300 	adc.w	r3, r3, #0
    5128:	e9c1 2300 	strd	r2, r3, [r1]
		return true;
    512c:	2501      	movs	r5, #1
		 */
		compare_set(chan, last_count + CYC_PER_TICK,
					  sys_clock_timeout_handler, NULL);
	}

	sys_clock_announce(IS_ENABLED(CONFIG_TICKLESS_KERNEL) ?
    512e:	f003 fecb 	bl	8ec8 <sys_clock_announce>
    p_reg->CC[ch] = cc_val;
}

NRF_STATIC_INLINE  uint32_t nrf_rtc_cc_get(NRF_RTC_Type const * p_reg, uint32_t ch)
{
    return p_reg->CC[ch];
    5132:	00a3      	lsls	r3, r4, #2
    5134:	f103 4380 	add.w	r3, r3, #1073741824	; 0x40000000
    5138:	f503 3388 	add.w	r3, r3, #69632	; 0x11000
    513c:	f8d3 2540 	ldr.w	r2, [r3, #1344]	; 0x540
			   (int32_t)dticks : (dticks > 0));

	if (cc_value == get_comparator(chan)) {
    5140:	42b2      	cmp	r2, r6
    5142:	d10b      	bne.n	515c <sys_clock_timeout_handler+0x64>
		 * If anchor was updated we can enable same CC value to trigger
		 * interrupt after full cycle. Else set event in anchor update
		 * range. Since anchor was not updated we know that it's very
		 * far from mid point so setting is done without any protection.
		 */
		if (!anchor_updated) {
    5144:	b91d      	cbnz	r5, 514e <sys_clock_timeout_handler+0x56>
    p_reg->CC[ch] = cc_val;
    5146:	f44f 0200 	mov.w	r2, #8388608	; 0x800000
    514a:	f8c3 2540 	str.w	r2, [r3, #1344]	; 0x540
    *(__IO uint32_t *)((uint32_t)p_reg + task) = 1;
}

NRF_STATIC_INLINE void nrf_rtc_event_enable(NRF_RTC_Type * p_reg, uint32_t mask)
{
    p_reg->EVTENSET = mask;
    514e:	4b07      	ldr	r3, [pc, #28]	; (516c <sys_clock_timeout_handler+0x74>)
	nrf_rtc_event_enable(RTC, RTC_CHANNEL_INT_MASK(chan));
    5150:	f44f 3080 	mov.w	r0, #65536	; 0x10000
    5154:	fa00 f404 	lsl.w	r4, r0, r4
    5158:	f8c3 4344 	str.w	r4, [r3, #836]	; 0x344
			set_comparator(chan, COUNTER_HALF_SPAN);
		}
		event_enable(chan);
	}
}
    515c:	bd70      	pop	{r4, r5, r6, pc}
    515e:	bf00      	nop
    5160:	20000538 	.word	0x20000538
    5164:	20000e34 	.word	0x20000e34
    5168:	20000520 	.word	0x20000520
    516c:	40011000 	.word	0x40011000

00005170 <compare_int_lock>:
{
    5170:	b510      	push	{r4, lr}
	atomic_val_t prev = atomic_and(&int_mask, ~BIT(chan));
    5172:	2301      	movs	r3, #1
    5174:	4083      	lsls	r3, r0
	return __atomic_fetch_and(target, value, __ATOMIC_SEQ_CST);
    5176:	4a11      	ldr	r2, [pc, #68]	; (51bc <compare_int_lock+0x4c>)
    5178:	f3bf 8f5b 	dmb	ish
    517c:	43dc      	mvns	r4, r3
    517e:	e852 1f00 	ldrex	r1, [r2]
    5182:	ea01 0c04 	and.w	ip, r1, r4
    5186:	e842 ce00 	strex	lr, ip, [r2]
    518a:	f1be 0f00 	cmp.w	lr, #0
    518e:	d1f6      	bne.n	517e <compare_int_lock+0xe>
    5190:	f3bf 8f5b 	dmb	ish
	nrf_rtc_int_disable(RTC, RTC_CHANNEL_INT_MASK(chan));
    5194:	f44f 3280 	mov.w	r2, #65536	; 0x10000
    5198:	fa02 f000 	lsl.w	r0, r2, r0
    p_reg->INTENCLR = mask;
    519c:	f102 4280 	add.w	r2, r2, #1073741824	; 0x40000000
    51a0:	f502 5280 	add.w	r2, r2, #4096	; 0x1000
    51a4:	f8c2 0308 	str.w	r0, [r2, #776]	; 0x308
  __ASM volatile ("dmb 0xF":::"memory");
    51a8:	f3bf 8f5f 	dmb	sy
  __ASM volatile ("isb 0xF":::"memory");
    51ac:	f3bf 8f6f 	isb	sy
	return prev & BIT(chan);
    51b0:	420b      	tst	r3, r1
}
    51b2:	bf14      	ite	ne
    51b4:	2001      	movne	r0, #1
    51b6:	2000      	moveq	r0, #0
    51b8:	bd10      	pop	{r4, pc}
    51ba:	bf00      	nop
    51bc:	20000e30 	.word	0x20000e30

000051c0 <compare_int_unlock.part.0>:
		atomic_or(&int_mask, BIT(chan));
    51c0:	2301      	movs	r3, #1
	return __atomic_fetch_or(target, value, __ATOMIC_SEQ_CST);
    51c2:	4a12      	ldr	r2, [pc, #72]	; (520c <compare_int_unlock.part.0+0x4c>)
    51c4:	f3bf 8f5b 	dmb	ish
    51c8:	4083      	lsls	r3, r0
    51ca:	e852 1f00 	ldrex	r1, [r2]
    51ce:	4319      	orrs	r1, r3
    51d0:	e842 1c00 	strex	ip, r1, [r2]
    51d4:	f1bc 0f00 	cmp.w	ip, #0
    51d8:	d1f7      	bne.n	51ca <compare_int_unlock.part.0+0xa>
    51da:	f3bf 8f5b 	dmb	ish
    p_reg->INTENSET = mask;
    51de:	4a0c      	ldr	r2, [pc, #48]	; (5210 <compare_int_unlock.part.0+0x50>)
		nrf_rtc_int_enable(RTC, RTC_CHANNEL_INT_MASK(chan));
    51e0:	f44f 3380 	mov.w	r3, #65536	; 0x10000
    51e4:	4083      	lsls	r3, r0
    51e6:	f8c2 3304 	str.w	r3, [r2, #772]	; 0x304
	return __atomic_load_n(target, __ATOMIC_SEQ_CST);
    51ea:	4b0a      	ldr	r3, [pc, #40]	; (5214 <compare_int_unlock.part.0+0x54>)
    51ec:	f3bf 8f5b 	dmb	ish
    51f0:	681b      	ldr	r3, [r3, #0]
    51f2:	f3bf 8f5b 	dmb	ish
		if (atomic_get(&force_isr_mask) & BIT(chan)) {
    51f6:	fa23 f000 	lsr.w	r0, r3, r0
    51fa:	07c3      	lsls	r3, r0, #31
    NVIC->ISPR[(((uint32_t)IRQn) >> 5UL)] = (uint32_t)(1UL << (((uint32_t)IRQn) & 0x1FUL));
    51fc:	bf42      	ittt	mi
    51fe:	4b06      	ldrmi	r3, [pc, #24]	; (5218 <compare_int_unlock.part.0+0x58>)
    5200:	f44f 3200 	movmi.w	r2, #131072	; 0x20000
    5204:	f8c3 2100 	strmi.w	r2, [r3, #256]	; 0x100
}
    5208:	4770      	bx	lr
    520a:	bf00      	nop
    520c:	20000e30 	.word	0x20000e30
    5210:	40011000 	.word	0x40011000
    5214:	20000e2c 	.word	0x20000e2c
    5218:	e000e100 	.word	0xe000e100

0000521c <z_nrf_rtc_timer_read>:
	uint64_t val = ((uint64_t)overflow_cnt) << COUNTER_BIT_WIDTH;
    521c:	4b0d      	ldr	r3, [pc, #52]	; (5254 <z_nrf_rtc_timer_read+0x38>)
    521e:	681b      	ldr	r3, [r3, #0]
    5220:	0a19      	lsrs	r1, r3, #8
    5222:	0618      	lsls	r0, r3, #24
  __ASM volatile ("dmb 0xF":::"memory");
    5224:	f3bf 8f5f 	dmb	sy
     return p_reg->COUNTER;
    5228:	4b0b      	ldr	r3, [pc, #44]	; (5258 <z_nrf_rtc_timer_read+0x3c>)
    522a:	f8d3 3504 	ldr.w	r3, [r3, #1284]	; 0x504
	val += cntr;
    522e:	18c0      	adds	r0, r0, r3
    5230:	f141 0100 	adc.w	r1, r1, #0
	if (cntr < OVERFLOW_RISK_RANGE_END) {
    5234:	f5b3 1f80 	cmp.w	r3, #1048576	; 0x100000
    5238:	d20a      	bcs.n	5250 <z_nrf_rtc_timer_read+0x34>
		if (val < anchor) {
    523a:	4b08      	ldr	r3, [pc, #32]	; (525c <z_nrf_rtc_timer_read+0x40>)
    523c:	e9d3 2300 	ldrd	r2, r3, [r3]
    5240:	4299      	cmp	r1, r3
    5242:	bf08      	it	eq
    5244:	4290      	cmpeq	r0, r2
    5246:	d203      	bcs.n	5250 <z_nrf_rtc_timer_read+0x34>
			val += COUNTER_SPAN;
    5248:	f110 7080 	adds.w	r0, r0, #16777216	; 0x1000000
    524c:	f141 0100 	adc.w	r1, r1, #0
}
    5250:	4770      	bx	lr
    5252:	bf00      	nop
    5254:	20000e34 	.word	0x20000e34
    5258:	40011000 	.word	0x40011000
    525c:	20000520 	.word	0x20000520

00005260 <compare_set>:
{
    5260:	e92d 4ff0 	stmdb	sp!, {r4, r5, r6, r7, r8, r9, sl, fp, lr}
    5264:	b085      	sub	sp, #20
    5266:	4616      	mov	r6, r2
    5268:	461f      	mov	r7, r3
    526a:	4605      	mov	r5, r0
	key = compare_int_lock(chan);
    526c:	f7ff ff80 	bl	5170 <compare_int_lock>
    5270:	9001      	str	r0, [sp, #4]
	uint64_t curr_time = z_nrf_rtc_timer_read();
    5272:	f7ff ffd3 	bl	521c <z_nrf_rtc_timer_read>
	if (curr_time < target_time) {
    5276:	42b9      	cmp	r1, r7
    5278:	bf08      	it	eq
    527a:	42b0      	cmpeq	r0, r6
    527c:	d27f      	bcs.n	537e <compare_set+0x11e>
		if (target_time - curr_time > COUNTER_SPAN) {
    527e:	ebb6 0800 	subs.w	r8, r6, r0
    5282:	eb67 0901 	sbc.w	r9, r7, r1
    5286:	2300      	movs	r3, #0
    5288:	f04f 7280 	mov.w	r2, #16777216	; 0x1000000
    528c:	454b      	cmp	r3, r9
    528e:	bf08      	it	eq
    5290:	4542      	cmpeq	r2, r8
    5292:	f0c0 8085 	bcc.w	53a0 <compare_set+0x140>
		if (target_time != cc_data[chan].target_time) {
    5296:	4b44      	ldr	r3, [pc, #272]	; (53a8 <compare_set+0x148>)
    5298:	eb03 1305 	add.w	r3, r3, r5, lsl #4
    529c:	e9d3 2302 	ldrd	r2, r3, [r3, #8]
    52a0:	429f      	cmp	r7, r3
    52a2:	bf08      	it	eq
    52a4:	4296      	cmpeq	r6, r2
    52a6:	d054      	beq.n	5352 <compare_set+0xf2>
    52a8:	ea4f 0985 	mov.w	r9, r5, lsl #2
	nrf_rtc_event_enable(RTC, RTC_CHANNEL_INT_MASK(chan));
    52ac:	f44f 3b80 	mov.w	fp, #65536	; 0x10000
    52b0:	f109 4980 	add.w	r9, r9, #1073741824	; 0x40000000
	nrf_rtc_event_clear(RTC, RTC_CHANNEL_EVENT_ADDR(chan));
    52b4:	f105 0850 	add.w	r8, r5, #80	; 0x50
	nrf_rtc_event_enable(RTC, RTC_CHANNEL_INT_MASK(chan));
    52b8:	fa0b f205 	lsl.w	r2, fp, r5
    52bc:	f509 3988 	add.w	r9, r9, #69632	; 0x11000
	nrf_rtc_event_clear(RTC, RTC_CHANNEL_EVENT_ADDR(chan));
    52c0:	ea4f 0888 	mov.w	r8, r8, lsl #2
    *((volatile uint32_t *)((uint8_t *)p_reg + (uint32_t)event)) = 0;
    52c4:	fa1f f888 	uxth.w	r8, r8
	nrf_rtc_event_enable(RTC, RTC_CHANNEL_INT_MASK(chan));
    52c8:	9202      	str	r2, [sp, #8]
     return p_reg->COUNTER;
    52ca:	4a38      	ldr	r2, [pc, #224]	; (53ac <compare_set+0x14c>)
    return p_reg->CC[ch];
    52cc:	f8d9 0540 	ldr.w	r0, [r9, #1344]	; 0x540
	return absolute_time & COUNTER_MAX;
    52d0:	f026 437f 	bic.w	r3, r6, #4278190080	; 0xff000000
    *((volatile uint32_t *)((uint8_t *)p_reg + (uint32_t)event)) = 0;
    52d4:	f108 4880 	add.w	r8, r8, #1073741824	; 0x40000000
    52d8:	f508 3888 	add.w	r8, r8, #69632	; 0x11000
	uint32_t cc_val = abs_val & COUNTER_MAX;
    52dc:	461c      	mov	r4, r3
    52de:	4693      	mov	fp, r2
     return p_reg->COUNTER;
    52e0:	f8d2 a504 	ldr.w	sl, [r2, #1284]	; 0x504
	return (a - b) & COUNTER_MAX;
    52e4:	eba0 000a 	sub.w	r0, r0, sl
    52e8:	f020 407f 	bic.w	r0, r0, #4278190080	; 0xff000000
	nrf_rtc_cc_set(RTC, chan, cyc & COUNTER_MAX);
    52ec:	f02a 417f 	bic.w	r1, sl, #4278190080	; 0xff000000
		if (counter_sub(prev_cc, now) == 1) {
    52f0:	2801      	cmp	r0, #1
    p_reg->CC[ch] = cc_val;
    52f2:	f8c9 1540 	str.w	r1, [r9, #1344]	; 0x540
    52f6:	d105      	bne.n	5304 <compare_set+0xa4>
    52f8:	9303      	str	r3, [sp, #12]
	z_impl_k_busy_wait(usec_to_wait);
    52fa:	2013      	movs	r0, #19
    52fc:	f005 fcc9 	bl	ac92 <z_impl_k_busy_wait>
    5300:	4a2a      	ldr	r2, [pc, #168]	; (53ac <compare_set+0x14c>)
    5302:	9b03      	ldr	r3, [sp, #12]
    p_reg->EVTENSET = mask;
    5304:	9902      	ldr	r1, [sp, #8]
		if (counter_sub(cc_val, now + 2) > COUNTER_HALF_SPAN) {
    5306:	f10a 0c02 	add.w	ip, sl, #2
	return (a - b) & COUNTER_MAX;
    530a:	eba4 000c 	sub.w	r0, r4, ip
    530e:	f020 407f 	bic.w	r0, r0, #4278190080	; 0xff000000
			cc_val = now + 2;
    5312:	f5b0 0f00 	cmp.w	r0, #8388608	; 0x800000
    5316:	bf88      	it	hi
    5318:	4664      	movhi	r4, ip
    *((volatile uint32_t *)((uint8_t *)p_reg + (uint32_t)event)) = 0;
    531a:	2000      	movs	r0, #0
    531c:	f8c8 0000 	str.w	r0, [r8]
    5320:	f8d8 0000 	ldr.w	r0, [r8]
    p_reg->EVTENSET = mask;
    5324:	f8cb 1344 	str.w	r1, [fp, #836]	; 0x344
	nrf_rtc_cc_set(RTC, chan, cyc & COUNTER_MAX);
    5328:	f024 407f 	bic.w	r0, r4, #4278190080	; 0xff000000
    p_reg->CC[ch] = cc_val;
    532c:	f8c9 0540 	str.w	r0, [r9, #1344]	; 0x540
     return p_reg->COUNTER;
    5330:	f8db 0504 	ldr.w	r0, [fp, #1284]	; 0x504
		 (counter_sub(cc_val, now2 + 2) > COUNTER_HALF_SPAN));
    5334:	4582      	cmp	sl, r0
    5336:	d006      	beq.n	5346 <compare_set+0xe6>
	return (a - b) & COUNTER_MAX;
    5338:	1a20      	subs	r0, r4, r0
    533a:	3802      	subs	r0, #2
    533c:	f020 407f 	bic.w	r0, r0, #4278190080	; 0xff000000
	} while ((now2 != now) &&
    5340:	f5b0 0f00 	cmp.w	r0, #8388608	; 0x800000
    5344:	d819      	bhi.n	537a <compare_set+0x11a>
	return (a - b) & COUNTER_MAX;
    5346:	1ae4      	subs	r4, r4, r3
    5348:	f024 447f 	bic.w	r4, r4, #4278190080	; 0xff000000
			target_time += counter_sub(cc_set, cc_value);
    534c:	1932      	adds	r2, r6, r4
    534e:	f147 0300 	adc.w	r3, r7, #0
	cc_data[chan].target_time = target_time;
    5352:	4c15      	ldr	r4, [pc, #84]	; (53a8 <compare_set+0x148>)
    5354:	0129      	lsls	r1, r5, #4
    5356:	eb04 1005 	add.w	r0, r4, r5, lsl #4
    535a:	e9c0 2302 	strd	r2, r3, [r0, #8]
	cc_data[chan].callback = handler;
    535e:	9a0e      	ldr	r2, [sp, #56]	; 0x38
	cc_data[chan].user_context = user_data;
    5360:	9b0f      	ldr	r3, [sp, #60]	; 0x3c
	cc_data[chan].callback = handler;
    5362:	5062      	str	r2, [r4, r1]
	cc_data[chan].user_context = user_data;
    5364:	6043      	str	r3, [r0, #4]
	return ret;
    5366:	2400      	movs	r4, #0
	if (key) {
    5368:	9b01      	ldr	r3, [sp, #4]
    536a:	b113      	cbz	r3, 5372 <compare_set+0x112>
    536c:	4628      	mov	r0, r5
    536e:	f7ff ff27 	bl	51c0 <compare_int_unlock.part.0>
}
    5372:	4620      	mov	r0, r4
    5374:	b005      	add	sp, #20
    5376:	e8bd 8ff0 	ldmia.w	sp!, {r4, r5, r6, r7, r8, r9, sl, fp, pc}
    537a:	4620      	mov	r0, r4
    537c:	e7b0      	b.n	52e0 <compare_set+0x80>
		atomic_or(&force_isr_mask, BIT(chan));
    537e:	2301      	movs	r3, #1
	return __atomic_fetch_or(target, value, __ATOMIC_SEQ_CST);
    5380:	4a0b      	ldr	r2, [pc, #44]	; (53b0 <compare_set+0x150>)
    5382:	f3bf 8f5b 	dmb	ish
    5386:	40ab      	lsls	r3, r5
    5388:	e852 1f00 	ldrex	r1, [r2]
    538c:	4319      	orrs	r1, r3
    538e:	e842 1000 	strex	r0, r1, [r2]
    5392:	2800      	cmp	r0, #0
    5394:	d1f8      	bne.n	5388 <compare_set+0x128>
    5396:	f3bf 8f5b 	dmb	ish
    539a:	4632      	mov	r2, r6
    539c:	463b      	mov	r3, r7
    539e:	e7d8      	b.n	5352 <compare_set+0xf2>
			return -EINVAL;
    53a0:	f06f 0415 	mvn.w	r4, #21
    53a4:	e7e0      	b.n	5368 <compare_set+0x108>
    53a6:	bf00      	nop
    53a8:	20000528 	.word	0x20000528
    53ac:	40011000 	.word	0x40011000
    53b0:	20000e2c 	.word	0x20000e2c

000053b4 <sys_clock_driver_init>:
{
	return (uint32_t)z_nrf_rtc_timer_read();
}

static int sys_clock_driver_init(const struct device *dev)
{
    53b4:	b573      	push	{r0, r1, r4, r5, r6, lr}
			CLOCK_CONTROL_NRF_LF_START_STABLE);

	/* TODO: replace with counter driver to access RTC */
	nrf_rtc_prescaler_set(RTC, 0);
	for (int32_t chan = 0; chan < CHAN_COUNT; chan++) {
		cc_data[chan].target_time = TARGET_TIME_INVALID;
    53b6:	4b19      	ldr	r3, [pc, #100]	; (541c <sys_clock_driver_init+0x68>)
    p_reg->PRESCALER = val;
    53b8:	4d19      	ldr	r5, [pc, #100]	; (5420 <sys_clock_driver_init+0x6c>)
    53ba:	2400      	movs	r4, #0
    53bc:	f04f 30ff 	mov.w	r0, #4294967295
    53c0:	f04f 31ff 	mov.w	r1, #4294967295
    53c4:	f8c5 4508 	str.w	r4, [r5, #1288]	; 0x508
    53c8:	e9c3 0102 	strd	r0, r1, [r3, #8]
    p_reg->INTENSET = mask;
    53cc:	f44f 3380 	mov.w	r3, #65536	; 0x10000
    53d0:	f8c5 3304 	str.w	r3, [r5, #772]	; 0x304
    NVIC->ICPR[(((uint32_t)IRQn) >> 5UL)] = (uint32_t)(1UL << (((uint32_t)IRQn) & 0x1FUL));
    53d4:	4b13      	ldr	r3, [pc, #76]	; (5424 <sys_clock_driver_init+0x70>)
    53d6:	2602      	movs	r6, #2
    53d8:	f44f 3200 	mov.w	r2, #131072	; 0x20000

	nrf_rtc_int_enable(RTC, NRF_RTC_INT_OVERFLOW_MASK);

	NVIC_ClearPendingIRQ(RTC_IRQn);

	IRQ_CONNECT(RTC_IRQn, DT_IRQ(DT_NODELABEL(RTC_LABEL), priority),
    53dc:	2101      	movs	r1, #1
    53de:	f8c5 6304 	str.w	r6, [r5, #772]	; 0x304
    53e2:	2011      	movs	r0, #17
    53e4:	f8c3 2180 	str.w	r2, [r3, #384]	; 0x180
    53e8:	4622      	mov	r2, r4
    53ea:	f7fd ffdd 	bl	33a8 <z_arm_irq_priority_set>
		    rtc_nrf_isr, 0, 0);
	irq_enable(RTC_IRQn);
    53ee:	2011      	movs	r0, #17
    53f0:	f7fd ffbc 	bl	336c <arch_irq_enable>
    *(__IO uint32_t *)((uint32_t)p_reg + task) = 1;
    53f4:	4a0c      	ldr	r2, [pc, #48]	; (5428 <sys_clock_driver_init+0x74>)
    53f6:	2301      	movs	r3, #1
    53f8:	6013      	str	r3, [r2, #0]

	nrf_rtc_task_trigger(RTC, NRF_RTC_TASK_CLEAR);
	nrf_rtc_task_trigger(RTC, NRF_RTC_TASK_START);

	int_mask = BIT_MASK(CHAN_COUNT);
    53fa:	4a0c      	ldr	r2, [pc, #48]	; (542c <sys_clock_driver_init+0x78>)
    53fc:	602b      	str	r3, [r5, #0]
    53fe:	6013      	str	r3, [r2, #0]

	uint32_t initial_timeout = IS_ENABLED(CONFIG_TICKLESS_KERNEL) ?
		(COUNTER_HALF_SPAN - 1) :
		(counter() + CYC_PER_TICK);

	compare_set(0, initial_timeout, sys_clock_timeout_handler, NULL);
    5400:	4b0b      	ldr	r3, [pc, #44]	; (5430 <sys_clock_driver_init+0x7c>)
    5402:	4a0c      	ldr	r2, [pc, #48]	; (5434 <sys_clock_driver_init+0x80>)
    5404:	9300      	str	r3, [sp, #0]
    5406:	9401      	str	r4, [sp, #4]
    5408:	2300      	movs	r3, #0
    540a:	4620      	mov	r0, r4
    540c:	f7ff ff28 	bl	5260 <compare_set>

	z_nrf_clock_control_lf_on(mode);
    5410:	4630      	mov	r0, r6
    5412:	f7fe ff9d 	bl	4350 <z_nrf_clock_control_lf_on>

	return 0;
}
    5416:	4620      	mov	r0, r4
    5418:	b002      	add	sp, #8
    541a:	bd70      	pop	{r4, r5, r6, pc}
    541c:	20000528 	.word	0x20000528
    5420:	40011000 	.word	0x40011000
    5424:	e000e100 	.word	0xe000e100
    5428:	40011008 	.word	0x40011008
    542c:	20000e30 	.word	0x20000e30
    5430:	000050f9 	.word	0x000050f9
    5434:	007fffff 	.word	0x007fffff

00005438 <rtc_nrf_isr>:
{
    5438:	e92d 43f7 	stmdb	sp!, {r0, r1, r2, r4, r5, r6, r7, r8, r9, lr}
    return p_reg->INTENSET & mask;
    543c:	4c34      	ldr	r4, [pc, #208]	; (5510 <rtc_nrf_isr+0xd8>)
    543e:	f8d4 3304 	ldr.w	r3, [r4, #772]	; 0x304
	if (nrf_rtc_int_enable_check(RTC, NRF_RTC_INT_OVERFLOW_MASK) &&
    5442:	079a      	lsls	r2, r3, #30
    5444:	d509      	bpl.n	545a <rtc_nrf_isr+0x22>
    return (bool)*(volatile uint32_t *)((uint8_t *)p_reg + (uint32_t)event);
    5446:	4b33      	ldr	r3, [pc, #204]	; (5514 <rtc_nrf_isr+0xdc>)
    5448:	681a      	ldr	r2, [r3, #0]
    544a:	b132      	cbz	r2, 545a <rtc_nrf_isr+0x22>
    *((volatile uint32_t *)((uint8_t *)p_reg + (uint32_t)event)) = 0;
    544c:	2200      	movs	r2, #0
    544e:	601a      	str	r2, [r3, #0]
		overflow_cnt++;
    5450:	4a31      	ldr	r2, [pc, #196]	; (5518 <rtc_nrf_isr+0xe0>)
    5452:	681b      	ldr	r3, [r3, #0]
    5454:	6813      	ldr	r3, [r2, #0]
    5456:	3301      	adds	r3, #1
    5458:	6013      	str	r3, [r2, #0]
	__asm__ volatile(
    545a:	f04f 0320 	mov.w	r3, #32
    545e:	f3ef 8211 	mrs	r2, BASEPRI
    5462:	f383 8812 	msr	BASEPRI_MAX, r3
    5466:	f3bf 8f6f 	isb	sy
    return p_reg->INTENSET & mask;
    546a:	f8d4 3304 	ldr.w	r3, [r4, #772]	; 0x304
	if (nrf_rtc_int_enable_check(RTC, RTC_CHANNEL_INT_MASK(chan))) {
    546e:	03db      	lsls	r3, r3, #15
    5470:	d512      	bpl.n	5498 <rtc_nrf_isr+0x60>
	return __atomic_fetch_and(target, value, __ATOMIC_SEQ_CST);
    5472:	f3bf 8f5b 	dmb	ish
    5476:	4b29      	ldr	r3, [pc, #164]	; (551c <rtc_nrf_isr+0xe4>)
    5478:	e853 1f00 	ldrex	r1, [r3]
    547c:	f021 0001 	bic.w	r0, r1, #1
    5480:	e843 0600 	strex	r6, r0, [r3]
    5484:	2e00      	cmp	r6, #0
    5486:	d1f7      	bne.n	5478 <rtc_nrf_isr+0x40>
    5488:	f3bf 8f5b 	dmb	ish
    548c:	4b24      	ldr	r3, [pc, #144]	; (5520 <rtc_nrf_isr+0xe8>)
		result = atomic_and(&force_isr_mask, ~BIT(chan)) ||
    548e:	2900      	cmp	r1, #0
    5490:	d136      	bne.n	5500 <rtc_nrf_isr+0xc8>
    return (bool)*(volatile uint32_t *)((uint8_t *)p_reg + (uint32_t)event);
    5492:	6819      	ldr	r1, [r3, #0]
		if (result) {
    5494:	2900      	cmp	r1, #0
    5496:	d133      	bne.n	5500 <rtc_nrf_isr+0xc8>
{
    5498:	2300      	movs	r3, #0
	__asm__ volatile(
    549a:	f382 8811 	msr	BASEPRI, r2
    549e:	f3bf 8f6f 	isb	sy
	if (channel_processing_check_and_clear(chan)) {
    54a2:	b353      	cbz	r3, 54fa <rtc_nrf_isr+0xc2>
		curr_time = z_nrf_rtc_timer_read();
    54a4:	f7ff feba 	bl	521c <z_nrf_rtc_timer_read>
    54a8:	4606      	mov	r6, r0
	__asm__ volatile(
    54aa:	f04f 0320 	mov.w	r3, #32
    54ae:	f3ef 8011 	mrs	r0, BASEPRI
    54b2:	f383 8812 	msr	BASEPRI_MAX, r3
    54b6:	f3bf 8f6f 	isb	sy
		expire_time = cc_data[chan].target_time;
    54ba:	4b1a      	ldr	r3, [pc, #104]	; (5524 <rtc_nrf_isr+0xec>)
    54bc:	e9d3 8902 	ldrd	r8, r9, [r3, #8]
		if (curr_time >= expire_time) {
    54c0:	4549      	cmp	r1, r9
    54c2:	bf08      	it	eq
    54c4:	4546      	cmpeq	r6, r8
    54c6:	f04f 0200 	mov.w	r2, #0
    54ca:	d31e      	bcc.n	550a <rtc_nrf_isr+0xd2>
			cc_data[chan].target_time = TARGET_TIME_INVALID;
    54cc:	f04f 36ff 	mov.w	r6, #4294967295
    54d0:	f04f 37ff 	mov.w	r7, #4294967295
			user_context = cc_data[chan].user_context;
    54d4:	e9d3 1500 	ldrd	r1, r5, [r3]
			cc_data[chan].target_time = TARGET_TIME_INVALID;
    54d8:	e9c3 6702 	strd	r6, r7, [r3, #8]
			cc_data[chan].callback = NULL;
    54dc:	601a      	str	r2, [r3, #0]
}

NRF_STATIC_INLINE void nrf_rtc_event_disable(NRF_RTC_Type * p_reg, uint32_t mask)
{
    p_reg->EVTENCLR = mask;
    54de:	f44f 3380 	mov.w	r3, #65536	; 0x10000
    54e2:	f8c4 3348 	str.w	r3, [r4, #840]	; 0x348
	__asm__ volatile(
    54e6:	f380 8811 	msr	BASEPRI, r0
    54ea:	f3bf 8f6f 	isb	sy
		if (handler) {
    54ee:	b121      	cbz	r1, 54fa <rtc_nrf_isr+0xc2>
			handler(chan, expire_time, user_context);
    54f0:	9500      	str	r5, [sp, #0]
    54f2:	4642      	mov	r2, r8
    54f4:	464b      	mov	r3, r9
    54f6:	2000      	movs	r0, #0
    54f8:	4788      	blx	r1
}
    54fa:	b003      	add	sp, #12
    54fc:	e8bd 83f0 	ldmia.w	sp!, {r4, r5, r6, r7, r8, r9, pc}
    *((volatile uint32_t *)((uint8_t *)p_reg + (uint32_t)event)) = 0;
    5500:	2100      	movs	r1, #0
    5502:	6019      	str	r1, [r3, #0]
    5504:	681b      	ldr	r3, [r3, #0]
		result = atomic_and(&force_isr_mask, ~BIT(chan)) ||
    5506:	2301      	movs	r3, #1
}
    5508:	e7c7      	b.n	549a <rtc_nrf_isr+0x62>
		z_nrf_rtc_timer_compare_handler_t handler = NULL;
    550a:	4611      	mov	r1, r2
    550c:	e7eb      	b.n	54e6 <rtc_nrf_isr+0xae>
    550e:	bf00      	nop
    5510:	40011000 	.word	0x40011000
    5514:	40011104 	.word	0x40011104
    5518:	20000e34 	.word	0x20000e34
    551c:	20000e2c 	.word	0x20000e2c
    5520:	40011140 	.word	0x40011140
    5524:	20000528 	.word	0x20000528

00005528 <sys_clock_set_timeout>:
	ticks = (ticks == K_TICKS_FOREVER) ? MAX_TICKS : ticks;
    5528:	4b14      	ldr	r3, [pc, #80]	; (557c <sys_clock_set_timeout+0x54>)
{
    552a:	b513      	push	{r0, r1, r4, lr}
	ticks = (ticks == K_TICKS_FOREVER) ? MAX_TICKS : ticks;
    552c:	f1b0 3fff 	cmp.w	r0, #4294967295
    5530:	bf08      	it	eq
    5532:	4618      	moveq	r0, r3
	ticks = CLAMP(ticks - 1, 0, (int32_t)MAX_TICKS);
    5534:	1e44      	subs	r4, r0, #1
    5536:	2c00      	cmp	r4, #0
    5538:	dd1e      	ble.n	5578 <sys_clock_set_timeout+0x50>
    553a:	429c      	cmp	r4, r3
    553c:	bfa8      	it	ge
    553e:	461c      	movge	r4, r3
	uint32_t unannounced = z_nrf_rtc_timer_read() - last_count;
    5540:	f7ff fe6c 	bl	521c <z_nrf_rtc_timer_read>
    5544:	4b0e      	ldr	r3, [pc, #56]	; (5580 <sys_clock_set_timeout+0x58>)
	compare_set(0, target_time, sys_clock_timeout_handler, NULL);
    5546:	490f      	ldr	r1, [pc, #60]	; (5584 <sys_clock_set_timeout+0x5c>)
	uint32_t unannounced = z_nrf_rtc_timer_read() - last_count;
    5548:	e9d3 2300 	ldrd	r2, r3, [r3]
    554c:	1a80      	subs	r0, r0, r2
		ticks = 0;
    554e:	f5b0 0f00 	cmp.w	r0, #8388608	; 0x800000
    5552:	bf28      	it	cs
    5554:	2400      	movcs	r4, #0
	cyc = ticks * CYC_PER_TICK + 1 + unannounced;
    5556:	3001      	adds	r0, #1
    5558:	4404      	add	r4, r0
	uint64_t target_time = cyc + last_count;
    555a:	4808      	ldr	r0, [pc, #32]	; (557c <sys_clock_set_timeout+0x54>)
	compare_set(0, target_time, sys_clock_timeout_handler, NULL);
    555c:	9100      	str	r1, [sp, #0]
	uint64_t target_time = cyc + last_count;
    555e:	4284      	cmp	r4, r0
    5560:	bf28      	it	cs
    5562:	4604      	movcs	r4, r0
	compare_set(0, target_time, sys_clock_timeout_handler, NULL);
    5564:	1912      	adds	r2, r2, r4
    5566:	f04f 0000 	mov.w	r0, #0
    556a:	9001      	str	r0, [sp, #4]
    556c:	f143 0300 	adc.w	r3, r3, #0
    5570:	f7ff fe76 	bl	5260 <compare_set>
}
    5574:	b002      	add	sp, #8
    5576:	bd10      	pop	{r4, pc}
	ticks = CLAMP(ticks - 1, 0, (int32_t)MAX_TICKS);
    5578:	2400      	movs	r4, #0
    557a:	e7e1      	b.n	5540 <sys_clock_set_timeout+0x18>
    557c:	007fffff 	.word	0x007fffff
    5580:	20000538 	.word	0x20000538
    5584:	000050f9 	.word	0x000050f9

00005588 <sys_clock_elapsed>:
{
    5588:	b508      	push	{r3, lr}
	return (z_nrf_rtc_timer_read() - last_count) / CYC_PER_TICK;
    558a:	f7ff fe47 	bl	521c <z_nrf_rtc_timer_read>
    558e:	4b02      	ldr	r3, [pc, #8]	; (5598 <sys_clock_elapsed+0x10>)
    5590:	681b      	ldr	r3, [r3, #0]
}
    5592:	1ac0      	subs	r0, r0, r3
    5594:	bd08      	pop	{r3, pc}
    5596:	bf00      	nop
    5598:	20000538 	.word	0x20000538

0000559c <nrf_clock_is_running.constprop.0>:
NRF_STATIC_INLINE bool nrf_clock_is_running(NRF_CLOCK_Type const * p_reg,
    559c:	b508      	push	{r3, lr}
    switch (domain)
    559e:	b178      	cbz	r0, 55c0 <nrf_clock_is_running.constprop.0+0x24>
    55a0:	2801      	cmp	r0, #1
    55a2:	d01c      	beq.n	55de <nrf_clock_is_running.constprop.0+0x42>
            NRFX_ASSERT(0);
    55a4:	4a14      	ldr	r2, [pc, #80]	; (55f8 <nrf_clock_is_running.constprop.0+0x5c>)
    55a6:	4915      	ldr	r1, [pc, #84]	; (55fc <nrf_clock_is_running.constprop.0+0x60>)
    55a8:	4815      	ldr	r0, [pc, #84]	; (5600 <nrf_clock_is_running.constprop.0+0x64>)
    55aa:	f44f 734f 	mov.w	r3, #828	; 0x33c
    55ae:	f004 fc46 	bl	9e3e <printk>
    55b2:	4811      	ldr	r0, [pc, #68]	; (55f8 <nrf_clock_is_running.constprop.0+0x5c>)
    55b4:	f44f 714f 	mov.w	r1, #828	; 0x33c
    55b8:	f004 fb3e 	bl	9c38 <assert_post_action>
            return false;
    55bc:	2000      	movs	r0, #0
    55be:	e00d      	b.n	55dc <nrf_clock_is_running.constprop.0+0x40>
            if (p_clk_src != NULL)
    55c0:	b131      	cbz	r1, 55d0 <nrf_clock_is_running.constprop.0+0x34>
                    (nrf_clock_lfclk_t)((p_reg->LFCLKSTAT & CLOCK_LFCLKSTAT_SRC_Msk)
    55c2:	f04f 4380 	mov.w	r3, #1073741824	; 0x40000000
    55c6:	f8d3 3418 	ldr.w	r3, [r3, #1048]	; 0x418
                                        >> CLOCK_LFCLKSTAT_SRC_Pos);
    55ca:	f003 0303 	and.w	r3, r3, #3
                (*(nrf_clock_lfclk_t *)p_clk_src) =
    55ce:	600b      	str	r3, [r1, #0]
            if ((p_reg->LFCLKSTAT & CLOCK_LFCLKSTAT_STATE_Msk)
    55d0:	f04f 4380 	mov.w	r3, #1073741824	; 0x40000000
    55d4:	f8d3 0418 	ldr.w	r0, [r3, #1048]	; 0x418
            if ((p_reg->HFCLKSTAT & CLOCK_HFCLKSTAT_STATE_Msk)
    55d8:	f3c0 4000 	ubfx	r0, r0, #16, #1
}
    55dc:	bd08      	pop	{r3, pc}
            if (p_clk_src != NULL)
    55de:	b131      	cbz	r1, 55ee <nrf_clock_is_running.constprop.0+0x52>
                    (nrf_clock_hfclk_t)((p_reg->HFCLKSTAT & CLOCK_HFCLKSTAT_SRC_Msk)
    55e0:	f04f 4380 	mov.w	r3, #1073741824	; 0x40000000
    55e4:	f8d3 340c 	ldr.w	r3, [r3, #1036]	; 0x40c
    55e8:	f003 0301 	and.w	r3, r3, #1
                (*(nrf_clock_hfclk_t *)p_clk_src) =
    55ec:	700b      	strb	r3, [r1, #0]
            if ((p_reg->HFCLKSTAT & CLOCK_HFCLKSTAT_STATE_Msk)
    55ee:	f04f 4380 	mov.w	r3, #1073741824	; 0x40000000
    55f2:	f8d3 040c 	ldr.w	r0, [r3, #1036]	; 0x40c
    55f6:	e7ef      	b.n	55d8 <nrf_clock_is_running.constprop.0+0x3c>
    55f8:	0000c007 	.word	0x0000c007
    55fc:	0000b2d1 	.word	0x0000b2d1
    5600:	0000b2d3 	.word	0x0000b2d3

00005604 <nrfx_clock_init>:
    CoreDebug->DEMCR = core_debug;
}
#endif // NRFX_CHECK(USE_WORKAROUND_FOR_ANOMALY_132)

nrfx_err_t nrfx_clock_init(nrfx_clock_event_handler_t event_handler)
{
    5604:	b510      	push	{r4, lr}
    NRFX_ASSERT(event_handler);
    5606:	4604      	mov	r4, r0
    5608:	b948      	cbnz	r0, 561e <nrfx_clock_init+0x1a>
    560a:	490a      	ldr	r1, [pc, #40]	; (5634 <nrfx_clock_init+0x30>)
    560c:	480a      	ldr	r0, [pc, #40]	; (5638 <nrfx_clock_init+0x34>)
    560e:	4a0b      	ldr	r2, [pc, #44]	; (563c <nrfx_clock_init+0x38>)
    5610:	23bd      	movs	r3, #189	; 0xbd
    5612:	f004 fc14 	bl	9e3e <printk>
    5616:	4809      	ldr	r0, [pc, #36]	; (563c <nrfx_clock_init+0x38>)
    5618:	21bd      	movs	r1, #189	; 0xbd
    561a:	f004 fb0d 	bl	9c38 <assert_post_action>

    nrfx_err_t err_code = NRFX_SUCCESS;
    if (m_clock_cb.module_initialized)
    561e:	4b08      	ldr	r3, [pc, #32]	; (5640 <nrfx_clock_init+0x3c>)
    5620:	791a      	ldrb	r2, [r3, #4]
    5622:	b922      	cbnz	r2, 562e <nrfx_clock_init+0x2a>
    {
#if NRFX_CHECK(NRFX_CLOCK_CONFIG_LF_CAL_ENABLED)
        m_clock_cb.cal_state = CAL_STATE_IDLE;
#endif
        m_clock_cb.event_handler = event_handler;
        m_clock_cb.module_initialized = true;
    5624:	2201      	movs	r2, #1
    nrfx_err_t err_code = NRFX_SUCCESS;
    5626:	4807      	ldr	r0, [pc, #28]	; (5644 <nrfx_clock_init+0x40>)
        m_clock_cb.event_handler = event_handler;
    5628:	601c      	str	r4, [r3, #0]
        m_clock_cb.module_initialized = true;
    562a:	809a      	strh	r2, [r3, #4]
#endif
    }

    NRFX_LOG_INFO("Function: %s, error code: %s.", __func__, NRFX_LOG_ERROR_STRING_GET(err_code));
    return err_code;
}
    562c:	bd10      	pop	{r4, pc}
        err_code = NRFX_ERROR_ALREADY_INITIALIZED;
    562e:	4806      	ldr	r0, [pc, #24]	; (5648 <nrfx_clock_init+0x44>)
    return err_code;
    5630:	e7fc      	b.n	562c <nrfx_clock_init+0x28>
    5632:	bf00      	nop
    5634:	0000c078 	.word	0x0000c078
    5638:	0000b2d3 	.word	0x0000b2d3
    563c:	0000c03b 	.word	0x0000c03b
    5640:	20000e38 	.word	0x20000e38
    5644:	0bad0000 	.word	0x0bad0000
    5648:	0bad000c 	.word	0x0bad000c

0000564c <nrfx_clock_enable>:

void nrfx_clock_enable(void)
{
    564c:	b508      	push	{r3, lr}
    NRFX_ASSERT(m_clock_cb.module_initialized);
    564e:	4b0b      	ldr	r3, [pc, #44]	; (567c <nrfx_clock_enable+0x30>)
    5650:	791b      	ldrb	r3, [r3, #4]
    5652:	b94b      	cbnz	r3, 5668 <nrfx_clock_enable+0x1c>
    5654:	490a      	ldr	r1, [pc, #40]	; (5680 <nrfx_clock_enable+0x34>)
    5656:	480b      	ldr	r0, [pc, #44]	; (5684 <nrfx_clock_enable+0x38>)
    5658:	4a0b      	ldr	r2, [pc, #44]	; (5688 <nrfx_clock_enable+0x3c>)
    565a:	23d6      	movs	r3, #214	; 0xd6
    565c:	f004 fbef 	bl	9e3e <printk>
    5660:	4809      	ldr	r0, [pc, #36]	; (5688 <nrfx_clock_enable+0x3c>)
    5662:	21d6      	movs	r1, #214	; 0xd6
    5664:	f004 fae8 	bl	9c38 <assert_post_action>
    priority = NRFX_CLOCK_DEFAULT_CONFIG_IRQ_PRIORITY;
#else
    #error "This code is not supposed to be compiled when neither POWER nor CLOCK is enabled."
#endif

    if (!NRFX_IRQ_IS_ENABLED(nrfx_get_irq_number(NRF_CLOCK)))
    5668:	2000      	movs	r0, #0
    566a:	f7fd fe8f 	bl	338c <arch_irq_is_enabled>
    566e:	b918      	cbnz	r0, 5678 <nrfx_clock_enable+0x2c>
#if NRFX_CHECK(NRFX_POWER_ENABLED)
    nrfx_clock_irq_enabled = true;
#endif

    NRFX_LOG_INFO("Module enabled.");
}
    5670:	e8bd 4008 	ldmia.w	sp!, {r3, lr}
    {
        NRFX_IRQ_PRIORITY_SET(nrfx_get_irq_number(NRF_CLOCK), priority);
        NRFX_IRQ_ENABLE(nrfx_get_irq_number(NRF_CLOCK));
    5674:	f7fd be7a 	b.w	336c <arch_irq_enable>
    5678:	bd08      	pop	{r3, pc}
    567a:	bf00      	nop
    567c:	20000e38 	.word	0x20000e38
    5680:	0000c086 	.word	0x0000c086
    5684:	0000b2d3 	.word	0x0000b2d3
    5688:	0000c03b 	.word	0x0000c03b

0000568c <nrfx_clock_start>:
    NRFX_LOG_INFO("Uninitialized.");
}

void nrfx_clock_start(nrf_clock_domain_t domain)
{
    NRFX_ASSERT(m_clock_cb.module_initialized);
    568c:	4b22      	ldr	r3, [pc, #136]	; (5718 <nrfx_clock_start+0x8c>)
    568e:	791b      	ldrb	r3, [r3, #4]
{
    5690:	b513      	push	{r0, r1, r4, lr}
    5692:	4604      	mov	r4, r0
    NRFX_ASSERT(m_clock_cb.module_initialized);
    5694:	b95b      	cbnz	r3, 56ae <nrfx_clock_start+0x22>
    5696:	4921      	ldr	r1, [pc, #132]	; (571c <nrfx_clock_start+0x90>)
    5698:	4821      	ldr	r0, [pc, #132]	; (5720 <nrfx_clock_start+0x94>)
    569a:	4a22      	ldr	r2, [pc, #136]	; (5724 <nrfx_clock_start+0x98>)
    569c:	f44f 7389 	mov.w	r3, #274	; 0x112
    56a0:	f004 fbcd 	bl	9e3e <printk>
    56a4:	481f      	ldr	r0, [pc, #124]	; (5724 <nrfx_clock_start+0x98>)
    56a6:	f44f 7189 	mov.w	r1, #274	; 0x112
    56aa:	f004 fac5 	bl	9c38 <assert_post_action>
    switch (domain)
    56ae:	b174      	cbz	r4, 56ce <nrfx_clock_start+0x42>
    56b0:	2c01      	cmp	r4, #1
    56b2:	d027      	beq.n	5704 <nrfx_clock_start+0x78>
            nrf_clock_int_enable(NRF_CLOCK, NRF_CLOCK_INT_HFAUDIO_STARTED_MASK);
            nrf_clock_task_trigger(NRF_CLOCK, NRF_CLOCK_TASK_HFCLKAUDIOSTART);
            break;
#endif
        default:
            NRFX_ASSERT(0);
    56b4:	4a1b      	ldr	r2, [pc, #108]	; (5724 <nrfx_clock_start+0x98>)
    56b6:	491c      	ldr	r1, [pc, #112]	; (5728 <nrfx_clock_start+0x9c>)
    56b8:	4819      	ldr	r0, [pc, #100]	; (5720 <nrfx_clock_start+0x94>)
    56ba:	f44f 73a2 	mov.w	r3, #324	; 0x144
    56be:	f004 fbbe 	bl	9e3e <printk>
    56c2:	4818      	ldr	r0, [pc, #96]	; (5724 <nrfx_clock_start+0x98>)
    56c4:	f44f 71a2 	mov.w	r1, #324	; 0x144
    56c8:	f004 fab6 	bl	9c38 <assert_post_action>
            break;
    }
}
    56cc:	e016      	b.n	56fc <nrfx_clock_start+0x70>
                if (nrf_clock_is_running(NRF_CLOCK, NRF_CLOCK_DOMAIN_LFCLK, &lfclksrc) &&
    56ce:	a901      	add	r1, sp, #4
    56d0:	4620      	mov	r0, r4
    56d2:	f7ff ff63 	bl	559c <nrf_clock_is_running.constprop.0>
    56d6:	f04f 4380 	mov.w	r3, #1073741824	; 0x40000000
    56da:	b188      	cbz	r0, 5700 <nrfx_clock_start+0x74>
    56dc:	9a01      	ldr	r2, [sp, #4]
    56de:	2a01      	cmp	r2, #1
    56e0:	d10e      	bne.n	5700 <nrfx_clock_start+0x74>
    p_reg->LFCLKSRC = (uint32_t)(source);
    56e2:	f8c3 2518 	str.w	r2, [r3, #1304]	; 0x518
    *((volatile uint32_t *)((uint8_t *)p_reg + (uint32_t)event)) = 0x0UL;
    56e6:	4b11      	ldr	r3, [pc, #68]	; (572c <nrfx_clock_start+0xa0>)
    56e8:	2200      	movs	r2, #0
    56ea:	601a      	str	r2, [r3, #0]
    56ec:	681b      	ldr	r3, [r3, #0]
    p_reg->INTENSET = mask;
    56ee:	f04f 4380 	mov.w	r3, #1073741824	; 0x40000000
    56f2:	2202      	movs	r2, #2
    56f4:	f8c3 2304 	str.w	r2, [r3, #772]	; 0x304
    *((volatile uint32_t *)((uint8_t *)p_reg + (uint32_t)task)) = 0x1UL;
    56f8:	2201      	movs	r2, #1
    56fa:	609a      	str	r2, [r3, #8]
}
    56fc:	b002      	add	sp, #8
    56fe:	bd10      	pop	{r4, pc}
    p_reg->LFCLKSRC = (uint32_t)(source);
    5700:	2200      	movs	r2, #0
    5702:	e7ee      	b.n	56e2 <nrfx_clock_start+0x56>
    *((volatile uint32_t *)((uint8_t *)p_reg + (uint32_t)event)) = 0x0UL;
    5704:	4b0a      	ldr	r3, [pc, #40]	; (5730 <nrfx_clock_start+0xa4>)
    5706:	2200      	movs	r2, #0
    5708:	601a      	str	r2, [r3, #0]
    570a:	681b      	ldr	r3, [r3, #0]
    p_reg->INTENSET = mask;
    570c:	f04f 4380 	mov.w	r3, #1073741824	; 0x40000000
    5710:	f8c3 4304 	str.w	r4, [r3, #772]	; 0x304
    *((volatile uint32_t *)((uint8_t *)p_reg + (uint32_t)task)) = 0x1UL;
    5714:	601c      	str	r4, [r3, #0]
}
    5716:	e7f1      	b.n	56fc <nrfx_clock_start+0x70>
    5718:	20000e38 	.word	0x20000e38
    571c:	0000c086 	.word	0x0000c086
    5720:	0000b2d3 	.word	0x0000b2d3
    5724:	0000c03b 	.word	0x0000c03b
    5728:	0000b2d1 	.word	0x0000b2d1
    572c:	40000104 	.word	0x40000104
    5730:	40000100 	.word	0x40000100

00005734 <nrfx_clock_stop>:

void nrfx_clock_stop(nrf_clock_domain_t domain)
{
    5734:	b537      	push	{r0, r1, r2, r4, r5, lr}
    NRFX_ASSERT(m_clock_cb.module_initialized);
    5736:	4d2f      	ldr	r5, [pc, #188]	; (57f4 <nrfx_clock_stop+0xc0>)
    5738:	792a      	ldrb	r2, [r5, #4]
{
    573a:	4604      	mov	r4, r0
    NRFX_ASSERT(m_clock_cb.module_initialized);
    573c:	b95a      	cbnz	r2, 5756 <nrfx_clock_stop+0x22>
    573e:	492e      	ldr	r1, [pc, #184]	; (57f8 <nrfx_clock_stop+0xc4>)
    5740:	482e      	ldr	r0, [pc, #184]	; (57fc <nrfx_clock_stop+0xc8>)
    5742:	4a2f      	ldr	r2, [pc, #188]	; (5800 <nrfx_clock_stop+0xcc>)
    5744:	f240 134b 	movw	r3, #331	; 0x14b
    5748:	f004 fb79 	bl	9e3e <printk>
    574c:	482c      	ldr	r0, [pc, #176]	; (5800 <nrfx_clock_stop+0xcc>)
    574e:	f240 114b 	movw	r1, #331	; 0x14b
    5752:	f004 fa71 	bl	9c38 <assert_post_action>
    switch (domain)
    5756:	b17c      	cbz	r4, 5778 <nrfx_clock_stop+0x44>
    5758:	2c01      	cmp	r4, #1
    575a:	d028      	beq.n	57ae <nrfx_clock_stop+0x7a>
            nrf_clock_event_clear(NRF_CLOCK, NRF_CLOCK_EVENT_HFCLKAUDIOSTARTED);
            nrf_clock_task_trigger(NRF_CLOCK, NRF_CLOCK_TASK_HFCLKAUDIOSTOP);
            break;
#endif
        default:
            NRFX_ASSERT(0);
    575c:	4929      	ldr	r1, [pc, #164]	; (5804 <nrfx_clock_stop+0xd0>)
    575e:	4827      	ldr	r0, [pc, #156]	; (57fc <nrfx_clock_stop+0xc8>)
    5760:	4a27      	ldr	r2, [pc, #156]	; (5800 <nrfx_clock_stop+0xcc>)
    5762:	f240 1367 	movw	r3, #359	; 0x167
    5766:	f004 fb6a 	bl	9e3e <printk>
    576a:	4825      	ldr	r0, [pc, #148]	; (5800 <nrfx_clock_stop+0xcc>)
    576c:	f240 1167 	movw	r1, #359	; 0x167
    5770:	f004 fa62 	bl	9c38 <assert_post_action>
    if (domain == NRF_CLOCK_DOMAIN_HFCLK)
    {
            m_clock_cb.hfclk_started = false;
    }
#endif
}
    5774:	b003      	add	sp, #12
    5776:	bd30      	pop	{r4, r5, pc}
    p_reg->INTENCLR = mask;
    5778:	f04f 4380 	mov.w	r3, #1073741824	; 0x40000000
    577c:	2202      	movs	r2, #2
    577e:	f8c3 2308 	str.w	r2, [r3, #776]	; 0x308
    *((volatile uint32_t *)((uint8_t *)p_reg + (uint32_t)event)) = 0x0UL;
    5782:	f8c3 4104 	str.w	r4, [r3, #260]	; 0x104
    5786:	f503 7382 	add.w	r3, r3, #260	; 0x104
    *((volatile uint32_t *)((uint8_t *)p_reg + (uint32_t)task)) = 0x1UL;
    578a:	2201      	movs	r2, #1
    578c:	681b      	ldr	r3, [r3, #0]
    578e:	4b1e      	ldr	r3, [pc, #120]	; (5808 <nrfx_clock_stop+0xd4>)
    5790:	f242 7410 	movw	r4, #10000	; 0x2710
    5794:	601a      	str	r2, [r3, #0]
    return nrf_clock_event_address_get(NRF_CLOCK, event);
}

NRFX_STATIC_INLINE bool nrfx_clock_is_running(nrf_clock_domain_t domain, void * p_clk_src)
{
    return nrf_clock_is_running(NRF_CLOCK, domain, p_clk_src);
    5796:	2100      	movs	r1, #0
    5798:	4608      	mov	r0, r1
    579a:	f7ff feff 	bl	559c <nrf_clock_is_running.constprop.0>
        NRFX_WAIT_FOR(!nrfx_clock_is_running(domain, NULL), 10000, 1, stopped);
    579e:	2800      	cmp	r0, #0
    57a0:	d0e8      	beq.n	5774 <nrfx_clock_stop+0x40>
    57a2:	2001      	movs	r0, #1
    57a4:	f005 f95d 	bl	aa62 <nrfx_busy_wait>
    57a8:	3c01      	subs	r4, #1
    57aa:	d1f4      	bne.n	5796 <nrfx_clock_stop+0x62>
    57ac:	e7e2      	b.n	5774 <nrfx_clock_stop+0x40>
    p_reg->INTENCLR = mask;
    57ae:	f04f 4380 	mov.w	r3, #1073741824	; 0x40000000
    *((volatile uint32_t *)((uint8_t *)p_reg + (uint32_t)event)) = 0x0UL;
    57b2:	2200      	movs	r2, #0
    p_reg->INTENCLR = mask;
    57b4:	f8c3 4308 	str.w	r4, [r3, #776]	; 0x308
    *((volatile uint32_t *)((uint8_t *)p_reg + (uint32_t)event)) = 0x0UL;
    57b8:	f8c3 2100 	str.w	r2, [r3, #256]	; 0x100
    57bc:	f503 7380 	add.w	r3, r3, #256	; 0x100
    57c0:	681b      	ldr	r3, [r3, #0]
    *((volatile uint32_t *)((uint8_t *)p_reg + (uint32_t)task)) = 0x1UL;
    57c2:	4b12      	ldr	r3, [pc, #72]	; (580c <nrfx_clock_stop+0xd8>)
    57c4:	601c      	str	r4, [r3, #0]
        nrf_clock_hfclk_t clk_src = NRF_CLOCK_HFCLK_HIGH_ACCURACY;
    57c6:	f88d 4007 	strb.w	r4, [sp, #7]
    57ca:	f242 7410 	movw	r4, #10000	; 0x2710
    57ce:	f10d 0107 	add.w	r1, sp, #7
    57d2:	2001      	movs	r0, #1
    57d4:	f7ff fee2 	bl	559c <nrf_clock_is_running.constprop.0>
        NRFX_WAIT_FOR((!nrfx_clock_is_running(domain, &clk_src) ||
    57d8:	b910      	cbnz	r0, 57e0 <nrfx_clock_stop+0xac>
            m_clock_cb.hfclk_started = false;
    57da:	2300      	movs	r3, #0
    57dc:	716b      	strb	r3, [r5, #5]
    57de:	e7c9      	b.n	5774 <nrfx_clock_stop+0x40>
        NRFX_WAIT_FOR((!nrfx_clock_is_running(domain, &clk_src) ||
    57e0:	f89d 0007 	ldrb.w	r0, [sp, #7]
    57e4:	2801      	cmp	r0, #1
    57e6:	d1f8      	bne.n	57da <nrfx_clock_stop+0xa6>
    57e8:	f005 f93b 	bl	aa62 <nrfx_busy_wait>
    57ec:	3c01      	subs	r4, #1
    57ee:	d1ee      	bne.n	57ce <nrfx_clock_stop+0x9a>
    57f0:	e7f3      	b.n	57da <nrfx_clock_stop+0xa6>
    57f2:	bf00      	nop
    57f4:	20000e38 	.word	0x20000e38
    57f8:	0000c086 	.word	0x0000c086
    57fc:	0000b2d3 	.word	0x0000b2d3
    5800:	0000c03b 	.word	0x0000c03b
    5804:	0000b2d1 	.word	0x0000b2d1
    5808:	4000000c 	.word	0x4000000c
    580c:	40000004 	.word	0x40000004

00005810 <nrfx_power_clock_irq_handler>:
    return (bool)*((volatile uint32_t *)((uint8_t *)p_reg + event));
    5810:	4b16      	ldr	r3, [pc, #88]	; (586c <nrfx_power_clock_irq_handler+0x5c>)
    }
}
#endif

void nrfx_clock_irq_handler(void)
{
    5812:	b507      	push	{r0, r1, r2, lr}
    5814:	681a      	ldr	r2, [r3, #0]
    if (nrf_clock_event_check(NRF_CLOCK, NRF_CLOCK_EVENT_HFCLKSTARTED))
    5816:	b16a      	cbz	r2, 5834 <nrfx_power_clock_irq_handler+0x24>
    *((volatile uint32_t *)((uint8_t *)p_reg + (uint32_t)event)) = 0x0UL;
    5818:	2200      	movs	r2, #0
    581a:	601a      	str	r2, [r3, #0]
    581c:	681b      	ldr	r3, [r3, #0]
    p_reg->INTENCLR = mask;
    581e:	f04f 4380 	mov.w	r3, #1073741824	; 0x40000000
    5822:	2201      	movs	r2, #1
    5824:	f8c3 2308 	str.w	r2, [r3, #776]	; 0x308
        nrf_clock_event_clear(NRF_CLOCK, NRF_CLOCK_EVENT_HFCLKSTARTED);
        NRFX_LOG_DEBUG("Event: NRF_CLOCK_EVENT_HFCLKSTARTED");
        nrf_clock_int_disable(NRF_CLOCK, NRF_CLOCK_INT_HF_STARTED_MASK);

#if NRFX_CHECK(USE_WORKAROUND_FOR_ANOMALY_201)
        if (!m_clock_cb.hfclk_started)
    5828:	4b11      	ldr	r3, [pc, #68]	; (5870 <nrfx_power_clock_irq_handler+0x60>)
    582a:	7958      	ldrb	r0, [r3, #5]
    582c:	b910      	cbnz	r0, 5834 <nrfx_power_clock_irq_handler+0x24>
        {
            m_clock_cb.hfclk_started = true;
    582e:	715a      	strb	r2, [r3, #5]
            m_clock_cb.event_handler(NRFX_CLOCK_EVT_HFCLK_STARTED);
    5830:	681b      	ldr	r3, [r3, #0]
    5832:	4798      	blx	r3
    return (bool)*((volatile uint32_t *)((uint8_t *)p_reg + event));
    5834:	4b0f      	ldr	r3, [pc, #60]	; (5874 <nrfx_power_clock_irq_handler+0x64>)
    5836:	681a      	ldr	r2, [r3, #0]
        }
#else
        m_clock_cb.event_handler(NRFX_CLOCK_EVT_HFCLK_STARTED);
#endif
    }
    if (nrf_clock_event_check(NRF_CLOCK, NRF_CLOCK_EVENT_LFCLKSTARTED))
    5838:	b16a      	cbz	r2, 5856 <nrfx_power_clock_irq_handler+0x46>
    *((volatile uint32_t *)((uint8_t *)p_reg + (uint32_t)event)) = 0x0UL;
    583a:	2000      	movs	r0, #0
    583c:	6018      	str	r0, [r3, #0]
        nrf_clock_event_clear(NRF_CLOCK, NRF_CLOCK_EVENT_LFCLKSTARTED);
        NRFX_LOG_DEBUG("Event: NRF_CLOCK_EVENT_LFCLKSTARTED");

#if NRFX_CHECK(NRFX_CLOCK_CONFIG_LFXO_TWO_STAGE_ENABLED)
        nrf_clock_lfclk_t lfclksrc;
        (void)nrf_clock_is_running(NRF_CLOCK, NRF_CLOCK_DOMAIN_LFCLK, &lfclksrc);
    583e:	a901      	add	r1, sp, #4
    5840:	681b      	ldr	r3, [r3, #0]
    5842:	f7ff feab 	bl	559c <nrf_clock_is_running.constprop.0>
        if (lfclksrc == NRF_CLOCK_LFCLK_RC)
    5846:	9a01      	ldr	r2, [sp, #4]
    5848:	f04f 4380 	mov.w	r3, #1073741824	; 0x40000000
    584c:	b932      	cbnz	r2, 585c <nrfx_power_clock_irq_handler+0x4c>
    p_reg->LFCLKSRC = (uint32_t)(source);
    584e:	2201      	movs	r2, #1
    5850:	f8c3 2518 	str.w	r2, [r3, #1304]	; 0x518
    *((volatile uint32_t *)((uint8_t *)p_reg + (uint32_t)task)) = 0x1UL;
    5854:	609a      	str	r2, [r3, #8]
        nrf_clock_int_disable(NRF_CLOCK, NRF_CLOCK_INT_HF192M_STARTED_MASK);

        m_clock_cb.event_handler(NRFX_CLOCK_EVT_HFCLK192M_STARTED);
    }
#endif
}
    5856:	b003      	add	sp, #12
    5858:	f85d fb04 	ldr.w	pc, [sp], #4
    p_reg->INTENCLR = mask;
    585c:	2202      	movs	r2, #2
    585e:	f8c3 2308 	str.w	r2, [r3, #776]	; 0x308
            m_clock_cb.event_handler(NRFX_CLOCK_EVT_LFCLK_STARTED);
    5862:	4b03      	ldr	r3, [pc, #12]	; (5870 <nrfx_power_clock_irq_handler+0x60>)
    5864:	2001      	movs	r0, #1
    5866:	681b      	ldr	r3, [r3, #0]
    5868:	4798      	blx	r3
}
    586a:	e7f4      	b.n	5856 <nrfx_power_clock_irq_handler+0x46>
    586c:	40000100 	.word	0x40000100
    5870:	20000e38 	.word	0x20000e38
    5874:	40000104 	.word	0x40000104

00005878 <nrfx_flag32_alloc>:
{
    return (mask & NRFX_BIT(bitpos)) ? false : true;
}

nrfx_err_t nrfx_flag32_alloc(nrfx_atomic_t * p_mask, uint8_t *p_flag)
{
    5878:	b570      	push	{r4, r5, r6, lr}
        idx = 31 - NRF_CLZ(prev_mask);
        if (idx < 0) {
            return NRFX_ERROR_NO_MEM;
        }

        new_mask = prev_mask & ~NRFX_BIT(idx);
    587a:	2501      	movs	r5, #1
        prev_mask = *p_mask;
    587c:	6803      	ldr	r3, [r0, #0]
        idx = 31 - NRF_CLZ(prev_mask);
    587e:	fab3 f283 	clz	r2, r3
        if (idx < 0) {
    5882:	2a20      	cmp	r2, #32
        idx = 31 - NRF_CLZ(prev_mask);
    5884:	f1c2 041f 	rsb	r4, r2, #31
        if (idx < 0) {
    5888:	d014      	beq.n	58b4 <nrfx_flag32_alloc+0x3c>
	return __atomic_compare_exchange_n(target, &old_value, new_value,
    588a:	f3bf 8f5b 	dmb	ish
        new_mask = prev_mask & ~NRFX_BIT(idx);
    588e:	fa05 f204 	lsl.w	r2, r5, r4
    5892:	ea23 0202 	bic.w	r2, r3, r2
    5896:	e850 6f00 	ldrex	r6, [r0]
    589a:	429e      	cmp	r6, r3
    589c:	d104      	bne.n	58a8 <nrfx_flag32_alloc+0x30>
    589e:	e840 2c00 	strex	ip, r2, [r0]
    58a2:	f1bc 0f00 	cmp.w	ip, #0
    58a6:	d1f6      	bne.n	5896 <nrfx_flag32_alloc+0x1e>
    58a8:	f3bf 8f5b 	dmb	ish
    } while (!NRFX_ATOMIC_CAS(p_mask, prev_mask, new_mask));
    58ac:	d1e6      	bne.n	587c <nrfx_flag32_alloc+0x4>

    *p_flag = idx;

    return NRFX_SUCCESS;
    58ae:	4802      	ldr	r0, [pc, #8]	; (58b8 <nrfx_flag32_alloc+0x40>)
    *p_flag = idx;
    58b0:	700c      	strb	r4, [r1, #0]
}
    58b2:	bd70      	pop	{r4, r5, r6, pc}
            return NRFX_ERROR_NO_MEM;
    58b4:	4801      	ldr	r0, [pc, #4]	; (58bc <nrfx_flag32_alloc+0x44>)
    58b6:	e7fc      	b.n	58b2 <nrfx_flag32_alloc+0x3a>
    58b8:	0bad0000 	.word	0x0bad0000
    58bc:	0bad0002 	.word	0x0bad0002

000058c0 <nrfx_flag32_free>:

nrfx_err_t nrfx_flag32_free(nrfx_atomic_t * p_mask, uint8_t flag)
{
    uint32_t new_mask, prev_mask;

    if ((NRFX_BIT(flag) & *p_mask))
    58c0:	6803      	ldr	r3, [r0, #0]
    58c2:	40cb      	lsrs	r3, r1
    58c4:	07db      	lsls	r3, r3, #31
{
    58c6:	b510      	push	{r4, lr}
    if ((NRFX_BIT(flag) & *p_mask))
    58c8:	d415      	bmi.n	58f6 <nrfx_flag32_free+0x36>
        return NRFX_ERROR_INVALID_PARAM;
    }

    do {
        prev_mask = *p_mask;
        new_mask = prev_mask | NRFX_BIT(flag);
    58ca:	2301      	movs	r3, #1
    58cc:	fa03 f101 	lsl.w	r1, r3, r1
        prev_mask = *p_mask;
    58d0:	6803      	ldr	r3, [r0, #0]
    58d2:	f3bf 8f5b 	dmb	ish
        new_mask = prev_mask | NRFX_BIT(flag);
    58d6:	ea41 0203 	orr.w	r2, r1, r3
    58da:	e850 4f00 	ldrex	r4, [r0]
    58de:	429c      	cmp	r4, r3
    58e0:	d104      	bne.n	58ec <nrfx_flag32_free+0x2c>
    58e2:	e840 2c00 	strex	ip, r2, [r0]
    58e6:	f1bc 0f00 	cmp.w	ip, #0
    58ea:	d1f6      	bne.n	58da <nrfx_flag32_free+0x1a>
    58ec:	f3bf 8f5b 	dmb	ish
    } while (!NRFX_ATOMIC_CAS(p_mask, prev_mask, new_mask));
    58f0:	d1ee      	bne.n	58d0 <nrfx_flag32_free+0x10>

    return NRFX_SUCCESS;
    58f2:	4802      	ldr	r0, [pc, #8]	; (58fc <nrfx_flag32_free+0x3c>)
}
    58f4:	bd10      	pop	{r4, pc}
        return NRFX_ERROR_INVALID_PARAM;
    58f6:	4802      	ldr	r0, [pc, #8]	; (5900 <nrfx_flag32_free+0x40>)
    58f8:	e7fc      	b.n	58f4 <nrfx_flag32_free+0x34>
    58fa:	bf00      	nop
    58fc:	0bad0000 	.word	0x0bad0000
    5900:	0bad0004 	.word	0x0bad0004

00005904 <pin_is_task_output>:
 *
 * @return True if pin is task output.
 */
static bool pin_is_task_output(uint32_t pin)
{
    return pin_is_output(pin) && pin_in_use_by_te(pin);
    5904:	4b05      	ldr	r3, [pc, #20]	; (591c <pin_is_task_output+0x18>)
    return PIN_FLAG_IS_OUTPUT(m_cb.pin_flags[pin]);
    5906:	3008      	adds	r0, #8
    return pin_is_output(pin) && pin_in_use_by_te(pin);
    5908:	f833 0010 	ldrh.w	r0, [r3, r0, lsl #1]
    590c:	f000 0022 	and.w	r0, r0, #34	; 0x22
}
    5910:	f1a0 0322 	sub.w	r3, r0, #34	; 0x22
    5914:	4258      	negs	r0, r3
    5916:	4158      	adcs	r0, r3
    5918:	4770      	bx	lr
    591a:	bf00      	nop
    591c:	20000144 	.word	0x20000144

00005920 <call_handler>:
    nrf_gpiote_event_t event = nrfx_gpiote_in_event_get(pin);
    return nrf_gpiote_event_address_get(NRF_GPIOTE, event);
}

static void call_handler(nrfx_gpiote_pin_t pin, nrfx_gpiote_trigger_t trigger)
{
    5920:	b570      	push	{r4, r5, r6, lr}
    int32_t handler_id = PIN_GET_HANDLER_ID(m_cb.pin_flags[pin]);
    5922:	f100 0308 	add.w	r3, r0, #8
    5926:	4c0c      	ldr	r4, [pc, #48]	; (5958 <call_handler+0x38>)
    5928:	f834 3013 	ldrh.w	r3, [r4, r3, lsl #1]
    592c:	05da      	lsls	r2, r3, #23
{
    592e:	4605      	mov	r5, r0
    5930:	460e      	mov	r6, r1
    int32_t handler_id = PIN_GET_HANDLER_ID(m_cb.pin_flags[pin]);
    5932:	d507      	bpl.n	5944 <call_handler+0x24>
    5934:	f3c3 2343 	ubfx	r3, r3, #9, #4
    nrfx_gpiote_handler_config_t const * handler = channel_handler_get(pin);

    if (handler)
    {
        handler->handler(pin, trigger, handler->p_context);
    5938:	eb04 02c3 	add.w	r2, r4, r3, lsl #3
    593c:	f854 3033 	ldr.w	r3, [r4, r3, lsl #3]
    5940:	6852      	ldr	r2, [r2, #4]
    5942:	4798      	blx	r3
    }
    if (m_cb.global_handler.handler)
    5944:	68a3      	ldr	r3, [r4, #8]
    5946:	b12b      	cbz	r3, 5954 <call_handler+0x34>
    {
        m_cb.global_handler.handler(pin, trigger, m_cb.global_handler.p_context);
    5948:	68e2      	ldr	r2, [r4, #12]
    594a:	4631      	mov	r1, r6
    594c:	4628      	mov	r0, r5
    }
}
    594e:	e8bd 4070 	ldmia.w	sp!, {r4, r5, r6, lr}
        m_cb.global_handler.handler(pin, trigger, m_cb.global_handler.p_context);
    5952:	4718      	bx	r3
}
    5954:	bd70      	pop	{r4, r5, r6, pc}
    5956:	bf00      	nop
    5958:	20000144 	.word	0x20000144

0000595c <release_handler>:
    int32_t handler_id = PIN_GET_HANDLER_ID(m_cb.pin_flags[pin]);
    595c:	4b19      	ldr	r3, [pc, #100]	; (59c4 <release_handler+0x68>)
    595e:	3008      	adds	r0, #8
{
    5960:	b510      	push	{r4, lr}
    int32_t handler_id = PIN_GET_HANDLER_ID(m_cb.pin_flags[pin]);
    5962:	f833 2010 	ldrh.w	r2, [r3, r0, lsl #1]
    5966:	05d1      	lsls	r1, r2, #23
    5968:	d51d      	bpl.n	59a6 <release_handler+0x4a>
    596a:	f3c2 2143 	ubfx	r1, r2, #9, #4
    m_cb.pin_flags[pin] &= ~PIN_HANDLER_MASK;
    596e:	f422 52f8 	bic.w	r2, r2, #7936	; 0x1f00
    5972:	f823 2010 	strh.w	r2, [r3, r0, lsl #1]
    for (uint32_t i = 0; i < MAX_PIN_NUMBER; i++)
    5976:	f103 0410 	add.w	r4, r3, #16
    597a:	2000      	movs	r0, #0
        if (PIN_GET_HANDLER_ID(m_cb.pin_flags[i]) == handler_id)
    597c:	f834 2b02 	ldrh.w	r2, [r4], #2
    5980:	f412 7f80 	tst.w	r2, #256	; 0x100
    5984:	d003      	beq.n	598e <release_handler+0x32>
    5986:	f3c2 2243 	ubfx	r2, r2, #9, #4
    598a:	4291      	cmp	r1, r2
    598c:	d00b      	beq.n	59a6 <release_handler+0x4a>
    for (uint32_t i = 0; i < MAX_PIN_NUMBER; i++)
    598e:	3001      	adds	r0, #1
    5990:	2830      	cmp	r0, #48	; 0x30
    5992:	d1f3      	bne.n	597c <release_handler+0x20>
        m_cb.handlers[handler_id].handler = NULL;
    5994:	2200      	movs	r2, #0
    5996:	f843 2031 	str.w	r2, [r3, r1, lsl #3]
        nrfx_err_t err = nrfx_flag32_free(&m_cb.available_evt_handlers, handler_id);
    599a:	480b      	ldr	r0, [pc, #44]	; (59c8 <release_handler+0x6c>)
    599c:	f7ff ff90 	bl	58c0 <nrfx_flag32_free>
        NRFX_ASSERT(err == NRFX_SUCCESS);
    59a0:	4b0a      	ldr	r3, [pc, #40]	; (59cc <release_handler+0x70>)
    59a2:	4298      	cmp	r0, r3
    59a4:	d100      	bne.n	59a8 <release_handler+0x4c>
}
    59a6:	bd10      	pop	{r4, pc}
        NRFX_ASSERT(err == NRFX_SUCCESS);
    59a8:	4909      	ldr	r1, [pc, #36]	; (59d0 <release_handler+0x74>)
    59aa:	480a      	ldr	r0, [pc, #40]	; (59d4 <release_handler+0x78>)
    59ac:	4a0a      	ldr	r2, [pc, #40]	; (59d8 <release_handler+0x7c>)
    59ae:	f44f 7399 	mov.w	r3, #306	; 0x132
    59b2:	f004 fa44 	bl	9e3e <printk>
}
    59b6:	e8bd 4010 	ldmia.w	sp!, {r4, lr}
        NRFX_ASSERT(err == NRFX_SUCCESS);
    59ba:	4807      	ldr	r0, [pc, #28]	; (59d8 <release_handler+0x7c>)
    59bc:	f44f 7199 	mov.w	r1, #306	; 0x132
    59c0:	f004 b93a 	b.w	9c38 <assert_post_action>
    59c4:	20000144 	.word	0x20000144
    59c8:	200001b8 	.word	0x200001b8
    59cc:	0bad0000 	.word	0x0bad0000
    59d0:	0000c108 	.word	0x0000c108
    59d4:	0000b2d3 	.word	0x0000b2d3
    59d8:	0000c0a4 	.word	0x0000c0a4

000059dc <pin_handler_trigger_uninit>:
{
    59dc:	b538      	push	{r3, r4, r5, lr}
    return m_cb.pin_flags[pin] & PIN_FLAG_TE_USED;
    59de:	4c0a      	ldr	r4, [pc, #40]	; (5a08 <pin_handler_trigger_uninit+0x2c>)
    59e0:	f100 0508 	add.w	r5, r0, #8
    59e4:	f834 3015 	ldrh.w	r3, [r4, r5, lsl #1]
    if (pin_in_use_by_te(pin))
    59e8:	069a      	lsls	r2, r3, #26
    59ea:	d506      	bpl.n	59fa <pin_handler_trigger_uninit+0x1e>
        nrf_gpiote_te_default(NRF_GPIOTE, pin_te_get(pin));
    59ec:	0b5b      	lsrs	r3, r3, #13
                         ((init_val << GPIOTE_CONFIG_OUTINIT_Pos) & GPIOTE_CONFIG_OUTINIT_Msk);
}

NRF_STATIC_INLINE void nrf_gpiote_te_default(NRF_GPIOTE_Type * p_reg, uint32_t idx)
{
    p_reg->CONFIG[idx] = 0;
    59ee:	4a07      	ldr	r2, [pc, #28]	; (5a0c <pin_handler_trigger_uninit+0x30>)
    59f0:	f503 73a2 	add.w	r3, r3, #324	; 0x144
    59f4:	2100      	movs	r1, #0
    59f6:	f842 1023 	str.w	r1, [r2, r3, lsl #2]
    release_handler(pin);
    59fa:	f7ff ffaf 	bl	595c <release_handler>
    m_cb.pin_flags[pin] = PIN_FLAG_NOT_USED;
    59fe:	2300      	movs	r3, #0
    5a00:	f824 3015 	strh.w	r3, [r4, r5, lsl #1]
}
    5a04:	bd38      	pop	{r3, r4, r5, pc}
    5a06:	bf00      	nop
    5a08:	20000144 	.word	0x20000144
    5a0c:	40006000 	.word	0x40006000

00005a10 <nrf_gpio_pin_port_decode>:
{
    5a10:	b510      	push	{r4, lr}
    5a12:	4604      	mov	r4, r0
    NRFX_ASSERT(nrf_gpio_pin_present_check(*p_pin));
    5a14:	6800      	ldr	r0, [r0, #0]
    5a16:	f005 f826 	bl	aa66 <nrf_gpio_pin_present_check>
    5a1a:	b958      	cbnz	r0, 5a34 <nrf_gpio_pin_port_decode+0x24>
    5a1c:	4912      	ldr	r1, [pc, #72]	; (5a68 <nrf_gpio_pin_port_decode+0x58>)
    5a1e:	4813      	ldr	r0, [pc, #76]	; (5a6c <nrf_gpio_pin_port_decode+0x5c>)
    5a20:	4a13      	ldr	r2, [pc, #76]	; (5a70 <nrf_gpio_pin_port_decode+0x60>)
    5a22:	f240 2329 	movw	r3, #553	; 0x229
    5a26:	f004 fa0a 	bl	9e3e <printk>
    5a2a:	4811      	ldr	r0, [pc, #68]	; (5a70 <nrf_gpio_pin_port_decode+0x60>)
    5a2c:	f240 2129 	movw	r1, #553	; 0x229
    5a30:	f004 f902 	bl	9c38 <assert_post_action>
    uint32_t pin_number = *p_pin;
    5a34:	6823      	ldr	r3, [r4, #0]
    *p_pin = pin_number & 0x1F;
    5a36:	f003 021f 	and.w	r2, r3, #31
    switch (nrf_gpio_pin_port_number_extract(p_pin))
    5a3a:	095b      	lsrs	r3, r3, #5
    *p_pin = pin_number & 0x1F;
    5a3c:	6022      	str	r2, [r4, #0]
    switch (nrf_gpio_pin_port_number_extract(p_pin))
    5a3e:	d00d      	beq.n	5a5c <nrf_gpio_pin_port_decode+0x4c>
    5a40:	2b01      	cmp	r3, #1
    5a42:	d00e      	beq.n	5a62 <nrf_gpio_pin_port_decode+0x52>
            NRFX_ASSERT(0);
    5a44:	490b      	ldr	r1, [pc, #44]	; (5a74 <nrf_gpio_pin_port_decode+0x64>)
    5a46:	4809      	ldr	r0, [pc, #36]	; (5a6c <nrf_gpio_pin_port_decode+0x5c>)
    5a48:	4a09      	ldr	r2, [pc, #36]	; (5a70 <nrf_gpio_pin_port_decode+0x60>)
    5a4a:	f240 232e 	movw	r3, #558	; 0x22e
    5a4e:	f004 f9f6 	bl	9e3e <printk>
    5a52:	4807      	ldr	r0, [pc, #28]	; (5a70 <nrf_gpio_pin_port_decode+0x60>)
    5a54:	f240 212e 	movw	r1, #558	; 0x22e
    5a58:	f004 f8ee 	bl	9c38 <assert_post_action>
    switch (nrf_gpio_pin_port_number_extract(p_pin))
    5a5c:	f04f 40a0 	mov.w	r0, #1342177280	; 0x50000000
}
    5a60:	bd10      	pop	{r4, pc}
        case 1: return NRF_P1;
    5a62:	4805      	ldr	r0, [pc, #20]	; (5a78 <nrf_gpio_pin_port_decode+0x68>)
    5a64:	e7fc      	b.n	5a60 <nrf_gpio_pin_port_decode+0x50>
    5a66:	bf00      	nop
    5a68:	0000bf82 	.word	0x0000bf82
    5a6c:	0000b2d3 	.word	0x0000b2d3
    5a70:	0000bf4f 	.word	0x0000bf4f
    5a74:	0000b2d1 	.word	0x0000b2d1
    5a78:	50000300 	.word	0x50000300

00005a7c <nrfx_gpiote_input_configure>:
{
    5a7c:	b5f0      	push	{r4, r5, r6, r7, lr}
    5a7e:	4604      	mov	r4, r0
    5a80:	b085      	sub	sp, #20
    5a82:	4617      	mov	r7, r2
    5a84:	461d      	mov	r5, r3
    if (p_input_config)
    5a86:	b1f1      	cbz	r1, 5ac6 <nrfx_gpiote_input_configure+0x4a>
        if (pin_is_task_output(pin))
    5a88:	f7ff ff3c 	bl	5904 <pin_is_task_output>
    5a8c:	b110      	cbz	r0, 5a94 <nrfx_gpiote_input_configure+0x18>
                return NRFX_ERROR_INVALID_PARAM;
    5a8e:	484a      	ldr	r0, [pc, #296]	; (5bb8 <nrfx_gpiote_input_configure+0x13c>)
}
    5a90:	b005      	add	sp, #20
    5a92:	bdf0      	pop	{r4, r5, r6, r7, pc}
        nrf_gpio_reconfigure(pin, &dir, &input_connect, &p_input_config->pull, NULL, NULL);
    5a94:	460b      	mov	r3, r1
    5a96:	e9cd 0000 	strd	r0, r0, [sp]
        nrf_gpio_pin_dir_t dir = NRF_GPIO_PIN_DIR_INPUT;
    5a9a:	f88d 000e 	strb.w	r0, [sp, #14]
        nrf_gpio_pin_input_t input_connect = NRF_GPIO_PIN_INPUT_CONNECT;
    5a9e:	f88d 000f 	strb.w	r0, [sp, #15]
        nrf_gpio_reconfigure(pin, &dir, &input_connect, &p_input_config->pull, NULL, NULL);
    5aa2:	f10d 020f 	add.w	r2, sp, #15
    5aa6:	f10d 010e 	add.w	r1, sp, #14
    5aaa:	4620      	mov	r0, r4
    5aac:	f004 fff0 	bl	aa90 <nrf_gpio_reconfigure>
        m_cb.pin_flags[pin] |= PIN_FLAG_IN_USE;
    5ab0:	4a42      	ldr	r2, [pc, #264]	; (5bbc <nrfx_gpiote_input_configure+0x140>)
    5ab2:	f104 0108 	add.w	r1, r4, #8
        m_cb.pin_flags[pin] &= ~PIN_FLAG_OUTPUT;
    5ab6:	f832 3011 	ldrh.w	r3, [r2, r1, lsl #1]
    5aba:	f023 0302 	bic.w	r3, r3, #2
        m_cb.pin_flags[pin] |= PIN_FLAG_IN_USE;
    5abe:	f043 0301 	orr.w	r3, r3, #1
    5ac2:	f822 3011 	strh.w	r3, [r2, r1, lsl #1]
    if (p_trigger_config)
    5ac6:	b197      	cbz	r7, 5aee <nrfx_gpiote_input_configure+0x72>
    return PIN_FLAG_IS_OUTPUT(m_cb.pin_flags[pin]);
    5ac8:	4b3c      	ldr	r3, [pc, #240]	; (5bbc <nrfx_gpiote_input_configure+0x140>)
        nrfx_gpiote_trigger_t trigger = p_trigger_config->trigger;
    5aca:	783e      	ldrb	r6, [r7, #0]
        bool use_evt = p_trigger_config->p_in_channel ? true : false;
    5acc:	687a      	ldr	r2, [r7, #4]
    return PIN_FLAG_IS_OUTPUT(m_cb.pin_flags[pin]);
    5ace:	f104 0008 	add.w	r0, r4, #8
    5ad2:	f833 1010 	ldrh.w	r1, [r3, r0, lsl #1]
        if (pin_is_output(pin))
    5ad6:	078f      	lsls	r7, r1, #30
    5ad8:	d50c      	bpl.n	5af4 <nrfx_gpiote_input_configure+0x78>
            if (use_evt)
    5ada:	2a00      	cmp	r2, #0
    5adc:	d1d7      	bne.n	5a8e <nrfx_gpiote_input_configure+0x12>
        m_cb.pin_flags[pin] &= ~PIN_FLAG_TRIG_MODE_MASK;
    5ade:	f833 2010 	ldrh.w	r2, [r3, r0, lsl #1]
    5ae2:	f022 021c 	bic.w	r2, r2, #28
        m_cb.pin_flags[pin] |= PIN_FLAG_TRIG_MODE_SET(trigger);
    5ae6:	ea42 0286 	orr.w	r2, r2, r6, lsl #2
    5aea:	f823 2010 	strh.w	r2, [r3, r0, lsl #1]
    if (p_handler_config)
    5aee:	bbcd      	cbnz	r5, 5b64 <nrfx_gpiote_input_configure+0xe8>
    return NRFX_SUCCESS;
    5af0:	4833      	ldr	r0, [pc, #204]	; (5bc0 <nrfx_gpiote_input_configure+0x144>)
    5af2:	e7cd      	b.n	5a90 <nrfx_gpiote_input_configure+0x14>
            m_cb.pin_flags[pin] &= ~(PIN_TE_ID_MASK | PIN_FLAG_TE_USED);
    5af4:	f021 0120 	bic.w	r1, r1, #32
    5af8:	04c9      	lsls	r1, r1, #19
    5afa:	0cc9      	lsrs	r1, r1, #19
    5afc:	f823 1010 	strh.w	r1, [r3, r0, lsl #1]
            if (use_evt)
    5b00:	2a00      	cmp	r2, #0
    5b02:	d0ec      	beq.n	5ade <nrfx_gpiote_input_configure+0x62>
                if (!edge)
    5b04:	2e03      	cmp	r6, #3
    5b06:	d8c2      	bhi.n	5a8e <nrfx_gpiote_input_configure+0x12>
                uint8_t ch = *p_trigger_config->p_in_channel;
    5b08:	7817      	ldrb	r7, [r2, #0]
                if (trigger == NRFX_GPIOTE_TRIGGER_NONE)
    5b0a:	b92e      	cbnz	r6, 5b18 <nrfx_gpiote_input_configure+0x9c>
    5b0c:	4a2d      	ldr	r2, [pc, #180]	; (5bc4 <nrfx_gpiote_input_configure+0x148>)
    5b0e:	f507 71a2 	add.w	r1, r7, #324	; 0x144
    5b12:	f842 6021 	str.w	r6, [r2, r1, lsl #2]
#if defined(NRF9160_XXAA) || defined(NRF5340_XXAA)
    p_reg->CONFIG[idx] = 0;
#endif
}
    5b16:	e7e2      	b.n	5ade <nrfx_gpiote_input_configure+0x62>
   p_reg->CONFIG[idx] &= ~GPIOTE_CONFIG_MODE_Msk;
    5b18:	00ba      	lsls	r2, r7, #2
    5b1a:	f102 4280 	add.w	r2, r2, #1073741824	; 0x40000000
    5b1e:	f502 42c0 	add.w	r2, r2, #24576	; 0x6000
                    m_cb.pin_flags[pin] |= PIN_FLAG_TE_ID(ch);
    5b22:	ea41 3147 	orr.w	r1, r1, r7, lsl #13
    5b26:	f8d2 c510 	ldr.w	ip, [r2, #1296]	; 0x510
    5b2a:	f02c 0c03 	bic.w	ip, ip, #3
    5b2e:	f8c2 c510 	str.w	ip, [r2, #1296]	; 0x510
  p_reg->CONFIG[idx] &= ~(GPIOTE_CONFIG_PORT_PIN_Msk | GPIOTE_CONFIG_POLARITY_Msk);
    5b32:	f8d2 c510 	ldr.w	ip, [r2, #1296]	; 0x510
    5b36:	f42c 3c4f 	bic.w	ip, ip, #211968	; 0x33c00
    5b3a:	f42c 7c40 	bic.w	ip, ip, #768	; 0x300
    5b3e:	f8c2 c510 	str.w	ip, [r2, #1296]	; 0x510
  p_reg->CONFIG[idx] |= ((pin << GPIOTE_CONFIG_PSEL_Pos) & GPIOTE_CONFIG_PORT_PIN_Msk) |
    5b42:	f8d2 e510 	ldr.w	lr, [r2, #1296]	; 0x510
    5b46:	ea4f 2c04 	mov.w	ip, r4, lsl #8
    5b4a:	f40c 5c7c 	and.w	ip, ip, #16128	; 0x3f00
    5b4e:	ea4e 4e06 	orr.w	lr, lr, r6, lsl #16
    5b52:	ea4c 0c0e 	orr.w	ip, ip, lr
    5b56:	f041 0120 	orr.w	r1, r1, #32
    5b5a:	f823 1010 	strh.w	r1, [r3, r0, lsl #1]
    5b5e:	f8c2 c510 	str.w	ip, [r2, #1296]	; 0x510
    5b62:	e7bc      	b.n	5ade <nrfx_gpiote_input_configure+0x62>
        err = pin_handler_set(pin, p_handler_config->handler, p_handler_config->p_context);
    5b64:	e9d5 6700 	ldrd	r6, r7, [r5]
    release_handler(pin);
    5b68:	4620      	mov	r0, r4
    5b6a:	f7ff fef7 	bl	595c <release_handler>
    if (!handler)
    5b6e:	2e00      	cmp	r6, #0
    5b70:	d0be      	beq.n	5af0 <nrfx_gpiote_input_configure+0x74>
        if ((m_cb.handlers[i].handler == handler) && (m_cb.handlers[i].p_context == p_context))
    5b72:	4d12      	ldr	r5, [pc, #72]	; (5bbc <nrfx_gpiote_input_configure+0x140>)
    5b74:	682b      	ldr	r3, [r5, #0]
    5b76:	429e      	cmp	r6, r3
    5b78:	d104      	bne.n	5b84 <nrfx_gpiote_input_configure+0x108>
    5b7a:	686b      	ldr	r3, [r5, #4]
    5b7c:	429f      	cmp	r7, r3
    5b7e:	d101      	bne.n	5b84 <nrfx_gpiote_input_configure+0x108>
    5b80:	2200      	movs	r2, #0
    5b82:	e00a      	b.n	5b9a <nrfx_gpiote_input_configure+0x11e>
        err = nrfx_flag32_alloc(&m_cb.available_evt_handlers, &id);
    5b84:	4810      	ldr	r0, [pc, #64]	; (5bc8 <nrfx_gpiote_input_configure+0x14c>)
    5b86:	f10d 010f 	add.w	r1, sp, #15
    5b8a:	f7ff fe75 	bl	5878 <nrfx_flag32_alloc>
        if (err != NRFX_SUCCESS)
    5b8e:	4b0c      	ldr	r3, [pc, #48]	; (5bc0 <nrfx_gpiote_input_configure+0x144>)
    5b90:	4298      	cmp	r0, r3
    5b92:	f47f af7d 	bne.w	5a90 <nrfx_gpiote_input_configure+0x14>
        handler_id = (int32_t)id;
    5b96:	f89d 200f 	ldrb.w	r2, [sp, #15]
    m_cb.handlers[handler_id].handler = handler;
    5b9a:	f845 6032 	str.w	r6, [r5, r2, lsl #3]
    m_cb.handlers[handler_id].p_context = p_context;
    5b9e:	eb05 03c2 	add.w	r3, r5, r2, lsl #3
    m_cb.pin_flags[pin] |= PIN_FLAG_HANDLER(handler_id);
    5ba2:	3408      	adds	r4, #8
    m_cb.handlers[handler_id].p_context = p_context;
    5ba4:	605f      	str	r7, [r3, #4]
    m_cb.pin_flags[pin] |= PIN_FLAG_HANDLER(handler_id);
    5ba6:	f835 3014 	ldrh.w	r3, [r5, r4, lsl #1]
    5baa:	ea43 2342 	orr.w	r3, r3, r2, lsl #9
    5bae:	f443 7380 	orr.w	r3, r3, #256	; 0x100
    5bb2:	f825 3014 	strh.w	r3, [r5, r4, lsl #1]
    5bb6:	e79b      	b.n	5af0 <nrfx_gpiote_input_configure+0x74>
    5bb8:	0bad0004 	.word	0x0bad0004
    5bbc:	20000144 	.word	0x20000144
    5bc0:	0bad0000 	.word	0x0bad0000
    5bc4:	40006000 	.word	0x40006000
    5bc8:	200001b8 	.word	0x200001b8

00005bcc <nrfx_gpiote_output_configure>:
{
    5bcc:	b5f0      	push	{r4, r5, r6, r7, lr}
    5bce:	4604      	mov	r4, r0
    5bd0:	b085      	sub	sp, #20
    5bd2:	4615      	mov	r5, r2
    if (p_config)
    5bd4:	b309      	cbz	r1, 5c1a <nrfx_gpiote_output_configure+0x4e>
    return PIN_FLAG_IS_OUTPUT(m_cb.pin_flags[pin]);
    5bd6:	f100 0708 	add.w	r7, r0, #8
    5bda:	4e31      	ldr	r6, [pc, #196]	; (5ca0 <nrfx_gpiote_output_configure+0xd4>)
    5bdc:	f836 3017 	ldrh.w	r3, [r6, r7, lsl #1]
        if (pin_is_input(pin) && pin_in_use_by_te(pin))
    5be0:	0798      	lsls	r0, r3, #30
    5be2:	d401      	bmi.n	5be8 <nrfx_gpiote_output_configure+0x1c>
    5be4:	069a      	lsls	r2, r3, #26
    5be6:	d458      	bmi.n	5c9a <nrfx_gpiote_output_configure+0xce>
        if (pin_has_trigger(pin) && (p_config->input_connect == NRF_GPIO_PIN_INPUT_DISCONNECT))
    5be8:	f013 0f1c 	tst.w	r3, #28
    5bec:	d002      	beq.n	5bf4 <nrfx_gpiote_output_configure+0x28>
    5bee:	784b      	ldrb	r3, [r1, #1]
    5bf0:	2b01      	cmp	r3, #1
    5bf2:	d052      	beq.n	5c9a <nrfx_gpiote_output_configure+0xce>
        nrf_gpio_pin_dir_t dir = NRF_GPIO_PIN_DIR_OUTPUT;
    5bf4:	2301      	movs	r3, #1
    5bf6:	f88d 300f 	strb.w	r3, [sp, #15]
        nrf_gpio_reconfigure(pin, &dir, &p_config->input_connect, &p_config->pull,
    5bfa:	2300      	movs	r3, #0
    5bfc:	e9cd 1300 	strd	r1, r3, [sp]
    5c00:	1c4a      	adds	r2, r1, #1
    5c02:	1c8b      	adds	r3, r1, #2
    5c04:	4620      	mov	r0, r4
    5c06:	f10d 010f 	add.w	r1, sp, #15
    5c0a:	f004 ff41 	bl	aa90 <nrf_gpio_reconfigure>
        m_cb.pin_flags[pin] |= PIN_FLAG_IN_USE | PIN_FLAG_OUTPUT;
    5c0e:	f836 3017 	ldrh.w	r3, [r6, r7, lsl #1]
    5c12:	f043 0303 	orr.w	r3, r3, #3
    5c16:	f826 3017 	strh.w	r3, [r6, r7, lsl #1]
    if (p_task_config)
    5c1a:	b915      	cbnz	r5, 5c22 <nrfx_gpiote_output_configure+0x56>
    return NRFX_SUCCESS;
    5c1c:	4821      	ldr	r0, [pc, #132]	; (5ca4 <nrfx_gpiote_output_configure+0xd8>)
}
    5c1e:	b005      	add	sp, #20
    5c20:	bdf0      	pop	{r4, r5, r6, r7, pc}
    return PIN_FLAG_IS_OUTPUT(m_cb.pin_flags[pin]);
    5c22:	4e1f      	ldr	r6, [pc, #124]	; (5ca0 <nrfx_gpiote_output_configure+0xd4>)
    5c24:	f104 0708 	add.w	r7, r4, #8
    5c28:	f836 0017 	ldrh.w	r0, [r6, r7, lsl #1]
        if (pin_is_input(pin))
    5c2c:	0783      	lsls	r3, r0, #30
    5c2e:	d534      	bpl.n	5c9a <nrfx_gpiote_output_configure+0xce>
        uint32_t ch = p_task_config->task_ch;
    5c30:	f895 c000 	ldrb.w	ip, [r5]
    p_reg->CONFIG[idx] = 0;
    5c34:	4661      	mov	r1, ip
    5c36:	0089      	lsls	r1, r1, #2
        m_cb.pin_flags[pin] &= ~(PIN_FLAG_TE_USED | PIN_TE_ID_MASK);
    5c38:	f020 0020 	bic.w	r0, r0, #32
    5c3c:	f101 4180 	add.w	r1, r1, #1073741824	; 0x40000000
    5c40:	04c0      	lsls	r0, r0, #19
    5c42:	f501 41c0 	add.w	r1, r1, #24576	; 0x6000
    5c46:	0cc0      	lsrs	r0, r0, #19
    5c48:	f826 0017 	strh.w	r0, [r6, r7, lsl #1]
    5c4c:	2300      	movs	r3, #0
    5c4e:	f8c1 3510 	str.w	r3, [r1, #1296]	; 0x510
        if (p_task_config->polarity != NRF_GPIOTE_POLARITY_NONE)
    5c52:	786a      	ldrb	r2, [r5, #1]
    5c54:	2a00      	cmp	r2, #0
    5c56:	d0e1      	beq.n	5c1c <nrfx_gpiote_output_configure+0x50>
  p_reg->CONFIG[idx] &= ~(GPIOTE_CONFIG_PORT_PIN_Msk |
    5c58:	f8d1 3510 	ldr.w	r3, [r1, #1296]	; 0x510
            nrf_gpiote_task_configure(NRF_GPIOTE, ch, pin,
    5c5c:	78ad      	ldrb	r5, [r5, #2]
    5c5e:	f423 1399 	bic.w	r3, r3, #1253376	; 0x132000
    5c62:	f423 53f8 	bic.w	r3, r3, #7936	; 0x1f00
    5c66:	f8c1 3510 	str.w	r3, [r1, #1296]	; 0x510
  p_reg->CONFIG[idx] |= ((pin << GPIOTE_CONFIG_PSEL_Pos) & GPIOTE_CONFIG_PORT_PIN_Msk) |
    5c6a:	f8d1 e510 	ldr.w	lr, [r1, #1296]	; 0x510
    5c6e:	0223      	lsls	r3, r4, #8
    5c70:	f403 537c 	and.w	r3, r3, #16128	; 0x3f00
                        ((polarity << GPIOTE_CONFIG_POLARITY_Pos) & GPIOTE_CONFIG_POLARITY_Msk) |
    5c74:	0412      	lsls	r2, r2, #16
  p_reg->CONFIG[idx] |= ((pin << GPIOTE_CONFIG_PSEL_Pos) & GPIOTE_CONFIG_PORT_PIN_Msk) |
    5c76:	ea43 030e 	orr.w	r3, r3, lr
                        ((polarity << GPIOTE_CONFIG_POLARITY_Pos) & GPIOTE_CONFIG_POLARITY_Msk) |
    5c7a:	f402 3240 	and.w	r2, r2, #196608	; 0x30000
                        ((init_val << GPIOTE_CONFIG_OUTINIT_Pos) & GPIOTE_CONFIG_OUTINIT_Msk);
    5c7e:	052d      	lsls	r5, r5, #20
  p_reg->CONFIG[idx] |= ((pin << GPIOTE_CONFIG_PSEL_Pos) & GPIOTE_CONFIG_PORT_PIN_Msk) |
    5c80:	4313      	orrs	r3, r2
                        ((init_val << GPIOTE_CONFIG_OUTINIT_Pos) & GPIOTE_CONFIG_OUTINIT_Msk);
    5c82:	f405 1580 	and.w	r5, r5, #1048576	; 0x100000
            m_cb.pin_flags[pin] |= PIN_FLAG_TE_ID(ch);
    5c86:	ea40 304c 	orr.w	r0, r0, ip, lsl #13
  p_reg->CONFIG[idx] |= ((pin << GPIOTE_CONFIG_PSEL_Pos) & GPIOTE_CONFIG_PORT_PIN_Msk) |
    5c8a:	432b      	orrs	r3, r5
    5c8c:	f040 0020 	orr.w	r0, r0, #32
    5c90:	f826 0017 	strh.w	r0, [r6, r7, lsl #1]
    5c94:	f8c1 3510 	str.w	r3, [r1, #1296]	; 0x510
    5c98:	e7c0      	b.n	5c1c <nrfx_gpiote_output_configure+0x50>
            return NRFX_ERROR_INVALID_PARAM;
    5c9a:	4803      	ldr	r0, [pc, #12]	; (5ca8 <nrfx_gpiote_output_configure+0xdc>)
    5c9c:	e7bf      	b.n	5c1e <nrfx_gpiote_output_configure+0x52>
    5c9e:	bf00      	nop
    5ca0:	20000144 	.word	0x20000144
    5ca4:	0bad0000 	.word	0x0bad0000
    5ca8:	0bad0004 	.word	0x0bad0004

00005cac <nrfx_gpiote_global_callback_set>:
    m_cb.global_handler.handler = handler;
    5cac:	4b01      	ldr	r3, [pc, #4]	; (5cb4 <nrfx_gpiote_global_callback_set+0x8>)
    m_cb.global_handler.p_context = p_context;
    5cae:	e9c3 0102 	strd	r0, r1, [r3, #8]
}
    5cb2:	4770      	bx	lr
    5cb4:	20000144 	.word	0x20000144

00005cb8 <nrfx_gpiote_channel_get>:
{
    5cb8:	b538      	push	{r3, r4, r5, lr}
    5cba:	4604      	mov	r4, r0
    NRFX_ASSERT(p_channel);
    5cbc:	460d      	mov	r5, r1
    5cbe:	b959      	cbnz	r1, 5cd8 <nrfx_gpiote_channel_get+0x20>
    5cc0:	490b      	ldr	r1, [pc, #44]	; (5cf0 <nrfx_gpiote_channel_get+0x38>)
    5cc2:	480c      	ldr	r0, [pc, #48]	; (5cf4 <nrfx_gpiote_channel_get+0x3c>)
    5cc4:	4a0c      	ldr	r2, [pc, #48]	; (5cf8 <nrfx_gpiote_channel_get+0x40>)
    5cc6:	f240 2335 	movw	r3, #565	; 0x235
    5cca:	f004 f8b8 	bl	9e3e <printk>
    5cce:	480a      	ldr	r0, [pc, #40]	; (5cf8 <nrfx_gpiote_channel_get+0x40>)
    5cd0:	f240 2135 	movw	r1, #565	; 0x235
    5cd4:	f003 ffb0 	bl	9c38 <assert_post_action>
    return m_cb.pin_flags[pin] & PIN_FLAG_TE_USED;
    5cd8:	3408      	adds	r4, #8
    5cda:	4b08      	ldr	r3, [pc, #32]	; (5cfc <nrfx_gpiote_channel_get+0x44>)
    5cdc:	f833 3014 	ldrh.w	r3, [r3, r4, lsl #1]
    if (pin_in_use_by_te(pin))
    5ce0:	069a      	lsls	r2, r3, #26
        *p_channel = PIN_GET_TE_ID(m_cb.pin_flags[pin]);
    5ce2:	bf43      	ittte	mi
    5ce4:	0b5b      	lsrmi	r3, r3, #13
    5ce6:	702b      	strbmi	r3, [r5, #0]
        return NRFX_SUCCESS;
    5ce8:	4805      	ldrmi	r0, [pc, #20]	; (5d00 <nrfx_gpiote_channel_get+0x48>)
        return NRFX_ERROR_INVALID_PARAM;
    5cea:	4806      	ldrpl	r0, [pc, #24]	; (5d04 <nrfx_gpiote_channel_get+0x4c>)
}
    5cec:	bd38      	pop	{r3, r4, r5, pc}
    5cee:	bf00      	nop
    5cf0:	0000c11c 	.word	0x0000c11c
    5cf4:	0000b2d3 	.word	0x0000b2d3
    5cf8:	0000c0a4 	.word	0x0000c0a4
    5cfc:	20000144 	.word	0x20000144
    5d00:	0bad0000 	.word	0x0bad0000
    5d04:	0bad0004 	.word	0x0bad0004

00005d08 <nrfx_gpiote_init>:
{
    5d08:	b538      	push	{r3, r4, r5, lr}
    if (m_cb.state != NRFX_DRV_STATE_UNINITIALIZED)
    5d0a:	4c0e      	ldr	r4, [pc, #56]	; (5d44 <nrfx_gpiote_init+0x3c>)
    5d0c:	f894 5078 	ldrb.w	r5, [r4, #120]	; 0x78
    5d10:	b9b5      	cbnz	r5, 5d40 <nrfx_gpiote_init+0x38>
    memset(m_cb.pin_flags, 0, sizeof(m_cb.pin_flags));
    5d12:	2260      	movs	r2, #96	; 0x60
    5d14:	4629      	mov	r1, r5
    5d16:	f104 0010 	add.w	r0, r4, #16
    5d1a:	f004 fa84 	bl	a226 <memset>
    NRFX_IRQ_ENABLE(nrfx_get_irq_number(NRF_GPIOTE));
    5d1e:	2006      	movs	r0, #6
    5d20:	f7fd fb24 	bl	336c <arch_irq_enable>
    *((volatile uint32_t *)nrf_gpiote_event_address_get(p_reg, event)) = 0;
    5d24:	4b08      	ldr	r3, [pc, #32]	; (5d48 <nrfx_gpiote_init+0x40>)
    return err_code;
    5d26:	4809      	ldr	r0, [pc, #36]	; (5d4c <nrfx_gpiote_init+0x44>)
    5d28:	601d      	str	r5, [r3, #0]
    5d2a:	681b      	ldr	r3, [r3, #0]
    p_reg->INTENSET = mask;
    5d2c:	4b08      	ldr	r3, [pc, #32]	; (5d50 <nrfx_gpiote_init+0x48>)
    5d2e:	f04f 4200 	mov.w	r2, #2147483648	; 0x80000000
    5d32:	f8c3 2304 	str.w	r2, [r3, #772]	; 0x304
    m_cb.state = NRFX_DRV_STATE_INITIALIZED;
    5d36:	2301      	movs	r3, #1
    5d38:	f884 3078 	strb.w	r3, [r4, #120]	; 0x78
    m_cb.available_evt_handlers = NRFX_BIT_MASK(NRFX_GPIOTE_CONFIG_NUM_OF_EVT_HANDLERS);
    5d3c:	6763      	str	r3, [r4, #116]	; 0x74
}
    5d3e:	bd38      	pop	{r3, r4, r5, pc}
        return err_code;
    5d40:	4804      	ldr	r0, [pc, #16]	; (5d54 <nrfx_gpiote_init+0x4c>)
    5d42:	e7fc      	b.n	5d3e <nrfx_gpiote_init+0x36>
    5d44:	20000144 	.word	0x20000144
    5d48:	4000617c 	.word	0x4000617c
    5d4c:	0bad0000 	.word	0x0bad0000
    5d50:	40006000 	.word	0x40006000
    5d54:	0bad0005 	.word	0x0bad0005

00005d58 <nrfx_gpiote_is_init>:
    return (m_cb.state != NRFX_DRV_STATE_UNINITIALIZED) ? true : false;
    5d58:	4b03      	ldr	r3, [pc, #12]	; (5d68 <nrfx_gpiote_is_init+0x10>)
    5d5a:	f893 0078 	ldrb.w	r0, [r3, #120]	; 0x78
}
    5d5e:	3800      	subs	r0, #0
    5d60:	bf18      	it	ne
    5d62:	2001      	movne	r0, #1
    5d64:	4770      	bx	lr
    5d66:	bf00      	nop
    5d68:	20000144 	.word	0x20000144

00005d6c <nrfx_gpiote_channel_free>:
{
    5d6c:	4601      	mov	r1, r0
    return nrfx_flag32_free(&m_cb.available_channels_mask, channel);
    5d6e:	4801      	ldr	r0, [pc, #4]	; (5d74 <nrfx_gpiote_channel_free+0x8>)
    5d70:	f7ff bda6 	b.w	58c0 <nrfx_flag32_free>
    5d74:	200001b4 	.word	0x200001b4

00005d78 <nrfx_gpiote_channel_alloc>:
{
    5d78:	4601      	mov	r1, r0
    return nrfx_flag32_alloc(&m_cb.available_channels_mask, p_channel);
    5d7a:	4801      	ldr	r0, [pc, #4]	; (5d80 <nrfx_gpiote_channel_alloc+0x8>)
    5d7c:	f7ff bd7c 	b.w	5878 <nrfx_flag32_alloc>
    5d80:	200001b4 	.word	0x200001b4

00005d84 <nrfx_gpiote_trigger_enable>:
{
    5d84:	b5f7      	push	{r0, r1, r2, r4, r5, r6, r7, lr}
    return PIN_FLAG_TRIG_MODE_GET(m_cb.pin_flags[pin]) != NRFX_GPIOTE_TRIGGER_NONE;
    5d86:	4d31      	ldr	r5, [pc, #196]	; (5e4c <nrfx_gpiote_trigger_enable+0xc8>)
    5d88:	f100 0708 	add.w	r7, r0, #8
{
    5d8c:	4604      	mov	r4, r0
    return PIN_FLAG_TRIG_MODE_GET(m_cb.pin_flags[pin]) != NRFX_GPIOTE_TRIGGER_NONE;
    5d8e:	f835 3017 	ldrh.w	r3, [r5, r7, lsl #1]
    NRFX_ASSERT(pin_has_trigger(pin));
    5d92:	f013 0f1c 	tst.w	r3, #28
{
    5d96:	460e      	mov	r6, r1
    NRFX_ASSERT(pin_has_trigger(pin));
    5d98:	d10b      	bne.n	5db2 <nrfx_gpiote_trigger_enable+0x2e>
    5d9a:	492d      	ldr	r1, [pc, #180]	; (5e50 <nrfx_gpiote_trigger_enable+0xcc>)
    5d9c:	482d      	ldr	r0, [pc, #180]	; (5e54 <nrfx_gpiote_trigger_enable+0xd0>)
    5d9e:	4a2e      	ldr	r2, [pc, #184]	; (5e58 <nrfx_gpiote_trigger_enable+0xd4>)
    5da0:	f240 33df 	movw	r3, #991	; 0x3df
    5da4:	f004 f84b 	bl	9e3e <printk>
    5da8:	482b      	ldr	r0, [pc, #172]	; (5e58 <nrfx_gpiote_trigger_enable+0xd4>)
    5daa:	f240 31df 	movw	r1, #991	; 0x3df
    5dae:	f003 ff43 	bl	9c38 <assert_post_action>
    return m_cb.pin_flags[pin] & PIN_FLAG_TE_USED;
    5db2:	f835 0017 	ldrh.w	r0, [r5, r7, lsl #1]
    if (pin_in_use_by_te(pin) && pin_is_input(pin))
    5db6:	0683      	lsls	r3, r0, #26
    5db8:	d51f      	bpl.n	5dfa <nrfx_gpiote_trigger_enable+0x76>
    5dba:	f010 0302 	ands.w	r3, r0, #2
    5dbe:	d11c      	bne.n	5dfa <nrfx_gpiote_trigger_enable+0x76>
    return PIN_GET_TE_ID(m_cb.pin_flags[pin]);
    5dc0:	0b41      	lsrs	r1, r0, #13
        nrf_gpiote_event_clear(NRF_GPIOTE, nrf_gpiote_in_event_get(ch));
    5dc2:	4608      	mov	r0, r1
    5dc4:	f004 fe60 	bl	aa88 <nrf_gpiote_in_event_get>
    return ((uint32_t)p_reg + event);
    5dc8:	f100 4080 	add.w	r0, r0, #1073741824	; 0x40000000
    5dcc:	f500 40c0 	add.w	r0, r0, #24576	; 0x6000
    *((volatile uint32_t *)nrf_gpiote_event_address_get(p_reg, event)) = 0;
    5dd0:	6003      	str	r3, [r0, #0]
    5dd2:	6803      	ldr	r3, [r0, #0]
   p_reg->CONFIG[idx] |= GPIOTE_CONFIG_MODE_Event;
    5dd4:	008b      	lsls	r3, r1, #2
    5dd6:	f103 4380 	add.w	r3, r3, #1073741824	; 0x40000000
    5dda:	f503 43c0 	add.w	r3, r3, #24576	; 0x6000
    5dde:	f8d3 2510 	ldr.w	r2, [r3, #1296]	; 0x510
    5de2:	f042 0201 	orr.w	r2, r2, #1
    5de6:	f8c3 2510 	str.w	r2, [r3, #1296]	; 0x510
        if (int_enable)
    5dea:	b126      	cbz	r6, 5df6 <nrfx_gpiote_trigger_enable+0x72>
    p_reg->INTENSET = mask;
    5dec:	4a1b      	ldr	r2, [pc, #108]	; (5e5c <nrfx_gpiote_trigger_enable+0xd8>)
            nrf_gpiote_int_enable(NRF_GPIOTE, NRFX_BIT(ch));
    5dee:	2301      	movs	r3, #1
    5df0:	408b      	lsls	r3, r1
    5df2:	f8c2 3304 	str.w	r3, [r2, #772]	; 0x304
}
    5df6:	b003      	add	sp, #12
    5df8:	bdf0      	pop	{r4, r5, r6, r7, pc}
        NRFX_ASSERT(int_enable);
    5dfa:	b95e      	cbnz	r6, 5e14 <nrfx_gpiote_trigger_enable+0x90>
    5dfc:	4918      	ldr	r1, [pc, #96]	; (5e60 <nrfx_gpiote_trigger_enable+0xdc>)
    5dfe:	4815      	ldr	r0, [pc, #84]	; (5e54 <nrfx_gpiote_trigger_enable+0xd0>)
    5e00:	4a15      	ldr	r2, [pc, #84]	; (5e58 <nrfx_gpiote_trigger_enable+0xd4>)
    5e02:	f240 33ee 	movw	r3, #1006	; 0x3ee
    5e06:	f004 f81a 	bl	9e3e <printk>
    5e0a:	4813      	ldr	r0, [pc, #76]	; (5e58 <nrfx_gpiote_trigger_enable+0xd4>)
    5e0c:	f240 31ee 	movw	r1, #1006	; 0x3ee
    5e10:	f003 ff12 	bl	9c38 <assert_post_action>
    nrfx_gpiote_trigger_t trigger = PIN_FLAG_TRIG_MODE_GET(m_cb.pin_flags[pin]);
    5e14:	f835 3017 	ldrh.w	r3, [r5, r7, lsl #1]
    5e18:	f3c3 0382 	ubfx	r3, r3, #2, #3
    if (trigger == NRFX_GPIOTE_TRIGGER_LOW)
    5e1c:	2b04      	cmp	r3, #4
    5e1e:	d010      	beq.n	5e42 <nrfx_gpiote_trigger_enable+0xbe>
    else if (trigger == NRFX_GPIOTE_TRIGGER_HIGH)
    5e20:	2b05      	cmp	r3, #5
    5e22:	d010      	beq.n	5e46 <nrfx_gpiote_trigger_enable+0xc2>
    NRF_GPIO_Type * reg = nrf_gpio_pin_port_decode(&pin_number);
    5e24:	a801      	add	r0, sp, #4
    5e26:	9401      	str	r4, [sp, #4]
    5e28:	f7ff fdf2 	bl	5a10 <nrf_gpio_pin_port_decode>
    return ((nrf_gpio_port_in_read(reg) >> pin_number) & 1UL);
    5e2c:	9b01      	ldr	r3, [sp, #4]
    return p_reg->IN;
    5e2e:	f8d0 1510 	ldr.w	r1, [r0, #1296]	; 0x510
    return ((nrf_gpio_port_in_read(reg) >> pin_number) & 1UL);
    5e32:	40d9      	lsrs	r1, r3
    5e34:	f001 0101 	and.w	r1, r1, #1
        sense = nrf_gpio_pin_read(pin) ? NRF_GPIO_PIN_SENSE_LOW : NRF_GPIO_PIN_SENSE_HIGH;
    5e38:	3102      	adds	r1, #2
        nrf_gpio_cfg_sense_set(pin, get_initial_sense(pin));
    5e3a:	4620      	mov	r0, r4
    5e3c:	f004 fe73 	bl	ab26 <nrf_gpio_cfg_sense_set>
}
    5e40:	e7d9      	b.n	5df6 <nrfx_gpiote_trigger_enable+0x72>
        sense = NRF_GPIO_PIN_SENSE_LOW;
    5e42:	2103      	movs	r1, #3
    5e44:	e7f9      	b.n	5e3a <nrfx_gpiote_trigger_enable+0xb6>
        sense = NRF_GPIO_PIN_SENSE_HIGH;
    5e46:	2102      	movs	r1, #2
    5e48:	e7f7      	b.n	5e3a <nrfx_gpiote_trigger_enable+0xb6>
    5e4a:	bf00      	nop
    5e4c:	20000144 	.word	0x20000144
    5e50:	0000c126 	.word	0x0000c126
    5e54:	0000b2d3 	.word	0x0000b2d3
    5e58:	0000c0a4 	.word	0x0000c0a4
    5e5c:	40006000 	.word	0x40006000
    5e60:	0000c13b 	.word	0x0000c13b

00005e64 <nrfx_gpiote_trigger_disable>:
    return m_cb.pin_flags[pin] & PIN_FLAG_TE_USED;
    5e64:	4b0e      	ldr	r3, [pc, #56]	; (5ea0 <nrfx_gpiote_trigger_disable+0x3c>)
    5e66:	f100 0208 	add.w	r2, r0, #8
    5e6a:	f833 3012 	ldrh.w	r3, [r3, r2, lsl #1]
    if (pin_in_use_by_te(pin) && pin_is_input(pin))
    5e6e:	0699      	lsls	r1, r3, #26
    5e70:	d513      	bpl.n	5e9a <nrfx_gpiote_trigger_disable+0x36>
    5e72:	079a      	lsls	r2, r3, #30
    5e74:	d411      	bmi.n	5e9a <nrfx_gpiote_trigger_disable+0x36>
    return PIN_GET_TE_ID(m_cb.pin_flags[pin]);
    5e76:	0b5b      	lsrs	r3, r3, #13
        nrf_gpiote_int_disable(NRF_GPIOTE, NRFX_BIT(ch));
    5e78:	2201      	movs	r2, #1
    5e7a:	409a      	lsls	r2, r3
    p_reg->INTENCLR = mask;
    5e7c:	009b      	lsls	r3, r3, #2
    5e7e:	4909      	ldr	r1, [pc, #36]	; (5ea4 <nrfx_gpiote_trigger_disable+0x40>)
    5e80:	f103 4380 	add.w	r3, r3, #1073741824	; 0x40000000
    5e84:	f503 43c0 	add.w	r3, r3, #24576	; 0x6000
    5e88:	f8c1 2308 	str.w	r2, [r1, #776]	; 0x308
   p_reg->CONFIG[idx] &= ~GPIOTE_CONFIG_MODE_Msk;
    5e8c:	f8d3 2510 	ldr.w	r2, [r3, #1296]	; 0x510
    5e90:	f022 0203 	bic.w	r2, r2, #3
    5e94:	f8c3 2510 	str.w	r2, [r3, #1296]	; 0x510
}
    5e98:	4770      	bx	lr
        nrf_gpio_cfg_sense_set(pin, NRF_GPIO_PIN_NOSENSE);
    5e9a:	2100      	movs	r1, #0
    5e9c:	f004 be43 	b.w	ab26 <nrf_gpio_cfg_sense_set>
    5ea0:	20000144 	.word	0x20000144
    5ea4:	40006000 	.word	0x40006000

00005ea8 <nrfx_gpiote_pin_uninit>:
    return m_cb.pin_flags[pin] & PIN_FLAG_IN_USE;
    5ea8:	4b0e      	ldr	r3, [pc, #56]	; (5ee4 <nrfx_gpiote_pin_uninit+0x3c>)
    5eaa:	f100 0208 	add.w	r2, r0, #8
{
    5eae:	b513      	push	{r0, r1, r4, lr}
    return m_cb.pin_flags[pin] & PIN_FLAG_IN_USE;
    5eb0:	f813 3012 	ldrb.w	r3, [r3, r2, lsl #1]
    if (!pin_in_use(pin))
    5eb4:	07db      	lsls	r3, r3, #31
{
    5eb6:	4604      	mov	r4, r0
    if (!pin_in_use(pin))
    5eb8:	d511      	bpl.n	5ede <nrfx_gpiote_pin_uninit+0x36>
    nrfx_gpiote_trigger_disable(pin);
    5eba:	f7ff ffd3 	bl	5e64 <nrfx_gpiote_trigger_disable>
    pin_handler_trigger_uninit(pin);
    5ebe:	4620      	mov	r0, r4
    5ec0:	f7ff fd8c 	bl	59dc <pin_handler_trigger_uninit>
    NRF_GPIO_Type * reg = nrf_gpio_pin_port_decode(&pin_number);
    5ec4:	a801      	add	r0, sp, #4
    5ec6:	9401      	str	r4, [sp, #4]
    5ec8:	f7ff fda2 	bl	5a10 <nrf_gpio_pin_port_decode>
    reg->PIN_CNF[pin_number] = cnf;
    5ecc:	9b01      	ldr	r3, [sp, #4]
    5ece:	f503 73e0 	add.w	r3, r3, #448	; 0x1c0
    5ed2:	2202      	movs	r2, #2
    5ed4:	f840 2023 	str.w	r2, [r0, r3, lsl #2]
    nrf_gpio_cfg(
    5ed8:	4803      	ldr	r0, [pc, #12]	; (5ee8 <nrfx_gpiote_pin_uninit+0x40>)
}
    5eda:	b002      	add	sp, #8
    5edc:	bd10      	pop	{r4, pc}
        return NRFX_ERROR_INVALID_PARAM;
    5ede:	4803      	ldr	r0, [pc, #12]	; (5eec <nrfx_gpiote_pin_uninit+0x44>)
    5ee0:	e7fb      	b.n	5eda <nrfx_gpiote_pin_uninit+0x32>
    5ee2:	bf00      	nop
    5ee4:	20000144 	.word	0x20000144
    5ee8:	0bad0000 	.word	0x0bad0000
    5eec:	0bad0004 	.word	0x0bad0004

00005ef0 <nrfx_gpiote_irq_handler>:
        call_handler(pin, gpiote_polarity_to_trigger(polarity));
    }
}

void nrfx_gpiote_irq_handler(void)
{
    5ef0:	e92d 4ff0 	stmdb	sp!, {r4, r5, r6, r7, r8, r9, sl, fp, lr}
    5ef4:	4b65      	ldr	r3, [pc, #404]	; (608c <nrfx_gpiote_irq_handler+0x19c>)
    return p_reg->INTENSET & mask;
    5ef6:	4866      	ldr	r0, [pc, #408]	; (6090 <nrfx_gpiote_irq_handler+0x1a0>)
    uint32_t i;
    nrf_gpiote_event_t event = NRF_GPIOTE_EVENT_IN_0;
    uint32_t mask = (uint32_t)NRF_GPIOTE_INT_IN0_MASK;

    /* collect status of all GPIOTE pin events. Processing is done once all are collected and cleared.*/
    for (i = 0; i < GPIOTE_CH_NUM; i++)
    5ef8:	4966      	ldr	r1, [pc, #408]	; (6094 <nrfx_gpiote_irq_handler+0x1a4>)
    uint32_t status = 0;
    5efa:	2500      	movs	r5, #0
{
    5efc:	b089      	sub	sp, #36	; 0x24
    uint32_t mask = (uint32_t)NRF_GPIOTE_INT_IN0_MASK;
    5efe:	2201      	movs	r2, #1
    *((volatile uint32_t *)nrf_gpiote_event_address_get(p_reg, event)) = 0;
    5f00:	462c      	mov	r4, r5
    return (bool)*(volatile uint32_t *)((uint8_t *)p_reg + (uint32_t)event);
    5f02:	681e      	ldr	r6, [r3, #0]
    {
        if (nrf_gpiote_event_check(NRF_GPIOTE, event) &&
    5f04:	b136      	cbz	r6, 5f14 <nrfx_gpiote_irq_handler+0x24>
    return p_reg->INTENSET & mask;
    5f06:	f8d0 6304 	ldr.w	r6, [r0, #772]	; 0x304
    5f0a:	4216      	tst	r6, r2
    *((volatile uint32_t *)nrf_gpiote_event_address_get(p_reg, event)) = 0;
    5f0c:	bf1e      	ittt	ne
    5f0e:	601c      	strne	r4, [r3, #0]
    5f10:	681e      	ldrne	r6, [r3, #0]
            nrf_gpiote_int_enable_check(NRF_GPIOTE, mask))
        {
            nrf_gpiote_event_clear(NRF_GPIOTE, event);
            status |= mask;
    5f12:	4315      	orrne	r5, r2
        }
        mask <<= 1;
    5f14:	3304      	adds	r3, #4
    for (i = 0; i < GPIOTE_CH_NUM; i++)
    5f16:	428b      	cmp	r3, r1
        mask <<= 1;
    5f18:	ea4f 0242 	mov.w	r2, r2, lsl #1
    for (i = 0; i < GPIOTE_CH_NUM; i++)
    5f1c:	d1f1      	bne.n	5f02 <nrfx_gpiote_irq_handler+0x12>
    return (bool)*(volatile uint32_t *)((uint8_t *)p_reg + (uint32_t)event);
    5f1e:	4f5e      	ldr	r7, [pc, #376]	; (6098 <nrfx_gpiote_irq_handler+0x1a8>)
    5f20:	683b      	ldr	r3, [r7, #0]
         * in ascending order. */
        event = (nrf_gpiote_event_t)((uint32_t)event + sizeof(uint32_t));
    }

    /* handle PORT event */
    if (nrf_gpiote_event_check(NRF_GPIOTE, NRF_GPIOTE_EVENT_PORT))
    5f22:	b37b      	cbz	r3, 5f84 <nrfx_gpiote_irq_handler+0x94>
        *p_masks = gpio_regs[i]->LATCH;
    5f24:	f04f 43a0 	mov.w	r3, #1342177280	; 0x50000000
    5f28:	4e5c      	ldr	r6, [pc, #368]	; (609c <nrfx_gpiote_irq_handler+0x1ac>)
    5f2a:	f8d3 2520 	ldr.w	r2, [r3, #1312]	; 0x520
    5f2e:	9206      	str	r2, [sp, #24]
        gpio_regs[i]->LATCH = *p_masks;
    5f30:	f8c3 2520 	str.w	r2, [r3, #1312]	; 0x520
        *p_masks = gpio_regs[i]->LATCH;
    5f34:	f8d6 3520 	ldr.w	r3, [r6, #1312]	; 0x520
    5f38:	9307      	str	r3, [sp, #28]
        gpio_regs[i]->LATCH = *p_masks;
    5f3a:	f8c6 3520 	str.w	r3, [r6, #1312]	; 0x520
        *p_masks = gpio_regs[i]->LATCH;
    5f3e:	9601      	str	r6, [sp, #4]
        for (uint32_t i = 0; i < GPIO_COUNT; i++)
    5f40:	f10d 0918 	add.w	r9, sp, #24
                NRF_GPIO_PIN_SENSE_LOW : NRF_GPIO_PIN_SENSE_HIGH;
    5f44:	f04f 0800 	mov.w	r8, #0
__STATIC_INLINE void nrf_bitmask_bit_clear(uint32_t bit, void * p_mask)
{
    uint8_t * p_mask8 = (uint8_t *)p_mask;
    uint32_t byte_idx = BITMASK_BYTE_GET(bit);
    bit = BITMASK_RELBIT_GET(bit);
    p_mask8[byte_idx] &= ~(1 << bit);
    5f48:	f04f 0b01 	mov.w	fp, #1
            while (latch[i])
    5f4c:	f8d9 3000 	ldr.w	r3, [r9]
    5f50:	b9f3      	cbnz	r3, 5f90 <nrfx_gpiote_irq_handler+0xa0>
        for (uint32_t i = 0; i < GPIO_COUNT; i++)
    5f52:	f108 0820 	add.w	r8, r8, #32
    5f56:	f1b8 0f40 	cmp.w	r8, #64	; 0x40
    5f5a:	f109 0904 	add.w	r9, r9, #4
    5f5e:	d1f5      	bne.n	5f4c <nrfx_gpiote_irq_handler+0x5c>
    *((volatile uint32_t *)nrf_gpiote_event_address_get(p_reg, event)) = 0;
    5f60:	603b      	str	r3, [r7, #0]
    5f62:	683b      	ldr	r3, [r7, #0]
        gpio_regs[i]->LATCH = *p_masks;
    5f64:	9901      	ldr	r1, [sp, #4]
        *p_masks = gpio_regs[i]->LATCH;
    5f66:	f04f 43a0 	mov.w	r3, #1342177280	; 0x50000000
    5f6a:	f8d3 2520 	ldr.w	r2, [r3, #1312]	; 0x520
    5f6e:	9206      	str	r2, [sp, #24]
        gpio_regs[i]->LATCH = *p_masks;
    5f70:	f8c3 2520 	str.w	r2, [r3, #1312]	; 0x520
        *p_masks = gpio_regs[i]->LATCH;
    5f74:	9b01      	ldr	r3, [sp, #4]
    5f76:	f8d3 3520 	ldr.w	r3, [r3, #1312]	; 0x520
    5f7a:	9307      	str	r3, [sp, #28]
        gpio_regs[i]->LATCH = *p_masks;
    5f7c:	f8c1 3520 	str.w	r3, [r1, #1312]	; 0x520
        if (latch[port_idx])
    5f80:	4313      	orrs	r3, r2
    5f82:	d1dd      	bne.n	5f40 <nrfx_gpiote_irq_handler+0x50>
        mask &= ~NRFX_BIT(ch);
    5f84:	2401      	movs	r4, #1
    while (mask)
    5f86:	2d00      	cmp	r5, #0
    5f88:	d168      	bne.n	605c <nrfx_gpiote_irq_handler+0x16c>
        port_event_handle();
    }

    /* Process pin events. */
    gpiote_evt_handle(status);
}
    5f8a:	b009      	add	sp, #36	; 0x24
    5f8c:	e8bd 8ff0 	ldmia.w	sp!, {r4, r5, r6, r7, r8, r9, sl, fp, pc}
                uint32_t pin = NRF_CTZ(latch[i]);
    5f90:	fa93 f3a3 	rbit	r3, r3
    5f94:	fab3 f383 	clz	r3, r3
                pin += 32 * i;
    5f98:	eb08 0603 	add.w	r6, r8, r3
                nrfx_gpiote_trigger_t trigger = PIN_FLAG_TRIG_MODE_GET(m_cb.pin_flags[pin]);
    5f9c:	f106 0208 	add.w	r2, r6, #8
    5fa0:	4b3f      	ldr	r3, [pc, #252]	; (60a0 <nrfx_gpiote_irq_handler+0x1b0>)
    5fa2:	9605      	str	r6, [sp, #20]
    5fa4:	f833 2012 	ldrh.w	r2, [r3, r2, lsl #1]
    5fa8:	f3c2 0382 	ubfx	r3, r2, #2, #3
    uint32_t byte_idx = BITMASK_BYTE_GET(bit);
    5fac:	08f4      	lsrs	r4, r6, #3
    5fae:	9302      	str	r3, [sp, #8]
    5fb0:	469a      	mov	sl, r3
    p_mask8[byte_idx] &= ~(1 << bit);
    5fb2:	ab06      	add	r3, sp, #24
    bit = BITMASK_RELBIT_GET(bit);
    5fb4:	f006 0007 	and.w	r0, r6, #7
    p_mask8[byte_idx] &= ~(1 << bit);
    5fb8:	fa0b fc00 	lsl.w	ip, fp, r0
    5fbc:	5d18      	ldrb	r0, [r3, r4]
    5fbe:	ea20 000c 	bic.w	r0, r0, ip
    5fc2:	5518      	strb	r0, [r3, r4]
    5fc4:	0891      	lsrs	r1, r2, #2
    NRF_GPIO_Type * reg = nrf_gpio_pin_port_decode(&pin_number);
    5fc6:	a805      	add	r0, sp, #20
    5fc8:	9103      	str	r1, [sp, #12]
    5fca:	f7ff fd21 	bl	5a10 <nrf_gpio_pin_port_decode>
    return (nrf_gpio_pin_sense_t)((reg->PIN_CNF[pin_number] &
    5fce:	9c05      	ldr	r4, [sp, #20]
    if (is_level(trigger))
    5fd0:	9903      	ldr	r1, [sp, #12]
    5fd2:	f504 74e0 	add.w	r4, r4, #448	; 0x1c0
    5fd6:	074b      	lsls	r3, r1, #29
    5fd8:	f850 4024 	ldr.w	r4, [r0, r4, lsl #2]
                                   GPIO_PIN_CNF_SENSE_Msk) >> GPIO_PIN_CNF_SENSE_Pos);
    5fdc:	f3c4 4401 	ubfx	r4, r4, #16, #2
    5fe0:	d523      	bpl.n	602a <nrfx_gpiote_irq_handler+0x13a>
        call_handler(pin, trigger);
    5fe2:	4651      	mov	r1, sl
    5fe4:	4630      	mov	r0, r6
    5fe6:	f7ff fc9b 	bl	5920 <call_handler>
    NRF_GPIO_Type * reg = nrf_gpio_pin_port_decode(&pin_number);
    5fea:	a805      	add	r0, sp, #20
    5fec:	9605      	str	r6, [sp, #20]
    5fee:	f7ff fd0f 	bl	5a10 <nrf_gpio_pin_port_decode>
    return (nrf_gpio_pin_sense_t)((reg->PIN_CNF[pin_number] &
    5ff2:	9a05      	ldr	r2, [sp, #20]
    5ff4:	f502 72e0 	add.w	r2, r2, #448	; 0x1c0
    5ff8:	b2e4      	uxtb	r4, r4
    5ffa:	f850 2022 	ldr.w	r2, [r0, r2, lsl #2]
        if (nrf_gpio_pin_sense_get(pin) == sense)
    5ffe:	f3c2 4201 	ubfx	r2, r2, #16, #2
    6002:	4294      	cmp	r4, r2
    6004:	d107      	bne.n	6016 <nrfx_gpiote_irq_handler+0x126>
            nrf_gpio_cfg_sense_set(pin, NRF_GPIO_PIN_NOSENSE);
    6006:	2100      	movs	r1, #0
    6008:	4630      	mov	r0, r6
    600a:	f004 fd8c 	bl	ab26 <nrf_gpio_cfg_sense_set>
            nrf_gpio_cfg_sense_set(pin, sense);
    600e:	4621      	mov	r1, r4
    6010:	4630      	mov	r0, r6
    6012:	f004 fd88 	bl	ab26 <nrf_gpio_cfg_sense_set>
    NRF_GPIO_Type * reg = nrf_gpio_pin_port_decode(&pin_number);
    6016:	a805      	add	r0, sp, #20
    6018:	9605      	str	r6, [sp, #20]
    601a:	f7ff fcf9 	bl	5a10 <nrf_gpio_pin_port_decode>
    reg->LATCH = (1 << pin_number);
    601e:	9b05      	ldr	r3, [sp, #20]
    6020:	fa0b f303 	lsl.w	r3, fp, r3
    6024:	f8c0 3520 	str.w	r3, [r0, #1312]	; 0x520
    6028:	e790      	b.n	5f4c <nrfx_gpiote_irq_handler+0x5c>
                NRF_GPIO_PIN_SENSE_LOW : NRF_GPIO_PIN_SENSE_HIGH;
    602a:	2c02      	cmp	r4, #2
        nrf_gpio_cfg_sense_set(pin, next_sense);
    602c:	bf0c      	ite	eq
    602e:	2103      	moveq	r1, #3
    6030:	2102      	movne	r1, #2
    6032:	4630      	mov	r0, r6
    6034:	f004 fd77 	bl	ab26 <nrf_gpio_cfg_sense_set>
        if ((trigger == NRFX_GPIOTE_TRIGGER_TOGGLE) ||
    6038:	9b02      	ldr	r3, [sp, #8]
    603a:	2b03      	cmp	r3, #3
    603c:	d004      	beq.n	6048 <nrfx_gpiote_irq_handler+0x158>
    603e:	2c02      	cmp	r4, #2
    6040:	d107      	bne.n	6052 <nrfx_gpiote_irq_handler+0x162>
            (sense == NRF_GPIO_PIN_SENSE_HIGH && trigger == NRFX_GPIOTE_TRIGGER_LOTOHI) ||
    6042:	f1ba 0f01 	cmp.w	sl, #1
            (sense == NRF_GPIO_PIN_SENSE_LOW && trigger == NRFX_GPIOTE_TRIGGER_HITOLO))
    6046:	d1e6      	bne.n	6016 <nrfx_gpiote_irq_handler+0x126>
            call_handler(pin, trigger);
    6048:	4651      	mov	r1, sl
    604a:	4630      	mov	r0, r6
    604c:	f7ff fc68 	bl	5920 <call_handler>
    6050:	e7e1      	b.n	6016 <nrfx_gpiote_irq_handler+0x126>
            (sense == NRF_GPIO_PIN_SENSE_HIGH && trigger == NRFX_GPIOTE_TRIGGER_LOTOHI) ||
    6052:	2c03      	cmp	r4, #3
    6054:	d1df      	bne.n	6016 <nrfx_gpiote_irq_handler+0x126>
            (sense == NRF_GPIO_PIN_SENSE_LOW && trigger == NRFX_GPIOTE_TRIGGER_HITOLO))
    6056:	f1ba 0f02 	cmp.w	sl, #2
    605a:	e7f4      	b.n	6046 <nrfx_gpiote_irq_handler+0x156>
        uint32_t ch = NRF_CTZ(mask);
    605c:	fa95 f3a5 	rbit	r3, r5
    6060:	fab3 f383 	clz	r3, r3
        mask &= ~NRFX_BIT(ch);
    6064:	fa04 f203 	lsl.w	r2, r4, r3
    6068:	009b      	lsls	r3, r3, #2
    606a:	f103 4380 	add.w	r3, r3, #1073741824	; 0x40000000
    606e:	f503 43c0 	add.w	r3, r3, #24576	; 0x6000
    6072:	ea25 0502 	bic.w	r5, r5, r2
    return ((p_reg->CONFIG[idx] & GPIOTE_CONFIG_PORT_PIN_Msk) >> GPIOTE_CONFIG_PSEL_Pos);
    6076:	f8d3 0510 	ldr.w	r0, [r3, #1296]	; 0x510
    return (nrf_gpiote_polarity_t)((p_reg->CONFIG[idx] & GPIOTE_CONFIG_POLARITY_Msk) >>
    607a:	f8d3 1510 	ldr.w	r1, [r3, #1296]	; 0x510
        call_handler(pin, gpiote_polarity_to_trigger(polarity));
    607e:	f3c0 2005 	ubfx	r0, r0, #8, #6
    6082:	f3c1 4101 	ubfx	r1, r1, #16, #2
    6086:	f7ff fc4b 	bl	5920 <call_handler>
    608a:	e77c      	b.n	5f86 <nrfx_gpiote_irq_handler+0x96>
    608c:	40006100 	.word	0x40006100
    6090:	40006000 	.word	0x40006000
    6094:	40006120 	.word	0x40006120
    6098:	4000617c 	.word	0x4000617c
    609c:	50000300 	.word	0x50000300
    60a0:	20000144 	.word	0x20000144

000060a4 <nrfx_ppi_channel_alloc>:
    nrfx_flag32_init(&m_groups_allocated, NRFX_PPI_ALL_APP_GROUPS_MASK);
}


nrfx_err_t nrfx_ppi_channel_alloc(nrf_ppi_channel_t * p_channel)
{
    60a4:	4601      	mov	r1, r0
    return nrfx_flag32_alloc(&m_channels_allocated, (uint8_t *)p_channel);
    60a6:	4801      	ldr	r0, [pc, #4]	; (60ac <nrfx_ppi_channel_alloc+0x8>)
    60a8:	f7ff bbe6 	b.w	5878 <nrfx_flag32_alloc>
    60ac:	200001c0 	.word	0x200001c0

000060b0 <nrf_pwm_sequence_set>:
}

NRF_STATIC_INLINE void nrf_pwm_sequence_set(NRF_PWM_Type *             p_reg,
                                            uint8_t                    seq_id,
                                            nrf_pwm_sequence_t const * p_seq)
{
    60b0:	e92d 41f0 	stmdb	sp!, {r4, r5, r6, r7, r8, lr}
    60b4:	4604      	mov	r4, r0
    60b6:	460e      	mov	r6, r1
    NRFX_ASSERT(p_seq != NULL);
    60b8:	4615      	mov	r5, r2
    60ba:	b95a      	cbnz	r2, 60d4 <nrf_pwm_sequence_set+0x24>
    60bc:	4932      	ldr	r1, [pc, #200]	; (6188 <nrf_pwm_sequence_set+0xd8>)
    60be:	4833      	ldr	r0, [pc, #204]	; (618c <nrf_pwm_sequence_set+0xdc>)
    60c0:	4a33      	ldr	r2, [pc, #204]	; (6190 <nrf_pwm_sequence_set+0xe0>)
    60c2:	f240 23a7 	movw	r3, #679	; 0x2a7
    60c6:	f003 feba 	bl	9e3e <printk>
    60ca:	4831      	ldr	r0, [pc, #196]	; (6190 <nrf_pwm_sequence_set+0xe0>)
    60cc:	f240 21a7 	movw	r1, #679	; 0x2a7
    60d0:	f003 fdb2 	bl	9c38 <assert_post_action>

    nrf_pwm_seq_ptr_set(      p_reg, seq_id, p_seq->values.p_raw);
    60d4:	682f      	ldr	r7, [r5, #0]
NRF_STATIC_INLINE void nrf_pwm_seq_ptr_set(NRF_PWM_Type *   p_reg,
                                           uint8_t          seq_id,
                                           uint16_t const * p_values)
{
    NRFX_ASSERT(seq_id <= 1);
    NRFX_ASSERT(p_values != NULL);
    60d6:	b95f      	cbnz	r7, 60f0 <nrf_pwm_sequence_set+0x40>
    60d8:	492e      	ldr	r1, [pc, #184]	; (6194 <nrf_pwm_sequence_set+0xe4>)
    60da:	482c      	ldr	r0, [pc, #176]	; (618c <nrf_pwm_sequence_set+0xdc>)
    60dc:	4a2c      	ldr	r2, [pc, #176]	; (6190 <nrf_pwm_sequence_set+0xe0>)
    60de:	f44f 732d 	mov.w	r3, #692	; 0x2b4
    60e2:	f003 feac 	bl	9e3e <printk>
    60e6:	482a      	ldr	r0, [pc, #168]	; (6190 <nrf_pwm_sequence_set+0xe0>)
    60e8:	f44f 712d 	mov.w	r1, #692	; 0x2b4
    60ec:	f003 fda4 	bl	9c38 <assert_post_action>
    p_reg->SEQ[seq_id].PTR = (uint32_t)p_values;
    60f0:	eb04 1846 	add.w	r8, r4, r6, lsl #5
    60f4:	f8c8 7520 	str.w	r7, [r8, #1312]	; 0x520
    nrf_pwm_seq_cnt_set(      p_reg, seq_id, p_seq->length);
    60f8:	88af      	ldrh	r7, [r5, #4]
NRF_STATIC_INLINE void nrf_pwm_seq_cnt_set(NRF_PWM_Type * p_reg,
                                           uint8_t        seq_id,
                                           uint16_t       length)
{
    NRFX_ASSERT(seq_id <= 1);
    NRFX_ASSERT(length != 0);
    60fa:	2f00      	cmp	r7, #0
    60fc:	d138      	bne.n	6170 <nrf_pwm_sequence_set+0xc0>
    60fe:	4926      	ldr	r1, [pc, #152]	; (6198 <nrf_pwm_sequence_set+0xe8>)
    6100:	4a23      	ldr	r2, [pc, #140]	; (6190 <nrf_pwm_sequence_set+0xe0>)
    6102:	4822      	ldr	r0, [pc, #136]	; (618c <nrf_pwm_sequence_set+0xdc>)
    6104:	f240 23bd 	movw	r3, #701	; 0x2bd
    6108:	f003 fe99 	bl	9e3e <printk>
    610c:	f240 21bd 	movw	r1, #701	; 0x2bd
    NRFX_ASSERT(length <= PWM_SEQ_CNT_CNT_Msk);
    6110:	481f      	ldr	r0, [pc, #124]	; (6190 <nrf_pwm_sequence_set+0xe0>)
    6112:	f003 fd91 	bl	9c38 <assert_post_action>
    p_reg->SEQ[seq_id].CNT = length;
    6116:	f8c8 7524 	str.w	r7, [r8, #1316]	; 0x524
    nrf_pwm_seq_refresh_set(  p_reg, seq_id, p_seq->repeats);
    611a:	68af      	ldr	r7, [r5, #8]
NRF_STATIC_INLINE void nrf_pwm_seq_refresh_set(NRF_PWM_Type * p_reg,
                                               uint8_t        seq_id,
                                               uint32_t       refresh)
{
    NRFX_ASSERT(seq_id <= 1);
    NRFX_ASSERT(refresh <= PWM_SEQ_REFRESH_CNT_Msk);
    611c:	f1b7 7f80 	cmp.w	r7, #16777216	; 0x1000000
    6120:	d30b      	bcc.n	613a <nrf_pwm_sequence_set+0x8a>
    6122:	491e      	ldr	r1, [pc, #120]	; (619c <nrf_pwm_sequence_set+0xec>)
    6124:	4819      	ldr	r0, [pc, #100]	; (618c <nrf_pwm_sequence_set+0xdc>)
    6126:	4a1a      	ldr	r2, [pc, #104]	; (6190 <nrf_pwm_sequence_set+0xe0>)
    6128:	f240 23c7 	movw	r3, #711	; 0x2c7
    612c:	f003 fe87 	bl	9e3e <printk>
    6130:	4817      	ldr	r0, [pc, #92]	; (6190 <nrf_pwm_sequence_set+0xe0>)
    6132:	f240 21c7 	movw	r1, #711	; 0x2c7
    6136:	f003 fd7f 	bl	9c38 <assert_post_action>
    nrf_pwm_seq_end_delay_set(p_reg, seq_id, p_seq->end_delay);
    613a:	68ed      	ldr	r5, [r5, #12]
    p_reg->SEQ[seq_id].REFRESH  = refresh;
    613c:	ea4f 1846 	mov.w	r8, r6, lsl #5
    6140:	eb04 1646 	add.w	r6, r4, r6, lsl #5
NRF_STATIC_INLINE void nrf_pwm_seq_end_delay_set(NRF_PWM_Type * p_reg,
                                                 uint8_t        seq_id,
                                                 uint32_t       end_delay)
{
    NRFX_ASSERT(seq_id <= 1);
    NRFX_ASSERT(end_delay <= PWM_SEQ_ENDDELAY_CNT_Msk);
    6144:	f1b5 7f80 	cmp.w	r5, #16777216	; 0x1000000
    p_reg->SEQ[seq_id].REFRESH  = refresh;
    6148:	f8c6 7528 	str.w	r7, [r6, #1320]	; 0x528
    NRFX_ASSERT(end_delay <= PWM_SEQ_ENDDELAY_CNT_Msk);
    614c:	d30b      	bcc.n	6166 <nrf_pwm_sequence_set+0xb6>
    614e:	4914      	ldr	r1, [pc, #80]	; (61a0 <nrf_pwm_sequence_set+0xf0>)
    6150:	480e      	ldr	r0, [pc, #56]	; (618c <nrf_pwm_sequence_set+0xdc>)
    6152:	4a0f      	ldr	r2, [pc, #60]	; (6190 <nrf_pwm_sequence_set+0xe0>)
    6154:	f44f 7334 	mov.w	r3, #720	; 0x2d0
    6158:	f003 fe71 	bl	9e3e <printk>
    615c:	480c      	ldr	r0, [pc, #48]	; (6190 <nrf_pwm_sequence_set+0xe0>)
    615e:	f44f 7134 	mov.w	r1, #720	; 0x2d0
    6162:	f003 fd69 	bl	9c38 <assert_post_action>
    p_reg->SEQ[seq_id].ENDDELAY = end_delay;
    6166:	4444      	add	r4, r8
    6168:	f8c4 552c 	str.w	r5, [r4, #1324]	; 0x52c
}
    616c:	e8bd 81f0 	ldmia.w	sp!, {r4, r5, r6, r7, r8, pc}
    NRFX_ASSERT(length <= PWM_SEQ_CNT_CNT_Msk);
    6170:	043b      	lsls	r3, r7, #16
    6172:	d5d0      	bpl.n	6116 <nrf_pwm_sequence_set+0x66>
    6174:	490b      	ldr	r1, [pc, #44]	; (61a4 <nrf_pwm_sequence_set+0xf4>)
    6176:	4a06      	ldr	r2, [pc, #24]	; (6190 <nrf_pwm_sequence_set+0xe0>)
    6178:	4804      	ldr	r0, [pc, #16]	; (618c <nrf_pwm_sequence_set+0xdc>)
    617a:	f240 23be 	movw	r3, #702	; 0x2be
    617e:	f003 fe5e 	bl	9e3e <printk>
    6182:	f240 21be 	movw	r1, #702	; 0x2be
    6186:	e7c3      	b.n	6110 <nrf_pwm_sequence_set+0x60>
    6188:	0000c178 	.word	0x0000c178
    618c:	0000b2d3 	.word	0x0000b2d3
    6190:	0000c146 	.word	0x0000c146
    6194:	0000c18d 	.word	0x0000c18d
    6198:	0000c1a5 	.word	0x0000c1a5
    619c:	0000c1cf 	.word	0x0000c1cf
    61a0:	0000c1f0 	.word	0x0000c1f0
    61a4:	0000c1b1 	.word	0x0000c1b1

000061a8 <nrf_gpio_pin_port_decode>:
    NRFX_ASSERT(nrf_gpio_pin_present_check(*p_pin));
    61a8:	6802      	ldr	r2, [r0, #0]
    switch (port)
    61aa:	0953      	lsrs	r3, r2, #5
{
    61ac:	b510      	push	{r4, lr}
    61ae:	4604      	mov	r4, r0
    switch (port)
    61b0:	d02c      	beq.n	620c <nrf_gpio_pin_port_decode+0x64>
    61b2:	2b01      	cmp	r3, #1
    uint32_t mask = 0;
    61b4:	f64f 73ff 	movw	r3, #65535	; 0xffff
    61b8:	bf18      	it	ne
    61ba:	2300      	movne	r3, #0
    pin_number &= 0x1F;
    61bc:	f002 021f 	and.w	r2, r2, #31
    return (mask & (1UL << pin_number)) ? true : false;
    61c0:	40d3      	lsrs	r3, r2
    NRFX_ASSERT(nrf_gpio_pin_present_check(*p_pin));
    61c2:	07db      	lsls	r3, r3, #31
    61c4:	d40b      	bmi.n	61de <nrf_gpio_pin_port_decode+0x36>
    61c6:	4914      	ldr	r1, [pc, #80]	; (6218 <nrf_gpio_pin_port_decode+0x70>)
    61c8:	4814      	ldr	r0, [pc, #80]	; (621c <nrf_gpio_pin_port_decode+0x74>)
    61ca:	4a15      	ldr	r2, [pc, #84]	; (6220 <nrf_gpio_pin_port_decode+0x78>)
    61cc:	f240 2329 	movw	r3, #553	; 0x229
    61d0:	f003 fe35 	bl	9e3e <printk>
    61d4:	4812      	ldr	r0, [pc, #72]	; (6220 <nrf_gpio_pin_port_decode+0x78>)
    61d6:	f240 2129 	movw	r1, #553	; 0x229
    61da:	f003 fd2d 	bl	9c38 <assert_post_action>
    uint32_t pin_number = *p_pin;
    61de:	6823      	ldr	r3, [r4, #0]
    *p_pin = pin_number & 0x1F;
    61e0:	f003 021f 	and.w	r2, r3, #31
    switch (nrf_gpio_pin_port_number_extract(p_pin))
    61e4:	095b      	lsrs	r3, r3, #5
    *p_pin = pin_number & 0x1F;
    61e6:	6022      	str	r2, [r4, #0]
    switch (nrf_gpio_pin_port_number_extract(p_pin))
    61e8:	d00d      	beq.n	6206 <nrf_gpio_pin_port_decode+0x5e>
    61ea:	2b01      	cmp	r3, #1
    61ec:	d011      	beq.n	6212 <nrf_gpio_pin_port_decode+0x6a>
            NRFX_ASSERT(0);
    61ee:	490d      	ldr	r1, [pc, #52]	; (6224 <nrf_gpio_pin_port_decode+0x7c>)
    61f0:	480a      	ldr	r0, [pc, #40]	; (621c <nrf_gpio_pin_port_decode+0x74>)
    61f2:	4a0b      	ldr	r2, [pc, #44]	; (6220 <nrf_gpio_pin_port_decode+0x78>)
    61f4:	f240 232e 	movw	r3, #558	; 0x22e
    61f8:	f003 fe21 	bl	9e3e <printk>
    61fc:	4808      	ldr	r0, [pc, #32]	; (6220 <nrf_gpio_pin_port_decode+0x78>)
    61fe:	f240 212e 	movw	r1, #558	; 0x22e
    6202:	f003 fd19 	bl	9c38 <assert_post_action>
    switch (nrf_gpio_pin_port_number_extract(p_pin))
    6206:	f04f 40a0 	mov.w	r0, #1342177280	; 0x50000000
}
    620a:	bd10      	pop	{r4, pc}
    switch (port)
    620c:	f04f 33ff 	mov.w	r3, #4294967295
    6210:	e7d4      	b.n	61bc <nrf_gpio_pin_port_decode+0x14>
        case 1: return NRF_P1;
    6212:	4805      	ldr	r0, [pc, #20]	; (6228 <nrf_gpio_pin_port_decode+0x80>)
    6214:	e7f9      	b.n	620a <nrf_gpio_pin_port_decode+0x62>
    6216:	bf00      	nop
    6218:	0000bf82 	.word	0x0000bf82
    621c:	0000b2d3 	.word	0x0000b2d3
    6220:	0000bf4f 	.word	0x0000bf4f
    6224:	0000b2d1 	.word	0x0000b2d1
    6228:	50000300 	.word	0x50000300

0000622c <nrfx_pwm_init>:

nrfx_err_t nrfx_pwm_init(nrfx_pwm_t const *        p_instance,
                         nrfx_pwm_config_t const * p_config,
                         nrfx_pwm_handler_t        handler,
                         void *                    p_context)
{
    622c:	e92d 4ff0 	stmdb	sp!, {r4, r5, r6, r7, r8, r9, sl, fp, lr}
    6230:	4606      	mov	r6, r0
    6232:	b087      	sub	sp, #28
    6234:	4691      	mov	r9, r2
    6236:	4698      	mov	r8, r3
    NRFX_ASSERT(p_config);
    6238:	460c      	mov	r4, r1
    623a:	b949      	cbnz	r1, 6250 <nrfx_pwm_init+0x24>
    623c:	4959      	ldr	r1, [pc, #356]	; (63a4 <nrfx_pwm_init+0x178>)
    623e:	485a      	ldr	r0, [pc, #360]	; (63a8 <nrfx_pwm_init+0x17c>)
    6240:	4a5a      	ldr	r2, [pc, #360]	; (63ac <nrfx_pwm_init+0x180>)
    6242:	238c      	movs	r3, #140	; 0x8c
    6244:	f003 fdfb 	bl	9e3e <printk>
    6248:	4858      	ldr	r0, [pc, #352]	; (63ac <nrfx_pwm_init+0x180>)
    624a:	218c      	movs	r1, #140	; 0x8c
    624c:	f003 fcf4 	bl	9c38 <assert_post_action>

    nrfx_err_t err_code;

    pwm_control_block_t * p_cb  = &m_cb[p_instance->drv_inst_idx];
    6250:	7937      	ldrb	r7, [r6, #4]

    if (p_cb->state != NRFX_DRV_STATE_UNINITIALIZED)
    6252:	4d57      	ldr	r5, [pc, #348]	; (63b0 <nrfx_pwm_init+0x184>)
    6254:	210c      	movs	r1, #12
    6256:	4379      	muls	r1, r7
    6258:	186b      	adds	r3, r5, r1
    625a:	7a1a      	ldrb	r2, [r3, #8]
    625c:	2a00      	cmp	r2, #0
    625e:	f040 809f 	bne.w	63a0 <nrfx_pwm_init+0x174>
        return err_code;
    }

    p_cb->handler = handler;
    p_cb->p_context = p_context;
    p_cb->skip_gpio_cfg = p_config->skip_gpio_cfg;
    6262:	7b22      	ldrb	r2, [r4, #12]
    p_cb->handler = handler;
    6264:	f845 9001 	str.w	r9, [r5, r1]
    p_cb->p_context = p_context;
    6268:	f8c3 8004 	str.w	r8, [r3, #4]
    p_cb->skip_gpio_cfg = p_config->skip_gpio_cfg;
    626c:	729a      	strb	r2, [r3, #10]
    if (p_config->skip_gpio_cfg && p_config->skip_psel_cfg)
    626e:	2a00      	cmp	r2, #0
    6270:	d04d      	beq.n	630e <nrfx_pwm_init+0xe2>
    6272:	7b63      	ldrb	r3, [r4, #13]
    6274:	2b00      	cmp	r3, #0
    6276:	d04a      	beq.n	630e <nrfx_pwm_init+0xe2>

    configure_pins(p_instance, p_config);

    nrf_pwm_enable(p_instance->p_registers);
    6278:	f8d6 8000 	ldr.w	r8, [r6]
    nrf_pwm_configure(p_instance->p_registers,
    627c:	f8b4 9008 	ldrh.w	r9, [r4, #8]
    p_reg->ENABLE = (PWM_ENABLE_ENABLE_Enabled << PWM_ENABLE_ENABLE_Pos);
    6280:	2301      	movs	r3, #1
    6282:	f8c8 3500 	str.w	r3, [r8, #1280]	; 0x500
    NRFX_ASSERT(top_value <= PWM_COUNTERTOP_COUNTERTOP_Msk);
    6286:	f9b4 3008 	ldrsh.w	r3, [r4, #8]
    628a:	f894 b005 	ldrb.w	fp, [r4, #5]
    628e:	f894 a006 	ldrb.w	sl, [r4, #6]
    6292:	2b00      	cmp	r3, #0
    6294:	da0b      	bge.n	62ae <nrfx_pwm_init+0x82>
    6296:	4947      	ldr	r1, [pc, #284]	; (63b4 <nrfx_pwm_init+0x188>)
    6298:	4843      	ldr	r0, [pc, #268]	; (63a8 <nrfx_pwm_init+0x17c>)
    629a:	4a47      	ldr	r2, [pc, #284]	; (63b8 <nrfx_pwm_init+0x18c>)
    629c:	f44f 7327 	mov.w	r3, #668	; 0x29c
    62a0:	f003 fdcd 	bl	9e3e <printk>
    62a4:	4844      	ldr	r0, [pc, #272]	; (63b8 <nrfx_pwm_init+0x18c>)
    62a6:	f44f 7127 	mov.w	r1, #668	; 0x29c
    62aa:	f003 fcc5 	bl	9c38 <assert_post_action>
    p_reg->PRESCALER  = base_clock;
    62ae:	f8c8 b50c 	str.w	fp, [r8, #1292]	; 0x50c
        p_config->base_clock, p_config->count_mode, p_config->top_value);
    nrf_pwm_decoder_set(p_instance->p_registers,
    62b2:	6830      	ldr	r0, [r6, #0]
    p_reg->MODE       = mode;
    62b4:	f8c8 a504 	str.w	sl, [r8, #1284]	; 0x504
    p_reg->COUNTERTOP = top_value;
    62b8:	f8c8 9508 	str.w	r9, [r8, #1288]	; 0x508

NRF_STATIC_INLINE void nrf_pwm_decoder_set(NRF_PWM_Type *     p_reg,
                                           nrf_pwm_dec_load_t dec_load,
                                           nrf_pwm_dec_step_t dec_step)
{
    p_reg->DECODER = ((uint32_t)dec_load << PWM_DECODER_LOAD_Pos) |
    62bc:	8963      	ldrh	r3, [r4, #10]
    62be:	f8c0 3510 	str.w	r3, [r0, #1296]	; 0x510
    p_reg->SHORTS = mask;
    62c2:	2300      	movs	r3, #0
    62c4:	f8c0 3200 	str.w	r3, [r0, #512]	; 0x200
    p_reg->INTEN = mask;
    62c8:	f8c0 3300 	str.w	r3, [r0, #768]	; 0x300
    *((volatile uint32_t *)((uint8_t *)p_reg + (uint32_t)event)) = 0x0UL;
    62cc:	f8c0 311c 	str.w	r3, [r0, #284]	; 0x11c
    62d0:	f8d0 211c 	ldr.w	r2, [r0, #284]	; 0x11c
    62d4:	f8c0 3110 	str.w	r3, [r0, #272]	; 0x110
    62d8:	f8d0 2110 	ldr.w	r2, [r0, #272]	; 0x110
    62dc:	f8c0 3114 	str.w	r3, [r0, #276]	; 0x114
    62e0:	f8d0 2114 	ldr.w	r2, [r0, #276]	; 0x114
    62e4:	f8c0 3104 	str.w	r3, [r0, #260]	; 0x104
    62e8:	f8d0 3104 	ldr.w	r3, [r0, #260]	; 0x104
    // handler is not used.
#if defined(USE_DMA_ISSUE_WORKAROUND)
    NRFX_IRQ_PRIORITY_SET(DMA_ISSUE_EGU_IRQn, p_config->irq_priority);
    NRFX_IRQ_ENABLE(DMA_ISSUE_EGU_IRQn);
#else
    if (p_cb->handler)
    62ec:	230c      	movs	r3, #12
    62ee:	437b      	muls	r3, r7
    62f0:	58eb      	ldr	r3, [r5, r3]
    62f2:	b11b      	cbz	r3, 62fc <nrfx_pwm_init+0xd0>
#endif
    {
        NRFX_IRQ_PRIORITY_SET(nrfx_get_irq_number(p_instance->p_registers),
            p_config->irq_priority);
        NRFX_IRQ_ENABLE(nrfx_get_irq_number(p_instance->p_registers));
    62f4:	f340 3007 	sbfx	r0, r0, #12, #8
    62f8:	f7fd f838 	bl	336c <arch_irq_enable>
    }

    p_cb->state = NRFX_DRV_STATE_INITIALIZED;
    62fc:	230c      	movs	r3, #12
    62fe:	fb03 5507 	mla	r5, r3, r7, r5

    err_code = NRFX_SUCCESS;
    NRFX_LOG_INFO("Function: %s, error code: %s.", __func__, NRFX_LOG_ERROR_STRING_GET(err_code));
    return err_code;
    6302:	482e      	ldr	r0, [pc, #184]	; (63bc <nrfx_pwm_init+0x190>)
    p_cb->state = NRFX_DRV_STATE_INITIALIZED;
    6304:	2301      	movs	r3, #1
    6306:	722b      	strb	r3, [r5, #8]
}
    6308:	b007      	add	sp, #28
    630a:	e8bd 8ff0 	ldmia.w	sp!, {r4, r5, r6, r7, r8, r9, sl, fp, pc}
    630e:	f104 39ff 	add.w	r9, r4, #4294967295
    6312:	f10d 0808 	add.w	r8, sp, #8
    6316:	f104 0a03 	add.w	sl, r4, #3
        uint8_t output_pin = p_config->output_pins[i];
    631a:	f819 2f01 	ldrb.w	r2, [r9, #1]!
        if (output_pin != NRFX_PWM_PIN_NOT_USED)
    631e:	2aff      	cmp	r2, #255	; 0xff
    6320:	d039      	beq.n	6396 <nrfx_pwm_init+0x16a>
            if (!p_config->skip_gpio_cfg)
    6322:	7b21      	ldrb	r1, [r4, #12]
            out_pins[i]   = output_pin & ~NRFX_PWM_PIN_INVERTED;
    6324:	f022 0b80 	bic.w	fp, r2, #128	; 0x80
    6328:	f8c8 b000 	str.w	fp, [r8]
            if (!p_config->skip_gpio_cfg)
    632c:	b9b1      	cbnz	r1, 635c <nrfx_pwm_init+0x130>
    if (value == 0)
    632e:	0613      	lsls	r3, r2, #24
    6330:	f8cd b004 	str.w	fp, [sp, #4]
    NRF_GPIO_Type * reg = nrf_gpio_pin_port_decode(&pin_number);
    6334:	a801      	add	r0, sp, #4
    if (value == 0)
    6336:	d426      	bmi.n	6386 <nrfx_pwm_init+0x15a>
    NRF_GPIO_Type * reg = nrf_gpio_pin_port_decode(&pin_number);
    6338:	f7ff ff36 	bl	61a8 <nrf_gpio_pin_port_decode>
    nrf_gpio_port_out_clear(reg, 1UL << pin_number);
    633c:	9901      	ldr	r1, [sp, #4]
    633e:	2201      	movs	r2, #1
    6340:	408a      	lsls	r2, r1
    p_reg->OUTCLR = clr_mask;
    6342:	f8c0 250c 	str.w	r2, [r0, #1292]	; 0x50c
    NRF_GPIO_Type * reg = nrf_gpio_pin_port_decode(&pin_number);
    6346:	a801      	add	r0, sp, #4
    6348:	f8cd b004 	str.w	fp, [sp, #4]
    634c:	f7ff ff2c 	bl	61a8 <nrf_gpio_pin_port_decode>
    reg->PIN_CNF[pin_number] = cnf;
    6350:	9b01      	ldr	r3, [sp, #4]
    6352:	f503 73e0 	add.w	r3, r3, #448	; 0x1c0
    6356:	2203      	movs	r2, #3
    6358:	f840 2023 	str.w	r2, [r0, r3, lsl #2]
    for (i = 0; i < NRF_PWM_CHANNEL_COUNT; ++i)
    635c:	45d1      	cmp	r9, sl
    635e:	f108 0804 	add.w	r8, r8, #4
    6362:	d1da      	bne.n	631a <nrfx_pwm_init+0xee>
    if (!p_config->skip_psel_cfg)
    6364:	7b63      	ldrb	r3, [r4, #13]
    6366:	2b00      	cmp	r3, #0
    6368:	d186      	bne.n	6278 <nrfx_pwm_init+0x4c>
    636a:	6833      	ldr	r3, [r6, #0]
        p_reg->PSEL.OUT[i] = out_pins[i];
    636c:	9a02      	ldr	r2, [sp, #8]
    636e:	f8c3 2560 	str.w	r2, [r3, #1376]	; 0x560
    6372:	9a03      	ldr	r2, [sp, #12]
    6374:	f8c3 2564 	str.w	r2, [r3, #1380]	; 0x564
    6378:	9a04      	ldr	r2, [sp, #16]
    637a:	f8c3 2568 	str.w	r2, [r3, #1384]	; 0x568
    637e:	9a05      	ldr	r2, [sp, #20]
    6380:	f8c3 256c 	str.w	r2, [r3, #1388]	; 0x56c
    for (i = 0; i < NRF_PWM_CHANNEL_COUNT; ++i)
    6384:	e778      	b.n	6278 <nrfx_pwm_init+0x4c>
    NRF_GPIO_Type * reg = nrf_gpio_pin_port_decode(&pin_number);
    6386:	f7ff ff0f 	bl	61a8 <nrf_gpio_pin_port_decode>
    nrf_gpio_port_out_set(reg, 1UL << pin_number);
    638a:	9901      	ldr	r1, [sp, #4]
    638c:	2201      	movs	r2, #1
    638e:	408a      	lsls	r2, r1
    p_reg->OUTSET = set_mask;
    6390:	f8c0 2508 	str.w	r2, [r0, #1288]	; 0x508
    6394:	e7d7      	b.n	6346 <nrfx_pwm_init+0x11a>
            out_pins[i] = NRF_PWM_PIN_NOT_CONNECTED;
    6396:	f04f 33ff 	mov.w	r3, #4294967295
    639a:	f8c8 3000 	str.w	r3, [r8]
    639e:	e7dd      	b.n	635c <nrfx_pwm_init+0x130>
        return err_code;
    63a0:	4807      	ldr	r0, [pc, #28]	; (63c0 <nrfx_pwm_init+0x194>)
    63a2:	e7b1      	b.n	6308 <nrfx_pwm_init+0xdc>
    63a4:	0000c24e 	.word	0x0000c24e
    63a8:	0000b2d3 	.word	0x0000b2d3
    63ac:	0000c213 	.word	0x0000c213
    63b0:	20000e40 	.word	0x20000e40
    63b4:	0000c257 	.word	0x0000c257
    63b8:	0000c146 	.word	0x0000c146
    63bc:	0bad0000 	.word	0x0bad0000
    63c0:	0bad0005 	.word	0x0bad0005

000063c4 <nrfx_pwm_simple_playback>:

uint32_t nrfx_pwm_simple_playback(nrfx_pwm_t const *         p_instance,
                                  nrf_pwm_sequence_t const * p_sequence,
                                  uint16_t                   playback_count,
                                  uint32_t                   flags)
{
    63c4:	e92d 41f0 	stmdb	sp!, {r4, r5, r6, r7, r8, lr}
    63c8:	4698      	mov	r8, r3
    pwm_control_block_t * p_cb  = &m_cb[p_instance->drv_inst_idx];
    63ca:	7903      	ldrb	r3, [r0, #4]
{
    63cc:	4614      	mov	r4, r2
    pwm_control_block_t * p_cb  = &m_cb[p_instance->drv_inst_idx];
    63ce:	4a31      	ldr	r2, [pc, #196]	; (6494 <nrfx_pwm_simple_playback+0xd0>)
{
    63d0:	460e      	mov	r6, r1
    pwm_control_block_t * p_cb  = &m_cb[p_instance->drv_inst_idx];
    63d2:	eb03 0143 	add.w	r1, r3, r3, lsl #1
    63d6:	eb02 0781 	add.w	r7, r2, r1, lsl #2
    NRFX_ASSERT(p_cb->state != NRFX_DRV_STATE_UNINITIALIZED);
    63da:	210c      	movs	r1, #12
    63dc:	fb01 2303 	mla	r3, r1, r3, r2
{
    63e0:	4605      	mov	r5, r0
    NRFX_ASSERT(p_cb->state != NRFX_DRV_STATE_UNINITIALIZED);
    63e2:	7a1b      	ldrb	r3, [r3, #8]
    63e4:	b95b      	cbnz	r3, 63fe <nrfx_pwm_simple_playback+0x3a>
    63e6:	492c      	ldr	r1, [pc, #176]	; (6498 <nrfx_pwm_simple_playback+0xd4>)
    63e8:	482c      	ldr	r0, [pc, #176]	; (649c <nrfx_pwm_simple_playback+0xd8>)
    63ea:	4a2d      	ldr	r2, [pc, #180]	; (64a0 <nrfx_pwm_simple_playback+0xdc>)
    63ec:	f44f 7396 	mov.w	r3, #300	; 0x12c
    63f0:	f003 fd25 	bl	9e3e <printk>
    63f4:	482a      	ldr	r0, [pc, #168]	; (64a0 <nrfx_pwm_simple_playback+0xdc>)
    63f6:	f44f 7196 	mov.w	r1, #300	; 0x12c
    63fa:	f003 fc1d 	bl	9c38 <assert_post_action>
    NRFX_ASSERT(playback_count > 0);
    63fe:	b95c      	cbnz	r4, 6418 <nrfx_pwm_simple_playback+0x54>
    6400:	4928      	ldr	r1, [pc, #160]	; (64a4 <nrfx_pwm_simple_playback+0xe0>)
    6402:	4826      	ldr	r0, [pc, #152]	; (649c <nrfx_pwm_simple_playback+0xd8>)
    6404:	4a26      	ldr	r2, [pc, #152]	; (64a0 <nrfx_pwm_simple_playback+0xdc>)
    6406:	f240 132d 	movw	r3, #301	; 0x12d
    640a:	f003 fd18 	bl	9e3e <printk>
    640e:	4824      	ldr	r0, [pc, #144]	; (64a0 <nrfx_pwm_simple_playback+0xdc>)
    6410:	f240 112d 	movw	r1, #301	; 0x12d
    6414:	f003 fc10 	bl	9c38 <assert_post_action>
    6418:	6833      	ldr	r3, [r6, #0]
    641a:	f003 4360 	and.w	r3, r3, #3758096384	; 0xe0000000
    NRFX_ASSERT(nrfx_is_in_ram(p_sequence->values.p_raw));
    641e:	f1b3 5f00 	cmp.w	r3, #536870912	; 0x20000000
    6422:	d00b      	beq.n	643c <nrfx_pwm_simple_playback+0x78>
    6424:	4920      	ldr	r1, [pc, #128]	; (64a8 <nrfx_pwm_simple_playback+0xe4>)
    6426:	481d      	ldr	r0, [pc, #116]	; (649c <nrfx_pwm_simple_playback+0xd8>)
    6428:	4a1d      	ldr	r2, [pc, #116]	; (64a0 <nrfx_pwm_simple_playback+0xdc>)
    642a:	f44f 7397 	mov.w	r3, #302	; 0x12e
    642e:	f003 fd06 	bl	9e3e <printk>
    6432:	481b      	ldr	r0, [pc, #108]	; (64a0 <nrfx_pwm_simple_playback+0xdc>)
    6434:	f44f 7197 	mov.w	r1, #302	; 0x12e
    6438:	f003 fbfe 	bl	9c38 <assert_post_action>

    // To take advantage of the looping mechanism, we need to use both sequences
    // (single sequence can be played back only once).
    nrf_pwm_sequence_set(p_instance->p_registers, 0, p_sequence);
    643c:	6828      	ldr	r0, [r5, #0]
    643e:	4632      	mov	r2, r6
    6440:	2100      	movs	r1, #0
    6442:	f7ff fe35 	bl	60b0 <nrf_pwm_sequence_set>
    nrf_pwm_sequence_set(p_instance->p_registers, 1, p_sequence);
    6446:	6828      	ldr	r0, [r5, #0]
    6448:	4632      	mov	r2, r6
    644a:	2101      	movs	r1, #1
    644c:	f7ff fe30 	bl	60b0 <nrf_pwm_sequence_set>
    bool odd = (playback_count & 1);
    nrf_pwm_loop_set(p_instance->p_registers,
    6450:	6828      	ldr	r0, [r5, #0]
    6452:	f004 0301 	and.w	r3, r4, #1
}

NRF_STATIC_INLINE void nrf_pwm_loop_set(NRF_PWM_Type * p_reg,
                                        uint16_t       loop_count)
{
    p_reg->LOOP = loop_count;
    6456:	eb03 0454 	add.w	r4, r3, r4, lsr #1
        (playback_count / 2) + (odd ? 1 : 0));

    uint32_t shorts_mask;
    if (flags & NRFX_PWM_FLAG_STOP)
    645a:	f018 0f01 	tst.w	r8, #1
    645e:	f8c0 4514 	str.w	r4, [r0, #1300]	; 0x514
    6462:	d114      	bne.n	648e <nrfx_pwm_simple_playback+0xca>
    {
        shorts_mask = NRF_PWM_SHORT_LOOPSDONE_STOP_MASK;
    }
    else if (flags & NRFX_PWM_FLAG_LOOP)
    6464:	f018 0202 	ands.w	r2, r8, #2
    6468:	d003      	beq.n	6472 <nrfx_pwm_simple_playback+0xae>
    {
        shorts_mask = odd ? NRF_PWM_SHORT_LOOPSDONE_SEQSTART1_MASK
                          : NRF_PWM_SHORT_LOOPSDONE_SEQSTART0_MASK;
    646a:	2b00      	cmp	r3, #0
    646c:	bf14      	ite	ne
    646e:	2208      	movne	r2, #8
    6470:	2204      	moveq	r2, #4
                  __func__,
                  p_sequence->length);
    NRFX_LOG_DEBUG("Sequence data:");
    NRFX_LOG_HEXDUMP_DEBUG((uint8_t *)p_sequence->values.p_raw,
                           p_sequence->length * sizeof(uint16_t));
    return start_playback(p_instance, p_cb, flags,
    6472:	2b00      	cmp	r3, #0
    p_reg->SHORTS = mask;
    6474:	f8c0 2200 	str.w	r2, [r0, #512]	; 0x200
    6478:	4639      	mov	r1, r7
    647a:	fa5f f288 	uxtb.w	r2, r8
    647e:	bf18      	it	ne
    6480:	230c      	movne	r3, #12
        odd ? NRF_PWM_TASK_SEQSTART1 : NRF_PWM_TASK_SEQSTART0);
}
    6482:	e8bd 41f0 	ldmia.w	sp!, {r4, r5, r6, r7, r8, lr}
    return start_playback(p_instance, p_cb, flags,
    6486:	bf08      	it	eq
    6488:	2308      	moveq	r3, #8
    648a:	f004 bb5b 	b.w	ab44 <start_playback.isra.0>
        shorts_mask = NRF_PWM_SHORT_LOOPSDONE_STOP_MASK;
    648e:	2210      	movs	r2, #16
    6490:	e7ef      	b.n	6472 <nrfx_pwm_simple_playback+0xae>
    6492:	bf00      	nop
    6494:	20000e40 	.word	0x20000e40
    6498:	0000c278 	.word	0x0000c278
    649c:	0000b2d3 	.word	0x0000b2d3
    64a0:	0000c213 	.word	0x0000c213
    64a4:	0000c2a4 	.word	0x0000c2a4
    64a8:	0000c2b7 	.word	0x0000c2b7

000064ac <nrfx_pwm_is_stopped>:
    return ret_val;
}


bool nrfx_pwm_is_stopped(nrfx_pwm_t const * p_instance)
{
    64ac:	b570      	push	{r4, r5, r6, lr}
    pwm_control_block_t * p_cb  = &m_cb[p_instance->drv_inst_idx];
    NRFX_ASSERT(p_cb->state != NRFX_DRV_STATE_UNINITIALIZED);
    64ae:	4e12      	ldr	r6, [pc, #72]	; (64f8 <nrfx_pwm_is_stopped+0x4c>)
    pwm_control_block_t * p_cb  = &m_cb[p_instance->drv_inst_idx];
    64b0:	7904      	ldrb	r4, [r0, #4]
    NRFX_ASSERT(p_cb->state != NRFX_DRV_STATE_UNINITIALIZED);
    64b2:	220c      	movs	r2, #12
    64b4:	fb02 6204 	mla	r2, r2, r4, r6
{
    64b8:	4605      	mov	r5, r0
    NRFX_ASSERT(p_cb->state != NRFX_DRV_STATE_UNINITIALIZED);
    64ba:	7a12      	ldrb	r2, [r2, #8]
    64bc:	b95a      	cbnz	r2, 64d6 <nrfx_pwm_is_stopped+0x2a>
    64be:	490f      	ldr	r1, [pc, #60]	; (64fc <nrfx_pwm_is_stopped+0x50>)
    64c0:	480f      	ldr	r0, [pc, #60]	; (6500 <nrfx_pwm_is_stopped+0x54>)
    64c2:	4a10      	ldr	r2, [pc, #64]	; (6504 <nrfx_pwm_is_stopped+0x58>)
    64c4:	f44f 73d5 	mov.w	r3, #426	; 0x1aa
    64c8:	f003 fcb9 	bl	9e3e <printk>
    64cc:	480d      	ldr	r0, [pc, #52]	; (6504 <nrfx_pwm_is_stopped+0x58>)
    64ce:	f44f 71d5 	mov.w	r1, #426	; 0x1aa
    64d2:	f003 fbb1 	bl	9c38 <assert_post_action>

    bool ret_val = false;

    // If the event handler is used (interrupts are enabled), the state will
    // be changed in interrupt handler when the STOPPED event occurs.
    if (p_cb->state != NRFX_DRV_STATE_POWERED_ON)
    64d6:	230c      	movs	r3, #12
    {
        ret_val = true;
    }
    // If interrupts are disabled, we must check the STOPPED event here.
    if (nrf_pwm_event_check(p_instance->p_registers, NRF_PWM_EVENT_STOPPED))
    64d8:	682a      	ldr	r2, [r5, #0]
    if (p_cb->state != NRFX_DRV_STATE_POWERED_ON)
    64da:	fb03 6404 	mla	r4, r3, r4, r6
    64de:	7a23      	ldrb	r3, [r4, #8]
    return (bool)*(volatile uint32_t *)((uint8_t *)p_reg + (uint32_t)event);
    64e0:	f8d2 2104 	ldr.w	r2, [r2, #260]	; 0x104
    64e4:	b2db      	uxtb	r3, r3
    if (nrf_pwm_event_check(p_instance->p_registers, NRF_PWM_EVENT_STOPPED))
    64e6:	b91a      	cbnz	r2, 64f0 <nrfx_pwm_is_stopped+0x44>
    if (p_cb->state != NRFX_DRV_STATE_POWERED_ON)
    64e8:	1e98      	subs	r0, r3, #2
    64ea:	bf18      	it	ne
    64ec:	2001      	movne	r0, #1
        ret_val = true;
    }

    NRFX_LOG_INFO("%s returned %d.", __func__, ret_val);
    return ret_val;
}
    64ee:	bd70      	pop	{r4, r5, r6, pc}
        p_cb->state = NRFX_DRV_STATE_INITIALIZED;
    64f0:	2001      	movs	r0, #1
    64f2:	7220      	strb	r0, [r4, #8]
        ret_val = true;
    64f4:	e7fb      	b.n	64ee <nrfx_pwm_is_stopped+0x42>
    64f6:	bf00      	nop
    64f8:	20000e40 	.word	0x20000e40
    64fc:	0000c278 	.word	0x0000c278
    6500:	0000b2d3 	.word	0x0000b2d3
    6504:	0000c213 	.word	0x0000c213

00006508 <nrfx_pwm_stop>:
{
    6508:	b538      	push	{r3, r4, r5, lr}
    NRFX_ASSERT(m_cb[p_instance->drv_inst_idx].state != NRFX_DRV_STATE_UNINITIALIZED);
    650a:	4a14      	ldr	r2, [pc, #80]	; (655c <nrfx_pwm_stop+0x54>)
    650c:	7903      	ldrb	r3, [r0, #4]
{
    650e:	460d      	mov	r5, r1
    NRFX_ASSERT(m_cb[p_instance->drv_inst_idx].state != NRFX_DRV_STATE_UNINITIALIZED);
    6510:	210c      	movs	r1, #12
    6512:	fb01 2303 	mla	r3, r1, r3, r2
{
    6516:	4604      	mov	r4, r0
    NRFX_ASSERT(m_cb[p_instance->drv_inst_idx].state != NRFX_DRV_STATE_UNINITIALIZED);
    6518:	7a1b      	ldrb	r3, [r3, #8]
    651a:	b95b      	cbnz	r3, 6534 <nrfx_pwm_stop+0x2c>
    651c:	4910      	ldr	r1, [pc, #64]	; (6560 <nrfx_pwm_stop+0x58>)
    651e:	4811      	ldr	r0, [pc, #68]	; (6564 <nrfx_pwm_stop+0x5c>)
    6520:	4a11      	ldr	r2, [pc, #68]	; (6568 <nrfx_pwm_stop+0x60>)
    6522:	f240 1385 	movw	r3, #389	; 0x185
    6526:	f003 fc8a 	bl	9e3e <printk>
    652a:	480f      	ldr	r0, [pc, #60]	; (6568 <nrfx_pwm_stop+0x60>)
    652c:	f240 1185 	movw	r1, #389	; 0x185
    6530:	f003 fb82 	bl	9c38 <assert_post_action>
    nrf_pwm_shorts_set(p_instance->p_registers, 0);
    6534:	6823      	ldr	r3, [r4, #0]
    p_reg->SHORTS = mask;
    6536:	2200      	movs	r2, #0
    6538:	f8c3 2200 	str.w	r2, [r3, #512]	; 0x200
    *((volatile uint32_t *)((uint8_t *)p_reg + (uint32_t)task)) = 0x1UL;
    653c:	2201      	movs	r2, #1
    653e:	605a      	str	r2, [r3, #4]
    if (nrfx_pwm_is_stopped(p_instance))
    6540:	4620      	mov	r0, r4
    6542:	f7ff ffb3 	bl	64ac <nrfx_pwm_is_stopped>
    6546:	b938      	cbnz	r0, 6558 <nrfx_pwm_stop+0x50>
            if (nrfx_pwm_is_stopped(p_instance))
    6548:	4620      	mov	r0, r4
    654a:	f7ff ffaf 	bl	64ac <nrfx_pwm_is_stopped>
    654e:	b918      	cbnz	r0, 6558 <nrfx_pwm_stop+0x50>
        } while (wait_until_stopped);
    6550:	2d00      	cmp	r5, #0
    6552:	d1f9      	bne.n	6548 <nrfx_pwm_stop+0x40>
}
    6554:	4628      	mov	r0, r5
    6556:	bd38      	pop	{r3, r4, r5, pc}
        ret_val = true;
    6558:	2501      	movs	r5, #1
    655a:	e7fb      	b.n	6554 <nrfx_pwm_stop+0x4c>
    655c:	20000e40 	.word	0x20000e40
    6560:	0000c2e0 	.word	0x0000c2e0
    6564:	0000b2d3 	.word	0x0000b2d3
    6568:	0000c213 	.word	0x0000c213

0000656c <nrf52_errata_136>:
            uint32_t var1 = *(uint32_t *)0x10000130ul;
    656c:	4b03      	ldr	r3, [pc, #12]	; (657c <nrf52_errata_136+0x10>)
            if (var1 == 0x08)
    656e:	6818      	ldr	r0, [r3, #0]
}
    6570:	f1a0 0308 	sub.w	r3, r0, #8
    6574:	4258      	negs	r0, r3
    6576:	4158      	adcs	r0, r3
    6578:	4770      	bx	lr
    657a:	bf00      	nop
    657c:	10000130 	.word	0x10000130

00006580 <nrf52_errata_103>:
            uint32_t var1 = *(uint32_t *)0x10000130ul;
    6580:	4b06      	ldr	r3, [pc, #24]	; (659c <nrf52_errata_103+0x1c>)
            if (var1 == 0x08)
    6582:	681b      	ldr	r3, [r3, #0]
    6584:	2b08      	cmp	r3, #8
    6586:	d106      	bne.n	6596 <nrf52_errata_103+0x16>
            uint32_t var2 = *(uint32_t *)0x10000134ul;
    6588:	4b05      	ldr	r3, [pc, #20]	; (65a0 <nrf52_errata_103+0x20>)
    658a:	681b      	ldr	r3, [r3, #0]
                switch(var2)
    658c:	2b05      	cmp	r3, #5
    658e:	d802      	bhi.n	6596 <nrf52_errata_103+0x16>
    6590:	4a04      	ldr	r2, [pc, #16]	; (65a4 <nrf52_errata_103+0x24>)
    6592:	5cd0      	ldrb	r0, [r2, r3]
    6594:	4770      	bx	lr
        return false;
    6596:	2000      	movs	r0, #0
}
    6598:	4770      	bx	lr
    659a:	bf00      	nop
    659c:	10000130 	.word	0x10000130
    65a0:	10000134 	.word	0x10000134
    65a4:	0000c32b 	.word	0x0000c32b

000065a8 <nvmc_wait>:

/* -- NVMC utility functions -- */
/* Waits until NVMC is done with the current pending action */
void nvmc_wait(void)
{
    while (NRF_NVMC->READY == NVMC_READY_READY_Busy){}
    65a8:	4a02      	ldr	r2, [pc, #8]	; (65b4 <nvmc_wait+0xc>)
    65aa:	f8d2 3400 	ldr.w	r3, [r2, #1024]	; 0x400
    65ae:	2b00      	cmp	r3, #0
    65b0:	d0fb      	beq.n	65aa <nvmc_wait+0x2>
}
    65b2:	4770      	bx	lr
    65b4:	4001e000 	.word	0x4001e000

000065b8 <SystemInit>:
{
    SystemCoreClock = __SYSTEM_CLOCK_64M;
}

void SystemInit(void)
{
    65b8:	b510      	push	{r4, lr}
    #endif

    #if NRF52_ERRATA_36_ENABLE_WORKAROUND
        /* Workaround for Errata 36 "CLOCK: Some registers are not reset when expected" found at the Errata document
           for your device located at https://infocenter.nordicsemi.com/index.jsp  */
        if (nrf52_errata_36()){
    65ba:	f7ff ffd7 	bl	656c <nrf52_errata_136>
    65be:	b140      	cbz	r0, 65d2 <SystemInit+0x1a>
            NRF_CLOCK->EVENTS_DONE = 0;
    65c0:	f04f 4380 	mov.w	r3, #1073741824	; 0x40000000
    65c4:	2200      	movs	r2, #0
    65c6:	f8c3 210c 	str.w	r2, [r3, #268]	; 0x10c
            NRF_CLOCK->EVENTS_CTTO = 0;
    65ca:	f8c3 2110 	str.w	r2, [r3, #272]	; 0x110
            NRF_CLOCK->CTIV = 0;
    65ce:	f8c3 2538 	str.w	r2, [r3, #1336]	; 0x538
    #endif

    #if NRF52_ERRATA_66_ENABLE_WORKAROUND
        /* Workaround for Errata 66 "TEMP: Linearity specification not met with default settings" found at the Errata document
           for your device located at https://infocenter.nordicsemi.com/index.jsp  */
        if (nrf52_errata_66()){
    65d2:	f7ff ffcb 	bl	656c <nrf52_errata_136>
    65d6:	2800      	cmp	r0, #0
    65d8:	d046      	beq.n	6668 <SystemInit+0xb0>
            NRF_TEMP->A0 = NRF_FICR->TEMP.A0;
    65da:	f04f 5280 	mov.w	r2, #268435456	; 0x10000000
    65de:	4b5b      	ldr	r3, [pc, #364]	; (674c <SystemInit+0x194>)
    65e0:	f8d2 1404 	ldr.w	r1, [r2, #1028]	; 0x404
    65e4:	f8c3 1520 	str.w	r1, [r3, #1312]	; 0x520
            NRF_TEMP->A1 = NRF_FICR->TEMP.A1;
    65e8:	f8d2 1408 	ldr.w	r1, [r2, #1032]	; 0x408
    65ec:	f8c3 1524 	str.w	r1, [r3, #1316]	; 0x524
            NRF_TEMP->A2 = NRF_FICR->TEMP.A2;
    65f0:	f8d2 140c 	ldr.w	r1, [r2, #1036]	; 0x40c
    65f4:	f8c3 1528 	str.w	r1, [r3, #1320]	; 0x528
            NRF_TEMP->A3 = NRF_FICR->TEMP.A3;
    65f8:	f8d2 1410 	ldr.w	r1, [r2, #1040]	; 0x410
    65fc:	f8c3 152c 	str.w	r1, [r3, #1324]	; 0x52c
            NRF_TEMP->A4 = NRF_FICR->TEMP.A4;
    6600:	f8d2 1414 	ldr.w	r1, [r2, #1044]	; 0x414
    6604:	f8c3 1530 	str.w	r1, [r3, #1328]	; 0x530
            NRF_TEMP->A5 = NRF_FICR->TEMP.A5;
    6608:	f8d2 1418 	ldr.w	r1, [r2, #1048]	; 0x418
    660c:	f8c3 1534 	str.w	r1, [r3, #1332]	; 0x534
            NRF_TEMP->B0 = NRF_FICR->TEMP.B0;
    6610:	f8d2 141c 	ldr.w	r1, [r2, #1052]	; 0x41c
    6614:	f8c3 1540 	str.w	r1, [r3, #1344]	; 0x540
            NRF_TEMP->B1 = NRF_FICR->TEMP.B1;
    6618:	f8d2 1420 	ldr.w	r1, [r2, #1056]	; 0x420
    661c:	f8c3 1544 	str.w	r1, [r3, #1348]	; 0x544
            NRF_TEMP->B2 = NRF_FICR->TEMP.B2;
    6620:	f8d2 1424 	ldr.w	r1, [r2, #1060]	; 0x424
    6624:	f8c3 1548 	str.w	r1, [r3, #1352]	; 0x548
            NRF_TEMP->B3 = NRF_FICR->TEMP.B3;
    6628:	f8d2 1428 	ldr.w	r1, [r2, #1064]	; 0x428
    662c:	f8c3 154c 	str.w	r1, [r3, #1356]	; 0x54c
            NRF_TEMP->B4 = NRF_FICR->TEMP.B4;
    6630:	f8d2 142c 	ldr.w	r1, [r2, #1068]	; 0x42c
    6634:	f8c3 1550 	str.w	r1, [r3, #1360]	; 0x550
            NRF_TEMP->B5 = NRF_FICR->TEMP.B5;
    6638:	f8d2 1430 	ldr.w	r1, [r2, #1072]	; 0x430
    663c:	f8c3 1554 	str.w	r1, [r3, #1364]	; 0x554
            NRF_TEMP->T0 = NRF_FICR->TEMP.T0;
    6640:	f8d2 1434 	ldr.w	r1, [r2, #1076]	; 0x434
    6644:	f8c3 1560 	str.w	r1, [r3, #1376]	; 0x560
            NRF_TEMP->T1 = NRF_FICR->TEMP.T1;
    6648:	f8d2 1438 	ldr.w	r1, [r2, #1080]	; 0x438
    664c:	f8c3 1564 	str.w	r1, [r3, #1380]	; 0x564
            NRF_TEMP->T2 = NRF_FICR->TEMP.T2;
    6650:	f8d2 143c 	ldr.w	r1, [r2, #1084]	; 0x43c
    6654:	f8c3 1568 	str.w	r1, [r3, #1384]	; 0x568
            NRF_TEMP->T3 = NRF_FICR->TEMP.T3;
    6658:	f8d2 1440 	ldr.w	r1, [r2, #1088]	; 0x440
    665c:	f8c3 156c 	str.w	r1, [r3, #1388]	; 0x56c
            NRF_TEMP->T4 = NRF_FICR->TEMP.T4;
    6660:	f8d2 2444 	ldr.w	r2, [r2, #1092]	; 0x444
    6664:	f8c3 2570 	str.w	r2, [r3, #1392]	; 0x570
    #endif

    #if NRF52_ERRATA_98_ENABLE_WORKAROUND
        /* Workaround for Errata 98 "NFCT: Not able to communicate with the peer" found at the Errata document
           for your device located at https://infocenter.nordicsemi.com/index.jsp  */
        if (nrf52_errata_98()){
    6668:	f7ff ff8a 	bl	6580 <nrf52_errata_103>
    666c:	b110      	cbz	r0, 6674 <SystemInit+0xbc>
            *(volatile uint32_t *)0x4000568Cul = 0x00038148ul;
    666e:	4b38      	ldr	r3, [pc, #224]	; (6750 <SystemInit+0x198>)
    6670:	4a38      	ldr	r2, [pc, #224]	; (6754 <SystemInit+0x19c>)
    6672:	601a      	str	r2, [r3, #0]
    #endif

    #if NRF52_ERRATA_103_ENABLE_WORKAROUND && defined(CCM_MAXPACKETSIZE_MAXPACKETSIZE_Pos)
        /* Workaround for Errata 103 "CCM: Wrong reset value of CCM MAXPACKETSIZE" found at the Errata document
           for your device located at https://infocenter.nordicsemi.com/index.jsp  */
        if (nrf52_errata_103()){
    6674:	f7ff ff84 	bl	6580 <nrf52_errata_103>
    6678:	b118      	cbz	r0, 6682 <SystemInit+0xca>
            NRF_CCM->MAXPACKETSIZE = 0xFBul;
    667a:	4b37      	ldr	r3, [pc, #220]	; (6758 <SystemInit+0x1a0>)
    667c:	22fb      	movs	r2, #251	; 0xfb
    667e:	f8c3 2518 	str.w	r2, [r3, #1304]	; 0x518
    #endif

    #if NRF52_ERRATA_115_ENABLE_WORKAROUND
        /* Workaround for Errata 115 "RAM: RAM content cannot be trusted upon waking up from System ON Idle or System OFF mode" found at the Errata document
           for your device located at https://infocenter.nordicsemi.com/index.jsp  */
        if (nrf52_errata_115()){
    6682:	f7ff ff7d 	bl	6580 <nrf52_errata_103>
    6686:	b148      	cbz	r0, 669c <SystemInit+0xe4>
            *(volatile uint32_t *)0x40000EE4 = (*(volatile uint32_t *)0x40000EE4 & 0xFFFFFFF0) | (*(uint32_t *)0x10000258 & 0x0000000F);
    6688:	4934      	ldr	r1, [pc, #208]	; (675c <SystemInit+0x1a4>)
    668a:	4b35      	ldr	r3, [pc, #212]	; (6760 <SystemInit+0x1a8>)
    668c:	680a      	ldr	r2, [r1, #0]
    668e:	681b      	ldr	r3, [r3, #0]
    6690:	f022 020f 	bic.w	r2, r2, #15
    6694:	f003 030f 	and.w	r3, r3, #15
    6698:	4313      	orrs	r3, r2
    669a:	600b      	str	r3, [r1, #0]
    #endif

    #if NRF52_ERRATA_120_ENABLE_WORKAROUND
        /* Workaround for Errata 120 "QSPI: Data read or written is corrupted" found at the Errata document
           for your device located at https://infocenter.nordicsemi.com/index.jsp  */
        if (nrf52_errata_120()){
    669c:	f7ff ff70 	bl	6580 <nrf52_errata_103>
    66a0:	b118      	cbz	r0, 66aa <SystemInit+0xf2>
            *(volatile uint32_t *)0x40029640ul = 0x200ul;
    66a2:	4b30      	ldr	r3, [pc, #192]	; (6764 <SystemInit+0x1ac>)
    66a4:	f44f 7200 	mov.w	r2, #512	; 0x200
    66a8:	601a      	str	r2, [r3, #0]
    #endif

    #if NRF52_ERRATA_136_ENABLE_WORKAROUND
        /* Workaround for Errata 136 "System: Bits in RESETREAS are set when they should not be" found at the Errata document
           for your device located at https://infocenter.nordicsemi.com/index.jsp  */
        if (nrf52_errata_136()){
    66aa:	f7ff ff5f 	bl	656c <nrf52_errata_136>
    66ae:	b148      	cbz	r0, 66c4 <SystemInit+0x10c>
            if (NRF_POWER->RESETREAS & POWER_RESETREAS_RESETPIN_Msk){
    66b0:	f04f 4380 	mov.w	r3, #1073741824	; 0x40000000
    66b4:	f8d3 2400 	ldr.w	r2, [r3, #1024]	; 0x400
    66b8:	07d2      	lsls	r2, r2, #31
                NRF_POWER->RESETREAS =  ~POWER_RESETREAS_RESETPIN_Msk;
    66ba:	bf44      	itt	mi
    66bc:	f06f 0201 	mvnmi.w	r2, #1
    66c0:	f8c3 2400 	strmi.w	r2, [r3, #1024]	; 0x400
         || defined (NRF52820_XXAA) || defined (DEVELOP_IN_NRF52820)\
         || defined (NRF52832_XXAA) || defined (DEVELOP_IN_NRF52832)\
         || defined (NRF52832_XXAB) || defined (DEVELOP_IN_NRF52832)\
         || defined (NRF52833_XXAA) || defined (DEVELOP_IN_NRF52833)\
         || defined (NRF52840_XXAA) || defined (DEVELOP_IN_NRF52840)
            uint32_t var1 = *(uint32_t *)0x10000130ul;
    66c4:	4b28      	ldr	r3, [pc, #160]	; (6768 <SystemInit+0x1b0>)
                        return true;
                }
            }
        #endif
        #if defined (NRF52840_XXAA) || defined (DEVELOP_IN_NRF52840)
            if (var1 == 0x08)
    66c6:	681b      	ldr	r3, [r3, #0]
    66c8:	2b08      	cmp	r3, #8
    66ca:	d10e      	bne.n	66ea <SystemInit+0x132>
            uint32_t var2 = *(uint32_t *)0x10000134ul;
    66cc:	4b27      	ldr	r3, [pc, #156]	; (676c <SystemInit+0x1b4>)
    66ce:	681b      	ldr	r3, [r3, #0]
            {
                switch(var2)
    66d0:	2b05      	cmp	r3, #5
    66d2:	d802      	bhi.n	66da <SystemInit+0x122>
            {
                /* Prevent processor from unlocking APPROTECT soft branch after this point. */
                NRF_APPROTECT->FORCEPROTECT = APPROTECT_FORCEPROTECT_FORCEPROTECT_Force;
            }
        #else
            if (nrf52_configuration_249())
    66d4:	4a26      	ldr	r2, [pc, #152]	; (6770 <SystemInit+0x1b8>)
    66d6:	5cd3      	ldrb	r3, [r2, r3]
    66d8:	b13b      	cbz	r3, 66ea <SystemInit+0x132>
            {
                /* Load APPROTECT soft branch from UICR.
                   If UICR->APPROTECT is disabled, POWER->APPROTECT will be disabled. */
                NRF_APPROTECT->DISABLE = NRF_UICR->APPROTECT;
    66da:	f04f 2310 	mov.w	r3, #268439552	; 0x10001000
    66de:	f8d3 2208 	ldr.w	r2, [r3, #520]	; 0x208
    66e2:	f04f 4380 	mov.w	r3, #1073741824	; 0x40000000
    66e6:	f8c3 2558 	str.w	r2, [r3, #1368]	; 0x558

    /* Configure GPIO pads as pPin Reset pin if Pin Reset capabilities desired. If CONFIG_GPIO_AS_PINRESET is not
      defined, pin reset will not be available. One GPIO (see Product Specification to see which one) will then be
      reserved for PinReset and not available as normal GPIO. */
    #if defined (CONFIG_GPIO_AS_PINRESET)
        if (((NRF_UICR->PSELRESET[0] & UICR_PSELRESET_CONNECT_Msk) != (UICR_PSELRESET_CONNECT_Connected << UICR_PSELRESET_CONNECT_Pos)) ||
    66ea:	f04f 2310 	mov.w	r3, #268439552	; 0x10001000
    66ee:	f8d3 2200 	ldr.w	r2, [r3, #512]	; 0x200
    66f2:	2a00      	cmp	r2, #0
    66f4:	db03      	blt.n	66fe <SystemInit+0x146>
            ((NRF_UICR->PSELRESET[1] & UICR_PSELRESET_CONNECT_Msk) != (UICR_PSELRESET_CONNECT_Connected << UICR_PSELRESET_CONNECT_Pos))){
    66f6:	f8d3 3204 	ldr.w	r3, [r3, #516]	; 0x204
        if (((NRF_UICR->PSELRESET[0] & UICR_PSELRESET_CONNECT_Msk) != (UICR_PSELRESET_CONNECT_Connected << UICR_PSELRESET_CONNECT_Pos)) ||
    66fa:	2b00      	cmp	r3, #0
    66fc:	da22      	bge.n	6744 <SystemInit+0x18c>
    NRF_NVMC->CONFIG = mode << NVMC_CONFIG_WEN_Pos;
    66fe:	491d      	ldr	r1, [pc, #116]	; (6774 <SystemInit+0x1bc>)
    6700:	2301      	movs	r3, #1
    6702:	f8c1 3504 	str.w	r3, [r1, #1284]	; 0x504
    nvmc_wait();
    6706:	f7ff ff4f 	bl	65a8 <nvmc_wait>
            nvmc_config(NVMC_CONFIG_WEN_Wen);
            NRF_UICR->PSELRESET[0] = RESET_PIN;
    670a:	f04f 2010 	mov.w	r0, #268439552	; 0x10001000
    670e:	2412      	movs	r4, #18
    6710:	f8c0 4200 	str.w	r4, [r0, #512]	; 0x200
            nvmc_wait();
    6714:	f7ff ff48 	bl	65a8 <nvmc_wait>
            NRF_UICR->PSELRESET[1] = RESET_PIN;
    6718:	f8c0 4204 	str.w	r4, [r0, #516]	; 0x204
            nvmc_wait();
    671c:	f7ff ff44 	bl	65a8 <nvmc_wait>
    NRF_NVMC->CONFIG = mode << NVMC_CONFIG_WEN_Pos;
    6720:	2300      	movs	r3, #0
    6722:	f8c1 3504 	str.w	r3, [r1, #1284]	; 0x504
    nvmc_wait();
    6726:	f7ff ff3f 	bl	65a8 <nvmc_wait>
  __ASM volatile ("dsb 0xF":::"memory");
    672a:	f3bf 8f4f 	dsb	sy
                           (SCB->AIRCR & SCB_AIRCR_PRIGROUP_Msk) |
    672e:	4912      	ldr	r1, [pc, #72]	; (6778 <SystemInit+0x1c0>)
    6730:	4b12      	ldr	r3, [pc, #72]	; (677c <SystemInit+0x1c4>)
    6732:	68ca      	ldr	r2, [r1, #12]
    6734:	f402 62e0 	and.w	r2, r2, #1792	; 0x700
    6738:	4313      	orrs	r3, r2
  SCB->AIRCR  = (uint32_t)((0x5FAUL << SCB_AIRCR_VECTKEY_Pos)    |
    673a:	60cb      	str	r3, [r1, #12]
    673c:	f3bf 8f4f 	dsb	sy
    __NOP();
    6740:	bf00      	nop
  for(;;)                                                           /* wait until reset */
    6742:	e7fd      	b.n	6740 <SystemInit+0x188>
    SystemCoreClock = __SYSTEM_CLOCK_64M;
    6744:	4b0e      	ldr	r3, [pc, #56]	; (6780 <SystemInit+0x1c8>)
    6746:	4a0f      	ldr	r2, [pc, #60]	; (6784 <SystemInit+0x1cc>)
    6748:	601a      	str	r2, [r3, #0]
            NVIC_SystemReset();
        }
    #endif

    SystemCoreClockUpdate();
}
    674a:	bd10      	pop	{r4, pc}
    674c:	4000c000 	.word	0x4000c000
    6750:	4000568c 	.word	0x4000568c
    6754:	00038148 	.word	0x00038148
    6758:	4000f000 	.word	0x4000f000
    675c:	40000ee4 	.word	0x40000ee4
    6760:	10000258 	.word	0x10000258
    6764:	40029640 	.word	0x40029640
    6768:	10000130 	.word	0x10000130
    676c:	10000134 	.word	0x10000134
    6770:	0000c325 	.word	0x0000c325
    6774:	4001e000 	.word	0x4001e000
    6778:	e000ed00 	.word	0xe000ed00
    677c:	05fa0004 	.word	0x05fa0004
    6780:	200001c4 	.word	0x200001c4
    6784:	03d09000 	.word	0x03d09000

00006788 <z_sys_init_run_level>:
		/* End marker */
		__init_end,
	};
	const struct init_entry *entry;

	for (entry = levels[level]; entry < levels[level+1]; entry++) {
    6788:	4b0e      	ldr	r3, [pc, #56]	; (67c4 <z_sys_init_run_level+0x3c>)
{
    678a:	b570      	push	{r4, r5, r6, lr}
	for (entry = levels[level]; entry < levels[level+1]; entry++) {
    678c:	f853 4020 	ldr.w	r4, [r3, r0, lsl #2]
    6790:	3001      	adds	r0, #1
    6792:	f853 6020 	ldr.w	r6, [r3, r0, lsl #2]
    6796:	42a6      	cmp	r6, r4
    6798:	d800      	bhi.n	679c <z_sys_init_run_level+0x14>
				dev->state->init_res = rc;
			}
			dev->state->initialized = true;
		}
	}
}
    679a:	bd70      	pop	{r4, r5, r6, pc}
		int rc = entry->init(dev);
    679c:	e9d4 3500 	ldrd	r3, r5, [r4]
    67a0:	4628      	mov	r0, r5
    67a2:	4798      	blx	r3
		if (dev != NULL) {
    67a4:	b165      	cbz	r5, 67c0 <z_sys_init_run_level+0x38>
			if (rc != 0) {
    67a6:	68eb      	ldr	r3, [r5, #12]
    67a8:	b130      	cbz	r0, 67b8 <z_sys_init_run_level+0x30>
				if (rc < 0) {
    67aa:	2800      	cmp	r0, #0
    67ac:	bfb8      	it	lt
    67ae:	4240      	neglt	r0, r0
				dev->state->init_res = rc;
    67b0:	28ff      	cmp	r0, #255	; 0xff
    67b2:	bfa8      	it	ge
    67b4:	20ff      	movge	r0, #255	; 0xff
    67b6:	7018      	strb	r0, [r3, #0]
			dev->state->initialized = true;
    67b8:	785a      	ldrb	r2, [r3, #1]
    67ba:	f042 0201 	orr.w	r2, r2, #1
    67be:	705a      	strb	r2, [r3, #1]
	for (entry = levels[level]; entry < levels[level+1]; entry++) {
    67c0:	3408      	adds	r4, #8
    67c2:	e7e8      	b.n	6796 <z_sys_init_run_level+0xe>
    67c4:	0000b1bc 	.word	0x0000b1bc

000067c8 <z_impl_device_get_binding>:

const struct device *z_impl_device_get_binding(const char *name)
{
    67c8:	b570      	push	{r4, r5, r6, lr}
	const struct device *dev;

	/* A null string identifies no device.  So does an empty
	 * string.
	 */
	if ((name == NULL) || (name[0] == '\0')) {
    67ca:	4605      	mov	r5, r0
    67cc:	b910      	cbnz	r0, 67d4 <z_impl_device_get_binding+0xc>
		return NULL;
    67ce:	2400      	movs	r4, #0
			return dev;
		}
	}

	return NULL;
}
    67d0:	4620      	mov	r0, r4
    67d2:	bd70      	pop	{r4, r5, r6, pc}
	if ((name == NULL) || (name[0] == '\0')) {
    67d4:	7803      	ldrb	r3, [r0, #0]
    67d6:	2b00      	cmp	r3, #0
    67d8:	d0f9      	beq.n	67ce <z_impl_device_get_binding+0x6>
	for (dev = __device_start; dev != __device_end; dev++) {
    67da:	4a0f      	ldr	r2, [pc, #60]	; (6818 <z_impl_device_get_binding+0x50>)
    67dc:	4c0f      	ldr	r4, [pc, #60]	; (681c <z_impl_device_get_binding+0x54>)
    67de:	4616      	mov	r6, r2
    67e0:	4294      	cmp	r4, r2
    67e2:	d108      	bne.n	67f6 <z_impl_device_get_binding+0x2e>
	for (dev = __device_start; dev != __device_end; dev++) {
    67e4:	4c0d      	ldr	r4, [pc, #52]	; (681c <z_impl_device_get_binding+0x54>)
    67e6:	42b4      	cmp	r4, r6
    67e8:	d0f1      	beq.n	67ce <z_impl_device_get_binding+0x6>
		if (z_device_ready(dev) && (strcmp(name, dev->name) == 0)) {
    67ea:	4620      	mov	r0, r4
    67ec:	f004 f9ce 	bl	ab8c <z_device_ready>
    67f0:	b950      	cbnz	r0, 6808 <z_impl_device_get_binding+0x40>
	for (dev = __device_start; dev != __device_end; dev++) {
    67f2:	3418      	adds	r4, #24
    67f4:	e7f7      	b.n	67e6 <z_impl_device_get_binding+0x1e>
		if (z_device_ready(dev) && (dev->name == name)) {
    67f6:	4620      	mov	r0, r4
    67f8:	f004 f9c8 	bl	ab8c <z_device_ready>
    67fc:	b110      	cbz	r0, 6804 <z_impl_device_get_binding+0x3c>
    67fe:	6823      	ldr	r3, [r4, #0]
    6800:	42ab      	cmp	r3, r5
    6802:	d0e5      	beq.n	67d0 <z_impl_device_get_binding+0x8>
	for (dev = __device_start; dev != __device_end; dev++) {
    6804:	3418      	adds	r4, #24
    6806:	e7eb      	b.n	67e0 <z_impl_device_get_binding+0x18>
		if (z_device_ready(dev) && (strcmp(name, dev->name) == 0)) {
    6808:	6821      	ldr	r1, [r4, #0]
    680a:	4628      	mov	r0, r5
    680c:	f003 fcf4 	bl	a1f8 <strcmp>
    6810:	2800      	cmp	r0, #0
    6812:	d1ee      	bne.n	67f2 <z_impl_device_get_binding+0x2a>
    6814:	e7dc      	b.n	67d0 <z_impl_device_get_binding+0x8>
    6816:	bf00      	nop
    6818:	0000ae38 	.word	0x0000ae38
    681c:	0000ad90 	.word	0x0000ad90

00006820 <z_impl_z_errno>:
#include <syscalls/z_errno_mrsh.c>

#else
int *z_impl_z_errno(void)
{
	return &_current->errno_var;
    6820:	4b01      	ldr	r3, [pc, #4]	; (6828 <z_impl_z_errno+0x8>)
    6822:	6898      	ldr	r0, [r3, #8]
}
    6824:	3064      	adds	r0, #100	; 0x64
    6826:	4770      	bx	lr
    6828:	20000e4c 	.word	0x20000e4c

0000682c <z_fatal_error>:
	return 0;
#endif
}

void z_fatal_error(unsigned int reason, const z_arch_esf_t *esf)
{
    682c:	b5f8      	push	{r3, r4, r5, r6, r7, lr}
    682e:	4604      	mov	r4, r0
    6830:	460e      	mov	r6, r1
	__asm__ volatile(
    6832:	f04f 0320 	mov.w	r3, #32
    6836:	f3ef 8711 	mrs	r7, BASEPRI
    683a:	f383 8812 	msr	BASEPRI_MAX, r3
    683e:	f3bf 8f6f 	isb	sy
	return z_impl_z_current_get();
    6842:	f001 fdb3 	bl	83ac <z_impl_z_current_get>
	LOG_ERR("Current thread: %p (%s)", thread,
		log_strdup(thread_name_get(thread)));

	coredump(reason, esf, thread);

	k_sys_fatal_error_handler(reason, esf);
    6846:	4631      	mov	r1, r6
    6848:	4605      	mov	r5, r0
    684a:	4620      	mov	r0, r4
    684c:	f004 f8f9 	bl	aa42 <k_sys_fatal_error_handler>
	 *
	 * Note that k_thread_abort() returns on some architectures but
	 * not others; e.g. on ARC, x86_64, Xtensa with ASM2, ARM
	 */
	if (!IS_ENABLED(CONFIG_TEST)) {
		__ASSERT(reason != K_ERR_KERNEL_PANIC,
    6850:	2c04      	cmp	r4, #4
    6852:	d10c      	bne.n	686e <z_fatal_error+0x42>
    6854:	490a      	ldr	r1, [pc, #40]	; (6880 <z_fatal_error+0x54>)
    6856:	4a0b      	ldr	r2, [pc, #44]	; (6884 <z_fatal_error+0x58>)
    6858:	480b      	ldr	r0, [pc, #44]	; (6888 <z_fatal_error+0x5c>)
    685a:	238f      	movs	r3, #143	; 0x8f
    685c:	f003 faef 	bl	9e3e <printk>
    6860:	480a      	ldr	r0, [pc, #40]	; (688c <z_fatal_error+0x60>)
    6862:	f003 faec 	bl	9e3e <printk>
    6866:	4807      	ldr	r0, [pc, #28]	; (6884 <z_fatal_error+0x58>)
    6868:	218f      	movs	r1, #143	; 0x8f
    686a:	f003 f9e5 	bl	9c38 <assert_post_action>
	__asm__ volatile(
    686e:	f387 8811 	msr	BASEPRI, r7
    6872:	f3bf 8f6f 	isb	sy
	z_impl_k_thread_abort(thread);
    6876:	4628      	mov	r0, r5
	arch_irq_unlock(key);

	if (IS_ENABLED(CONFIG_MULTITHREADING)) {
		k_thread_abort(thread);
	}
}
    6878:	e8bd 40f8 	ldmia.w	sp!, {r3, r4, r5, r6, r7, lr}
    687c:	f7fd b822 	b.w	38c4 <z_impl_k_thread_abort>
    6880:	0000c353 	.word	0x0000c353
    6884:	0000c331 	.word	0x0000c331
    6888:	0000b2d3 	.word	0x0000b2d3
    688c:	0000c370 	.word	0x0000c370

00006890 <idle>:
{
	ARG_UNUSED(unused1);
	ARG_UNUSED(unused2);
	ARG_UNUSED(unused3);

	__ASSERT_NO_MSG(_current->base.prio >= 0);
    6890:	4c11      	ldr	r4, [pc, #68]	; (68d8 <idle+0x48>)
    6892:	68a2      	ldr	r2, [r4, #8]
    6894:	f992 200e 	ldrsb.w	r2, [r2, #14]
    6898:	2a00      	cmp	r2, #0
{
    689a:	b508      	push	{r3, lr}
	__ASSERT_NO_MSG(_current->base.prio >= 0);
    689c:	da09      	bge.n	68b2 <idle+0x22>
    689e:	490f      	ldr	r1, [pc, #60]	; (68dc <idle+0x4c>)
    68a0:	480f      	ldr	r0, [pc, #60]	; (68e0 <idle+0x50>)
    68a2:	4a10      	ldr	r2, [pc, #64]	; (68e4 <idle+0x54>)
    68a4:	2327      	movs	r3, #39	; 0x27
    68a6:	f003 faca 	bl	9e3e <printk>
    68aa:	480e      	ldr	r0, [pc, #56]	; (68e4 <idle+0x54>)
    68ac:	2127      	movs	r1, #39	; 0x27
    68ae:	f003 f9c3 	bl	9c38 <assert_post_action>
	__asm__ volatile(
    68b2:	f04f 0220 	mov.w	r2, #32
    68b6:	f3ef 8311 	mrs	r3, BASEPRI
    68ba:	f382 8812 	msr	BASEPRI_MAX, r2
    68be:	f3bf 8f6f 	isb	sy
		 * higher level construct.
		 */
		(void) arch_irq_lock();

#ifdef CONFIG_PM
		_kernel.idle = z_get_next_timeout_expiry();
    68c2:	f002 fa69 	bl	8d98 <z_get_next_timeout_expiry>
    68c6:	61a0      	str	r0, [r4, #24]
		 * processing in those cases i.e. skips k_cpu_idle().
		 * The kernel's idle processing re-enables interrupts
		 * which is essential for the kernel's scheduling
		 * logic.
		 */
		if (pm_system_suspend(_kernel.idle) == false) {
    68c8:	f7fc fc04 	bl	30d4 <pm_system_suspend>
    68cc:	2800      	cmp	r0, #0
    68ce:	d1f0      	bne.n	68b2 <idle+0x22>
	arch_cpu_idle();
    68d0:	f7fc fcd6 	bl	3280 <arch_cpu_idle>
}
    68d4:	e7ed      	b.n	68b2 <idle+0x22>
    68d6:	bf00      	nop
    68d8:	20000e4c 	.word	0x20000e4c
    68dc:	0000c3c6 	.word	0x0000c3c6
    68e0:	0000b2d3 	.word	0x0000b2d3
    68e4:	0000c3a5 	.word	0x0000c3a5

000068e8 <init_idle_thread>:
} /* LCOV_EXCL_LINE ... because we just dumped final coverage data */

#if defined(CONFIG_MULTITHREADING)
__boot_func
static void init_idle_thread(int i)
{
    68e8:	b530      	push	{r4, r5, lr}
	snprintk(tname, 8, "idle %02d", i);
#else
	char *tname = NULL;
#endif /* CONFIG_THREAD_NAME */

	z_setup_new_thread(thread, stack,
    68ea:	2300      	movs	r3, #0
{
    68ec:	b087      	sub	sp, #28
	z_setup_new_thread(thread, stack,
    68ee:	2201      	movs	r2, #1
    68f0:	e9cd 2304 	strd	r2, r3, [sp, #16]
    68f4:	220f      	movs	r2, #15
    68f6:	e9cd 3202 	strd	r3, r2, [sp, #8]
	struct k_thread *thread = &z_idle_threads[i];
    68fa:	4c0d      	ldr	r4, [pc, #52]	; (6930 <init_idle_thread+0x48>)
			  CONFIG_IDLE_STACK_SIZE, idle, &_kernel.cpus[i],
    68fc:	4a0d      	ldr	r2, [pc, #52]	; (6934 <init_idle_thread+0x4c>)
	z_setup_new_thread(thread, stack,
    68fe:	9301      	str	r3, [sp, #4]
    6900:	490d      	ldr	r1, [pc, #52]	; (6938 <init_idle_thread+0x50>)
			  CONFIG_IDLE_STACK_SIZE, idle, &_kernel.cpus[i],
    6902:	2318      	movs	r3, #24
	struct k_thread *thread = &z_idle_threads[i];
    6904:	eb04 14c0 	add.w	r4, r4, r0, lsl #7
			  CONFIG_IDLE_STACK_SIZE, idle, &_kernel.cpus[i],
    6908:	fb03 2300 	mla	r3, r3, r0, r2
	z_setup_new_thread(thread, stack,
    690c:	f44f 75b0 	mov.w	r5, #352	; 0x160
    6910:	9300      	str	r3, [sp, #0]
    6912:	fb05 1100 	mla	r1, r5, r0, r1
    6916:	4b09      	ldr	r3, [pc, #36]	; (693c <init_idle_thread+0x54>)
    6918:	f44f 72a0 	mov.w	r2, #320	; 0x140
    691c:	4620      	mov	r0, r4
    691e:	f001 ff61 	bl	87e4 <z_setup_new_thread>
	SYS_PORT_TRACING_FUNC(k_thread, sched_resume, thread);
}

static inline void z_mark_thread_as_started(struct k_thread *thread)
{
	thread->base.thread_state &= ~_THREAD_PRESTART;
    6922:	7b63      	ldrb	r3, [r4, #13]
    6924:	f023 0304 	bic.w	r3, r3, #4
    6928:	7363      	strb	r3, [r4, #13]
	z_mark_thread_as_started(thread);

#ifdef CONFIG_SMP
	thread->base.is_idle = 1U;
#endif
}
    692a:	b007      	add	sp, #28
    692c:	bd30      	pop	{r4, r5, pc}
    692e:	bf00      	nop
    6930:	20000540 	.word	0x20000540
    6934:	20000e4c 	.word	0x20000e4c
    6938:	20002be0 	.word	0x20002be0
    693c:	00006891 	.word	0x00006891

00006940 <bg_thread_main>:
{
    6940:	b508      	push	{r3, lr}
	z_sys_post_kernel = true;
    6942:	4b0a      	ldr	r3, [pc, #40]	; (696c <bg_thread_main+0x2c>)
    6944:	2201      	movs	r2, #1
	z_sys_init_run_level(_SYS_INIT_LEVEL_POST_KERNEL);
    6946:	2002      	movs	r0, #2
	z_sys_post_kernel = true;
    6948:	701a      	strb	r2, [r3, #0]
	z_sys_init_run_level(_SYS_INIT_LEVEL_POST_KERNEL);
    694a:	f7ff ff1d 	bl	6788 <z_sys_init_run_level>
	boot_banner();
    694e:	f002 ff53 	bl	97f8 <boot_banner>
	z_sys_init_run_level(_SYS_INIT_LEVEL_APPLICATION);
    6952:	2003      	movs	r0, #3
    6954:	f7ff ff18 	bl	6788 <z_sys_init_run_level>
	z_init_static_threads();
    6958:	f001 fff6 	bl	8948 <z_init_static_threads>
	main();
    695c:	f7fb f984 	bl	1c68 <main>
	z_main_thread.base.user_options &= ~K_ESSENTIAL;
    6960:	4a03      	ldr	r2, [pc, #12]	; (6970 <bg_thread_main+0x30>)
    6962:	7b13      	ldrb	r3, [r2, #12]
    6964:	f023 0301 	bic.w	r3, r3, #1
    6968:	7313      	strb	r3, [r2, #12]
} /* LCOV_EXCL_LINE ... because we just dumped final coverage data */
    696a:	bd08      	pop	{r3, pc}
    696c:	2000115e 	.word	0x2000115e
    6970:	200005c0 	.word	0x200005c0

00006974 <z_bss_zero>:
	(void)memset(__bss_start, 0, __bss_end - __bss_start);
    6974:	4802      	ldr	r0, [pc, #8]	; (6980 <z_bss_zero+0xc>)
    6976:	4a03      	ldr	r2, [pc, #12]	; (6984 <z_bss_zero+0x10>)
    6978:	2100      	movs	r1, #0
    697a:	1a12      	subs	r2, r2, r0
    697c:	f003 bc53 	b.w	a226 <memset>
    6980:	200002a0 	.word	0x200002a0
    6984:	2000131c 	.word	0x2000131c

00006988 <z_cstart>:
 *
 * @return Does not return
 */
__boot_func
FUNC_NORETURN void z_cstart(void)
{
    6988:	b580      	push	{r7, lr}
 *
 * @return N/A
 */
static ALWAYS_INLINE void z_arm_interrupt_stack_setup(void)
{
	uint32_t msp =
    698a:	f8df 80d8 	ldr.w	r8, [pc, #216]	; 6a64 <z_cstart+0xdc>
    698e:	b0a6      	sub	sp, #152	; 0x98
  __ASM volatile ("MSR msp, %0" : : "r" (topOfMainStack) : );
    6990:	f388 8808 	msr	MSP, r8
	 * for Cortex-M3 and Cortex-M4 (ARMv7-M) MCUs. For the rest
	 * of ARM Cortex-M processors this setting is enforced by
	 * default and it is not configurable.
	 */
#if defined(CONFIG_CPU_CORTEX_M3) || defined(CONFIG_CPU_CORTEX_M4)
	SCB->CCR |= SCB_CCR_STKALIGN_Msk;
    6994:	4d2d      	ldr	r5, [pc, #180]	; (6a4c <z_cstart+0xc4>)
#endif
#ifdef CONFIG_USERSPACE
	dummy_thread->mem_domain_info.mem_domain = &k_mem_domain_default;
#endif

	_current_cpu->current = dummy_thread;
    6996:	4e2e      	ldr	r6, [pc, #184]	; (6a50 <z_cstart+0xc8>)
    6998:	696b      	ldr	r3, [r5, #20]
	stack_ptr = z_setup_new_thread(&z_main_thread, z_main_stack,
    699a:	f8df 90cc 	ldr.w	r9, [pc, #204]	; 6a68 <z_cstart+0xe0>
    699e:	f443 7300 	orr.w	r3, r3, #512	; 0x200
    SCB->SHP[(((uint32_t)IRQn) & 0xFUL)-4UL] = (uint8_t)((priority << (8U - __NVIC_PRIO_BITS)) & (uint32_t)0xFFUL);
    69a2:	2400      	movs	r4, #0
    69a4:	616b      	str	r3, [r5, #20]
    69a6:	23e0      	movs	r3, #224	; 0xe0
    69a8:	f885 3022 	strb.w	r3, [r5, #34]	; 0x22
    69ac:	77ec      	strb	r4, [r5, #31]
    69ae:	762c      	strb	r4, [r5, #24]
    69b0:	766c      	strb	r4, [r5, #25]
    69b2:	76ac      	strb	r4, [r5, #26]
    69b4:	f885 4020 	strb.w	r4, [r5, #32]
#if defined(CONFIG_ARM_SECURE_FIRMWARE)
	NVIC_SetPriority(SecureFault_IRQn, _EXC_FAULT_PRIO);
#endif /* CONFIG_ARM_SECURE_FIRMWARE */

	/* Enable Usage, Mem, & Bus Faults */
	SCB->SHCSR |= SCB_SHCSR_USGFAULTENA_Msk | SCB_SHCSR_MEMFAULTENA_Msk |
    69b8:	6a6b      	ldr	r3, [r5, #36]	; 0x24
    69ba:	f443 23e0 	orr.w	r3, r3, #458752	; 0x70000
    69be:	626b      	str	r3, [r5, #36]	; 0x24
    69c0:	f885 4023 	strb.w	r4, [r5, #35]	; 0x23

static ALWAYS_INLINE void arch_kernel_init(void)
{
	z_arm_interrupt_stack_setup();
	z_arm_exc_setup();
	z_arm_fault_init();
    69c4:	f7fc ff28 	bl	3818 <z_arm_fault_init>
	z_arm_cpu_idle_init();
    69c8:	f7fc fc54 	bl	3274 <z_arm_cpu_idle_init>
static ALWAYS_INLINE void z_arm_clear_faults(void)
{
#if defined(CONFIG_ARMV6_M_ARMV8_M_BASELINE)
#elif defined(CONFIG_ARMV7_M_ARMV8_M_MAINLINE)
	/* Reset all faults */
	SCB->CFSR = SCB_CFSR_USGFAULTSR_Msk |
    69cc:	f04f 33ff 	mov.w	r3, #4294967295
    69d0:	62ab      	str	r3, [r5, #40]	; 0x28
		    SCB_CFSR_MEMFAULTSR_Msk |
		    SCB_CFSR_BUSFAULTSR_Msk;

	/* Clear all Hard Faults - HFSR is write-one-to-clear */
	SCB->HFSR = 0xffffffff;
    69d2:	62eb      	str	r3, [r5, #44]	; 0x2c
	z_arm_clear_faults();
#if defined(CONFIG_ARM_MPU)
	z_arm_mpu_init();
    69d4:	f7fd f850 	bl	3a78 <z_arm_mpu_init>
	 * to set up access permissions for fixed memory sections, such
	 * as Application Memory or No-Cacheable SRAM area.
	 *
	 * This function is invoked once, upon system initialization.
	 */
	z_arm_configure_static_mpu_regions();
    69d8:	f7fc ff86 	bl	38e8 <z_arm_configure_static_mpu_regions>
	dummy_thread->base.user_options = K_ESSENTIAL;
    69dc:	f240 1301 	movw	r3, #257	; 0x101
    69e0:	f8ad 3024 	strh.w	r3, [sp, #36]	; 0x24
	_current_cpu->current = dummy_thread;
    69e4:	ab06      	add	r3, sp, #24
    69e6:	60b3      	str	r3, [r6, #8]
	dummy_thread->stack_info.size = 0U;
    69e8:	e9cd 4420 	strd	r4, r4, [sp, #128]	; 0x80
	struct k_thread dummy_thread;

	z_dummy_thread_init(&dummy_thread);
#endif
	/* do any necessary initialization of static devices */
	z_device_state_init();
    69ec:	f004 f8cd 	bl	ab8a <z_device_state_init>

	/* perform basic hardware initialization */
	z_sys_init_run_level(_SYS_INIT_LEVEL_PRE_KERNEL_1);
    69f0:	4620      	mov	r0, r4
    69f2:	f7ff fec9 	bl	6788 <z_sys_init_run_level>
	z_sys_init_run_level(_SYS_INIT_LEVEL_PRE_KERNEL_2);
    69f6:	2001      	movs	r0, #1
	_kernel.ready_q.cache = &z_main_thread;
    69f8:	4d16      	ldr	r5, [pc, #88]	; (6a54 <z_cstart+0xcc>)
	z_sys_init_run_level(_SYS_INIT_LEVEL_PRE_KERNEL_2);
    69fa:	f7ff fec5 	bl	6788 <z_sys_init_run_level>
	z_sched_init();
    69fe:	f001 fb3f 	bl	8080 <z_sched_init>
	stack_ptr = z_setup_new_thread(&z_main_thread, z_main_stack,
    6a02:	4b15      	ldr	r3, [pc, #84]	; (6a58 <z_cstart+0xd0>)
    6a04:	9305      	str	r3, [sp, #20]
    6a06:	2301      	movs	r3, #1
    6a08:	4914      	ldr	r1, [pc, #80]	; (6a5c <z_cstart+0xd4>)
    6a0a:	9400      	str	r4, [sp, #0]
    6a0c:	e9cd 4303 	strd	r4, r3, [sp, #12]
    6a10:	f44f 6280 	mov.w	r2, #1024	; 0x400
    6a14:	464b      	mov	r3, r9
    6a16:	e9cd 4401 	strd	r4, r4, [sp, #4]
    6a1a:	4628      	mov	r0, r5
	_kernel.ready_q.cache = &z_main_thread;
    6a1c:	61f5      	str	r5, [r6, #28]
	stack_ptr = z_setup_new_thread(&z_main_thread, z_main_stack,
    6a1e:	f001 fee1 	bl	87e4 <z_setup_new_thread>
    6a22:	7b6a      	ldrb	r2, [r5, #13]
    6a24:	f022 0204 	bic.w	r2, r2, #4
    6a28:	736a      	strb	r2, [r5, #13]
    6a2a:	4607      	mov	r7, r0
	z_ready_thread(&z_main_thread);
    6a2c:	4628      	mov	r0, r5
    6a2e:	f000 ff27 	bl	7880 <z_ready_thread>
		init_idle_thread(i);
    6a32:	4620      	mov	r0, r4
    6a34:	f7ff ff58 	bl	68e8 <init_idle_thread>
		_kernel.cpus[i].idle_thread = &z_idle_threads[i];
    6a38:	4b09      	ldr	r3, [pc, #36]	; (6a60 <z_cstart+0xd8>)
    6a3a:	60f3      	str	r3, [r6, #12]
	arch_switch_to_main_thread(&z_main_thread, stack_ptr, bg_thread_main);
    6a3c:	464a      	mov	r2, r9
    6a3e:	4639      	mov	r1, r7
    6a40:	4628      	mov	r0, r5
		_kernel.cpus[i].id = i;
    6a42:	7534      	strb	r4, [r6, #20]
		_kernel.cpus[i].irq_stack =
    6a44:	f8c6 8004 	str.w	r8, [r6, #4]
	arch_switch_to_main_thread(&z_main_thread, stack_ptr, bg_thread_main);
    6a48:	f7fc fd4e 	bl	34e8 <arch_switch_to_main_thread>
	CODE_UNREACHABLE; /* LCOV_EXCL_LINE */
    6a4c:	e000ed00 	.word	0xe000ed00
    6a50:	20000e4c 	.word	0x20000e4c
    6a54:	200005c0 	.word	0x200005c0
    6a58:	0000c3ee 	.word	0x0000c3ee
    6a5c:	200027c0 	.word	0x200027c0
    6a60:	20000540 	.word	0x20000540
    6a64:	20003560 	.word	0x20003560
    6a68:	00006941 	.word	0x00006941

00006a6c <init_mem_slab_module>:
 * Perform any initialization that wasn't done at build time.
 *
 * @return N/A
 */
static int init_mem_slab_module(const struct device *dev)
{
    6a6c:	e92d 41f0 	stmdb	sp!, {r4, r5, r6, r7, r8, lr}
	int rc = 0;
	ARG_UNUSED(dev);

	STRUCT_SECTION_FOREACH(k_mem_slab, slab) {
    6a70:	4d16      	ldr	r5, [pc, #88]	; (6acc <init_mem_slab_module+0x60>)
    6a72:	4c17      	ldr	r4, [pc, #92]	; (6ad0 <init_mem_slab_module+0x64>)
    6a74:	4e17      	ldr	r6, [pc, #92]	; (6ad4 <init_mem_slab_module+0x68>)
    6a76:	46a8      	mov	r8, r5
    6a78:	42ac      	cmp	r4, r5
    6a7a:	d90c      	bls.n	6a96 <init_mem_slab_module+0x2a>
    6a7c:	4916      	ldr	r1, [pc, #88]	; (6ad8 <init_mem_slab_module+0x6c>)
    6a7e:	4817      	ldr	r0, [pc, #92]	; (6adc <init_mem_slab_module+0x70>)
    6a80:	233c      	movs	r3, #60	; 0x3c
    6a82:	4632      	mov	r2, r6
    6a84:	f003 f9db 	bl	9e3e <printk>
    6a88:	4815      	ldr	r0, [pc, #84]	; (6ae0 <init_mem_slab_module+0x74>)
    6a8a:	f003 f9d8 	bl	9e3e <printk>
    6a8e:	213c      	movs	r1, #60	; 0x3c
    6a90:	4630      	mov	r0, r6
    6a92:	f003 f8d1 	bl	9c38 <assert_post_action>
    6a96:	4544      	cmp	r4, r8
    6a98:	d302      	bcc.n	6aa0 <init_mem_slab_module+0x34>
			goto out;
		}
		z_object_init(slab);
	}

out:
    6a9a:	2000      	movs	r0, #0
	return rc;
}
    6a9c:	e8bd 81f0 	ldmia.w	sp!, {r4, r5, r6, r7, r8, pc}
	CHECKIF(((slab->block_size | (uintptr_t)slab->buffer) &
    6aa0:	e9d4 2104 	ldrd	r2, r1, [r4, #16]
    6aa4:	ea41 0302 	orr.w	r3, r1, r2
    6aa8:	f013 0303 	ands.w	r3, r3, #3
    6aac:	d10b      	bne.n	6ac6 <init_mem_slab_module+0x5a>
	for (j = 0U; j < slab->num_blocks; j++) {
    6aae:	68e0      	ldr	r0, [r4, #12]
	slab->free_list = NULL;
    6ab0:	61a3      	str	r3, [r4, #24]
	for (j = 0U; j < slab->num_blocks; j++) {
    6ab2:	4283      	cmp	r3, r0
    6ab4:	d101      	bne.n	6aba <init_mem_slab_module+0x4e>
	STRUCT_SECTION_FOREACH(k_mem_slab, slab) {
    6ab6:	3420      	adds	r4, #32
    6ab8:	e7de      	b.n	6a78 <init_mem_slab_module+0xc>
		*(char **)p = slab->free_list;
    6aba:	69a7      	ldr	r7, [r4, #24]
    6abc:	600f      	str	r7, [r1, #0]
	for (j = 0U; j < slab->num_blocks; j++) {
    6abe:	3301      	adds	r3, #1
		slab->free_list = p;
    6ac0:	61a1      	str	r1, [r4, #24]
		p += slab->block_size;
    6ac2:	4411      	add	r1, r2
	for (j = 0U; j < slab->num_blocks; j++) {
    6ac4:	e7f5      	b.n	6ab2 <init_mem_slab_module+0x46>
		return -EINVAL;
    6ac6:	f06f 0015 	mvn.w	r0, #21
	return rc;
    6aca:	e7e7      	b.n	6a9c <init_mem_slab_module+0x30>
    6acc:	2000024c 	.word	0x2000024c
    6ad0:	2000024c 	.word	0x2000024c
    6ad4:	0000c3f3 	.word	0x0000c3f3
    6ad8:	0000c418 	.word	0x0000c418
    6adc:	0000b2d3 	.word	0x0000b2d3
    6ae0:	0000c435 	.word	0x0000c435

00006ae4 <k_mem_slab_alloc>:

	return rc;
}

int k_mem_slab_alloc(struct k_mem_slab *slab, void **mem, k_timeout_t timeout)
{
    6ae4:	e92d 43f7 	stmdb	sp!, {r0, r1, r2, r4, r5, r6, r7, r8, r9, lr}
    6ae8:	4604      	mov	r4, r0
    6aea:	460e      	mov	r6, r1
    6aec:	4690      	mov	r8, r2
    6aee:	4699      	mov	r9, r3
	k_spinlock_key_t key = k_spin_lock(&slab->lock);
    6af0:	f100 0508 	add.w	r5, r0, #8
    6af4:	f04f 0320 	mov.w	r3, #32
    6af8:	f3ef 8711 	mrs	r7, BASEPRI
    6afc:	f383 8812 	msr	BASEPRI_MAX, r3
    6b00:	f3bf 8f6f 	isb	sy
	__ASSERT(z_spin_lock_valid(l), "Recursive spinlock %p", l);
    6b04:	4628      	mov	r0, r5
    6b06:	f001 ffaf 	bl	8a68 <z_spin_lock_valid>
    6b0a:	b968      	cbnz	r0, 6b28 <k_mem_slab_alloc+0x44>
    6b0c:	4a24      	ldr	r2, [pc, #144]	; (6ba0 <k_mem_slab_alloc+0xbc>)
    6b0e:	4925      	ldr	r1, [pc, #148]	; (6ba4 <k_mem_slab_alloc+0xc0>)
    6b10:	4825      	ldr	r0, [pc, #148]	; (6ba8 <k_mem_slab_alloc+0xc4>)
    6b12:	2381      	movs	r3, #129	; 0x81
    6b14:	f003 f993 	bl	9e3e <printk>
    6b18:	4824      	ldr	r0, [pc, #144]	; (6bac <k_mem_slab_alloc+0xc8>)
    6b1a:	4629      	mov	r1, r5
    6b1c:	f003 f98f 	bl	9e3e <printk>
    6b20:	481f      	ldr	r0, [pc, #124]	; (6ba0 <k_mem_slab_alloc+0xbc>)
    6b22:	2181      	movs	r1, #129	; 0x81
    6b24:	f003 f888 	bl	9c38 <assert_post_action>
	z_spin_lock_set_owner(l);
    6b28:	4628      	mov	r0, r5
    6b2a:	f001 ffbb 	bl	8aa4 <z_spin_lock_set_owner>
	int result;

	SYS_PORT_TRACING_OBJ_FUNC_ENTER(k_mem_slab, alloc, slab, timeout);

	if (slab->free_list != NULL) {
    6b2e:	69a3      	ldr	r3, [r4, #24]
    6b30:	b1eb      	cbz	r3, 6b6e <k_mem_slab_alloc+0x8a>
		/* take a free block */
		*mem = slab->free_list;
    6b32:	6033      	str	r3, [r6, #0]
		slab->free_list = *(char **)(slab->free_list);
    6b34:	681b      	ldr	r3, [r3, #0]
    6b36:	61a3      	str	r3, [r4, #24]
		slab->num_used++;
    6b38:	69e3      	ldr	r3, [r4, #28]
    6b3a:	3301      	adds	r3, #1
    6b3c:	61e3      	str	r3, [r4, #28]

#ifdef CONFIG_MEM_SLAB_TRACE_MAX_UTILIZATION
		slab->max_used = MAX(slab->num_used, slab->max_used);
#endif

		result = 0;
    6b3e:	2400      	movs	r4, #0
	__ASSERT(z_spin_unlock_valid(l), "Not my spinlock %p", l);
    6b40:	4628      	mov	r0, r5
    6b42:	f001 ff9f 	bl	8a84 <z_spin_unlock_valid>
    6b46:	b968      	cbnz	r0, 6b64 <k_mem_slab_alloc+0x80>
    6b48:	4a15      	ldr	r2, [pc, #84]	; (6ba0 <k_mem_slab_alloc+0xbc>)
    6b4a:	4919      	ldr	r1, [pc, #100]	; (6bb0 <k_mem_slab_alloc+0xcc>)
    6b4c:	4816      	ldr	r0, [pc, #88]	; (6ba8 <k_mem_slab_alloc+0xc4>)
    6b4e:	23ac      	movs	r3, #172	; 0xac
    6b50:	f003 f975 	bl	9e3e <printk>
    6b54:	4817      	ldr	r0, [pc, #92]	; (6bb4 <k_mem_slab_alloc+0xd0>)
    6b56:	4629      	mov	r1, r5
    6b58:	f003 f971 	bl	9e3e <printk>
    6b5c:	4810      	ldr	r0, [pc, #64]	; (6ba0 <k_mem_slab_alloc+0xbc>)
    6b5e:	21ac      	movs	r1, #172	; 0xac
    6b60:	f003 f86a 	bl	9c38 <assert_post_action>
	__asm__ volatile(
    6b64:	f387 8811 	msr	BASEPRI, r7
    6b68:	f3bf 8f6f 	isb	sy

	SYS_PORT_TRACING_OBJ_FUNC_EXIT(k_mem_slab, alloc, slab, timeout, result);

	k_spin_unlock(&slab->lock, key);

	return result;
    6b6c:	e013      	b.n	6b96 <k_mem_slab_alloc+0xb2>
	} else if (K_TIMEOUT_EQ(timeout, K_NO_WAIT) ||
    6b6e:	ea58 0209 	orrs.w	r2, r8, r9
    6b72:	d103      	bne.n	6b7c <k_mem_slab_alloc+0x98>
		*mem = NULL;
    6b74:	6033      	str	r3, [r6, #0]
		result = -ENOMEM;
    6b76:	f06f 040b 	mvn.w	r4, #11
    6b7a:	e7e1      	b.n	6b40 <k_mem_slab_alloc+0x5c>
		result = z_pend_curr(&slab->lock, key, &slab->wait_q, timeout);
    6b7c:	4622      	mov	r2, r4
    6b7e:	e9cd 8900 	strd	r8, r9, [sp]
    6b82:	4639      	mov	r1, r7
    6b84:	4628      	mov	r0, r5
    6b86:	f001 f82d 	bl	7be4 <z_pend_curr>
		if (result == 0) {
    6b8a:	4604      	mov	r4, r0
    6b8c:	b918      	cbnz	r0, 6b96 <k_mem_slab_alloc+0xb2>
			*mem = _current->base.swap_data;
    6b8e:	4b0a      	ldr	r3, [pc, #40]	; (6bb8 <k_mem_slab_alloc+0xd4>)
    6b90:	689b      	ldr	r3, [r3, #8]
    6b92:	695b      	ldr	r3, [r3, #20]
    6b94:	6033      	str	r3, [r6, #0]
}
    6b96:	4620      	mov	r0, r4
    6b98:	b003      	add	sp, #12
    6b9a:	e8bd 83f0 	ldmia.w	sp!, {r4, r5, r6, r7, r8, r9, pc}
    6b9e:	bf00      	nop
    6ba0:	0000ba96 	.word	0x0000ba96
    6ba4:	0000bae8 	.word	0x0000bae8
    6ba8:	0000b2d3 	.word	0x0000b2d3
    6bac:	0000bafd 	.word	0x0000bafd
    6bb0:	0000babc 	.word	0x0000babc
    6bb4:	0000bad3 	.word	0x0000bad3
    6bb8:	20000e4c 	.word	0x20000e4c

00006bbc <k_mem_slab_free>:

void k_mem_slab_free(struct k_mem_slab *slab, void **mem)
{
    6bbc:	e92d 41f0 	stmdb	sp!, {r4, r5, r6, r7, r8, lr}
    6bc0:	4604      	mov	r4, r0
    6bc2:	460e      	mov	r6, r1
	k_spinlock_key_t key = k_spin_lock(&slab->lock);
    6bc4:	f100 0508 	add.w	r5, r0, #8
	__asm__ volatile(
    6bc8:	f04f 0320 	mov.w	r3, #32
    6bcc:	f3ef 8711 	mrs	r7, BASEPRI
    6bd0:	f383 8812 	msr	BASEPRI_MAX, r3
    6bd4:	f3bf 8f6f 	isb	sy
	__ASSERT(z_spin_lock_valid(l), "Recursive spinlock %p", l);
    6bd8:	4628      	mov	r0, r5
    6bda:	f001 ff45 	bl	8a68 <z_spin_lock_valid>
    6bde:	b968      	cbnz	r0, 6bfc <k_mem_slab_free+0x40>
    6be0:	4a22      	ldr	r2, [pc, #136]	; (6c6c <k_mem_slab_free+0xb0>)
    6be2:	4923      	ldr	r1, [pc, #140]	; (6c70 <k_mem_slab_free+0xb4>)
    6be4:	4823      	ldr	r0, [pc, #140]	; (6c74 <k_mem_slab_free+0xb8>)
    6be6:	2381      	movs	r3, #129	; 0x81
    6be8:	f003 f929 	bl	9e3e <printk>
    6bec:	4822      	ldr	r0, [pc, #136]	; (6c78 <k_mem_slab_free+0xbc>)
    6bee:	4629      	mov	r1, r5
    6bf0:	f003 f925 	bl	9e3e <printk>
    6bf4:	481d      	ldr	r0, [pc, #116]	; (6c6c <k_mem_slab_free+0xb0>)
    6bf6:	2181      	movs	r1, #129	; 0x81
    6bf8:	f003 f81e 	bl	9c38 <assert_post_action>
	z_spin_lock_set_owner(l);
    6bfc:	4628      	mov	r0, r5
    6bfe:	f001 ff51 	bl	8aa4 <z_spin_lock_set_owner>

	SYS_PORT_TRACING_OBJ_FUNC_ENTER(k_mem_slab, free, slab);
	if (slab->free_list == NULL && IS_ENABLED(CONFIG_MULTITHREADING)) {
    6c02:	f8d4 8018 	ldr.w	r8, [r4, #24]
    6c06:	f1b8 0f00 	cmp.w	r8, #0
    6c0a:	d10f      	bne.n	6c2c <k_mem_slab_free+0x70>
		struct k_thread *pending_thread = z_unpend_first_thread(&slab->wait_q);
    6c0c:	4620      	mov	r0, r4
    6c0e:	f001 f9e7 	bl	7fe0 <z_unpend_first_thread>

		if (pending_thread != NULL) {
    6c12:	b158      	cbz	r0, 6c2c <k_mem_slab_free+0x70>
			SYS_PORT_TRACING_OBJ_FUNC_EXIT(k_mem_slab, free, slab);

			z_thread_return_value_set_with_data(pending_thread, 0, *mem);
    6c14:	6832      	ldr	r2, [r6, #0]
z_thread_return_value_set_with_data(struct k_thread *thread,
				   unsigned int value,
				   void *data)
{
	arch_thread_return_value_set(thread, value);
	thread->base.swap_data = data;
    6c16:	6142      	str	r2, [r0, #20]
}

static ALWAYS_INLINE void
arch_thread_return_value_set(struct k_thread *thread, unsigned int value)
{
	thread->arch.swap_return_value = value;
    6c18:	f8c0 807c 	str.w	r8, [r0, #124]	; 0x7c
			z_ready_thread(pending_thread);
    6c1c:	f000 fe30 	bl	7880 <z_ready_thread>
			z_reschedule(&slab->lock, key);
    6c20:	4639      	mov	r1, r7
    6c22:	4628      	mov	r0, r5
	slab->num_used--;

	SYS_PORT_TRACING_OBJ_FUNC_EXIT(k_mem_slab, free, slab);

	k_spin_unlock(&slab->lock, key);
}
    6c24:	e8bd 41f0 	ldmia.w	sp!, {r4, r5, r6, r7, r8, lr}
			z_reschedule(&slab->lock, key);
    6c28:	f000 bb8a 	b.w	7340 <z_reschedule>
	**(char ***) mem = slab->free_list;
    6c2c:	6833      	ldr	r3, [r6, #0]
    6c2e:	69a2      	ldr	r2, [r4, #24]
    6c30:	601a      	str	r2, [r3, #0]
	slab->free_list = *(char **) mem;
    6c32:	6833      	ldr	r3, [r6, #0]
    6c34:	61a3      	str	r3, [r4, #24]
	slab->num_used--;
    6c36:	69e3      	ldr	r3, [r4, #28]
    6c38:	3b01      	subs	r3, #1
    6c3a:	61e3      	str	r3, [r4, #28]
	__ASSERT(z_spin_unlock_valid(l), "Not my spinlock %p", l);
    6c3c:	4628      	mov	r0, r5
    6c3e:	f001 ff21 	bl	8a84 <z_spin_unlock_valid>
    6c42:	b968      	cbnz	r0, 6c60 <k_mem_slab_free+0xa4>
    6c44:	4a09      	ldr	r2, [pc, #36]	; (6c6c <k_mem_slab_free+0xb0>)
    6c46:	490d      	ldr	r1, [pc, #52]	; (6c7c <k_mem_slab_free+0xc0>)
    6c48:	480a      	ldr	r0, [pc, #40]	; (6c74 <k_mem_slab_free+0xb8>)
    6c4a:	23ac      	movs	r3, #172	; 0xac
    6c4c:	f003 f8f7 	bl	9e3e <printk>
    6c50:	480b      	ldr	r0, [pc, #44]	; (6c80 <k_mem_slab_free+0xc4>)
    6c52:	4629      	mov	r1, r5
    6c54:	f003 f8f3 	bl	9e3e <printk>
    6c58:	4804      	ldr	r0, [pc, #16]	; (6c6c <k_mem_slab_free+0xb0>)
    6c5a:	21ac      	movs	r1, #172	; 0xac
    6c5c:	f002 ffec 	bl	9c38 <assert_post_action>
	__asm__ volatile(
    6c60:	f387 8811 	msr	BASEPRI, r7
    6c64:	f3bf 8f6f 	isb	sy
}
    6c68:	e8bd 81f0 	ldmia.w	sp!, {r4, r5, r6, r7, r8, pc}
    6c6c:	0000ba96 	.word	0x0000ba96
    6c70:	0000bae8 	.word	0x0000bae8
    6c74:	0000b2d3 	.word	0x0000b2d3
    6c78:	0000bafd 	.word	0x0000bafd
    6c7c:	0000babc 	.word	0x0000babc
    6c80:	0000bad3 	.word	0x0000bad3

00006c84 <z_impl_k_mutex_lock>:
	}
	return false;
}

int z_impl_k_mutex_lock(struct k_mutex *mutex, k_timeout_t timeout)
{
    6c84:	e92d 41f3 	stmdb	sp!, {r0, r1, r4, r5, r6, r7, r8, lr}
    6c88:	4604      	mov	r4, r0
    6c8a:	4616      	mov	r6, r2
    6c8c:	461f      	mov	r7, r3
  __ASM volatile ("MRS %0, ipsr" : "=r" (result) );
    6c8e:	f3ef 8305 	mrs	r3, IPSR
	int new_prio;
	k_spinlock_key_t key;
	bool resched = false;

	__ASSERT(!arch_is_in_isr(), "mutexes cannot be used inside ISRs");
    6c92:	b163      	cbz	r3, 6cae <z_impl_k_mutex_lock+0x2a>
    6c94:	4970      	ldr	r1, [pc, #448]	; (6e58 <z_impl_k_mutex_lock+0x1d4>)
    6c96:	4a71      	ldr	r2, [pc, #452]	; (6e5c <z_impl_k_mutex_lock+0x1d8>)
    6c98:	4871      	ldr	r0, [pc, #452]	; (6e60 <z_impl_k_mutex_lock+0x1dc>)
    6c9a:	2365      	movs	r3, #101	; 0x65
    6c9c:	f003 f8cf 	bl	9e3e <printk>
    6ca0:	4870      	ldr	r0, [pc, #448]	; (6e64 <z_impl_k_mutex_lock+0x1e0>)
    6ca2:	f003 f8cc 	bl	9e3e <printk>
    6ca6:	486d      	ldr	r0, [pc, #436]	; (6e5c <z_impl_k_mutex_lock+0x1d8>)
    6ca8:	2165      	movs	r1, #101	; 0x65
    6caa:	f002 ffc5 	bl	9c38 <assert_post_action>
	__asm__ volatile(
    6cae:	f04f 0320 	mov.w	r3, #32
    6cb2:	f3ef 8811 	mrs	r8, BASEPRI
    6cb6:	f383 8812 	msr	BASEPRI_MAX, r3
    6cba:	f3bf 8f6f 	isb	sy
	__ASSERT(z_spin_lock_valid(l), "Recursive spinlock %p", l);
    6cbe:	486a      	ldr	r0, [pc, #424]	; (6e68 <z_impl_k_mutex_lock+0x1e4>)
    6cc0:	f001 fed2 	bl	8a68 <z_spin_lock_valid>
    6cc4:	b968      	cbnz	r0, 6ce2 <z_impl_k_mutex_lock+0x5e>
    6cc6:	4a69      	ldr	r2, [pc, #420]	; (6e6c <z_impl_k_mutex_lock+0x1e8>)
    6cc8:	4969      	ldr	r1, [pc, #420]	; (6e70 <z_impl_k_mutex_lock+0x1ec>)
    6cca:	4865      	ldr	r0, [pc, #404]	; (6e60 <z_impl_k_mutex_lock+0x1dc>)
    6ccc:	2381      	movs	r3, #129	; 0x81
    6cce:	f003 f8b6 	bl	9e3e <printk>
    6cd2:	4965      	ldr	r1, [pc, #404]	; (6e68 <z_impl_k_mutex_lock+0x1e4>)
    6cd4:	4867      	ldr	r0, [pc, #412]	; (6e74 <z_impl_k_mutex_lock+0x1f0>)
    6cd6:	f003 f8b2 	bl	9e3e <printk>
    6cda:	4864      	ldr	r0, [pc, #400]	; (6e6c <z_impl_k_mutex_lock+0x1e8>)
    6cdc:	2181      	movs	r1, #129	; 0x81
    6cde:	f002 ffab 	bl	9c38 <assert_post_action>
	z_spin_lock_set_owner(l);
    6ce2:	4861      	ldr	r0, [pc, #388]	; (6e68 <z_impl_k_mutex_lock+0x1e4>)
    6ce4:	f001 fede 	bl	8aa4 <z_spin_lock_set_owner>

	SYS_PORT_TRACING_OBJ_FUNC_ENTER(k_mutex, lock, mutex, timeout);

	key = k_spin_lock(&lock);

	if (likely((mutex->lock_count == 0U) || (mutex->owner == _current))) {
    6ce8:	68e3      	ldr	r3, [r4, #12]
    6cea:	4a63      	ldr	r2, [pc, #396]	; (6e78 <z_impl_k_mutex_lock+0x1f4>)
    6cec:	b1fb      	cbz	r3, 6d2e <z_impl_k_mutex_lock+0xaa>
    6cee:	68a0      	ldr	r0, [r4, #8]
    6cf0:	6891      	ldr	r1, [r2, #8]
    6cf2:	4288      	cmp	r0, r1
    6cf4:	d03d      	beq.n	6d72 <z_impl_k_mutex_lock+0xee>
		SYS_PORT_TRACING_OBJ_FUNC_EXIT(k_mutex, lock, mutex, timeout, 0);

		return 0;
	}

	if (unlikely(K_TIMEOUT_EQ(timeout, K_NO_WAIT))) {
    6cf6:	ea56 0307 	orrs.w	r3, r6, r7
    6cfa:	d13c      	bne.n	6d76 <z_impl_k_mutex_lock+0xf2>
	__ASSERT(z_spin_unlock_valid(l), "Not my spinlock %p", l);
    6cfc:	485a      	ldr	r0, [pc, #360]	; (6e68 <z_impl_k_mutex_lock+0x1e4>)
    6cfe:	f001 fec1 	bl	8a84 <z_spin_unlock_valid>
    6d02:	b968      	cbnz	r0, 6d20 <z_impl_k_mutex_lock+0x9c>
    6d04:	4a59      	ldr	r2, [pc, #356]	; (6e6c <z_impl_k_mutex_lock+0x1e8>)
    6d06:	495d      	ldr	r1, [pc, #372]	; (6e7c <z_impl_k_mutex_lock+0x1f8>)
    6d08:	4855      	ldr	r0, [pc, #340]	; (6e60 <z_impl_k_mutex_lock+0x1dc>)
    6d0a:	23ac      	movs	r3, #172	; 0xac
    6d0c:	f003 f897 	bl	9e3e <printk>
    6d10:	4955      	ldr	r1, [pc, #340]	; (6e68 <z_impl_k_mutex_lock+0x1e4>)
    6d12:	485b      	ldr	r0, [pc, #364]	; (6e80 <z_impl_k_mutex_lock+0x1fc>)
    6d14:	f003 f893 	bl	9e3e <printk>
    6d18:	4854      	ldr	r0, [pc, #336]	; (6e6c <z_impl_k_mutex_lock+0x1e8>)
    6d1a:	21ac      	movs	r1, #172	; 0xac
    6d1c:	f002 ff8c 	bl	9c38 <assert_post_action>
	__asm__ volatile(
    6d20:	f388 8811 	msr	BASEPRI, r8
    6d24:	f3bf 8f6f 	isb	sy
		k_spin_unlock(&lock, key);

		SYS_PORT_TRACING_OBJ_FUNC_EXIT(k_mutex, lock, mutex, timeout, -EBUSY);

		return -EBUSY;
    6d28:	f06f 000f 	mvn.w	r0, #15
    6d2c:	e01e      	b.n	6d6c <z_impl_k_mutex_lock+0xe8>
					_current->base.prio :
    6d2e:	6891      	ldr	r1, [r2, #8]
    6d30:	f991 100e 	ldrsb.w	r1, [r1, #14]
    6d34:	484c      	ldr	r0, [pc, #304]	; (6e68 <z_impl_k_mutex_lock+0x1e4>)
		mutex->owner_orig_prio = (mutex->lock_count == 0U) ?
    6d36:	6121      	str	r1, [r4, #16]
		mutex->lock_count++;
    6d38:	3301      	adds	r3, #1
    6d3a:	60e3      	str	r3, [r4, #12]
		mutex->owner = _current;
    6d3c:	6893      	ldr	r3, [r2, #8]
    6d3e:	60a3      	str	r3, [r4, #8]
    6d40:	f001 fea0 	bl	8a84 <z_spin_unlock_valid>
    6d44:	b968      	cbnz	r0, 6d62 <z_impl_k_mutex_lock+0xde>
    6d46:	4a49      	ldr	r2, [pc, #292]	; (6e6c <z_impl_k_mutex_lock+0x1e8>)
    6d48:	494c      	ldr	r1, [pc, #304]	; (6e7c <z_impl_k_mutex_lock+0x1f8>)
    6d4a:	4845      	ldr	r0, [pc, #276]	; (6e60 <z_impl_k_mutex_lock+0x1dc>)
    6d4c:	23ac      	movs	r3, #172	; 0xac
    6d4e:	f003 f876 	bl	9e3e <printk>
    6d52:	4945      	ldr	r1, [pc, #276]	; (6e68 <z_impl_k_mutex_lock+0x1e4>)
    6d54:	484a      	ldr	r0, [pc, #296]	; (6e80 <z_impl_k_mutex_lock+0x1fc>)
    6d56:	f003 f872 	bl	9e3e <printk>
    6d5a:	4844      	ldr	r0, [pc, #272]	; (6e6c <z_impl_k_mutex_lock+0x1e8>)
    6d5c:	21ac      	movs	r1, #172	; 0xac
    6d5e:	f002 ff6b 	bl	9c38 <assert_post_action>
    6d62:	f388 8811 	msr	BASEPRI, r8
    6d66:	f3bf 8f6f 	isb	sy
		return 0;
    6d6a:	2000      	movs	r0, #0
	}

	SYS_PORT_TRACING_OBJ_FUNC_EXIT(k_mutex, lock, mutex, timeout, -EAGAIN);

	return -EAGAIN;
}
    6d6c:	b002      	add	sp, #8
    6d6e:	e8bd 81f0 	ldmia.w	sp!, {r4, r5, r6, r7, r8, pc}
					_current->base.prio :
    6d72:	6921      	ldr	r1, [r4, #16]
    6d74:	e7de      	b.n	6d34 <z_impl_k_mutex_lock+0xb0>
	new_prio = new_prio_for_inheritance(_current->base.prio,
    6d76:	f991 100e 	ldrsb.w	r1, [r1, #14]
    6d7a:	f990 300e 	ldrsb.w	r3, [r0, #14]
	thread->base.thread_state &= ~states;
}

static inline bool z_is_under_prio_ceiling(int prio)
{
	return prio >= CONFIG_PRIORITY_CEILING;
    6d7e:	4299      	cmp	r1, r3
    6d80:	bfa8      	it	ge
    6d82:	4619      	movge	r1, r3
    6d84:	f06f 027e 	mvn.w	r2, #126	; 0x7e
    6d88:	4291      	cmp	r1, r2
    6d8a:	bfb8      	it	lt
    6d8c:	4611      	movlt	r1, r2
	if (z_is_prio_higher(new_prio, mutex->owner->base.prio)) {
    6d8e:	428b      	cmp	r3, r1
    6d90:	dd44      	ble.n	6e1c <z_impl_k_mutex_lock+0x198>
		return z_set_prio(mutex->owner, new_prio);
    6d92:	f000 ff57 	bl	7c44 <z_set_prio>
    6d96:	4605      	mov	r5, r0
	int got_mutex = z_pend_curr(&lock, key, &mutex->wait_q, timeout);
    6d98:	e9cd 6700 	strd	r6, r7, [sp]
    6d9c:	4832      	ldr	r0, [pc, #200]	; (6e68 <z_impl_k_mutex_lock+0x1e4>)
    6d9e:	4622      	mov	r2, r4
    6da0:	4641      	mov	r1, r8
    6da2:	f000 ff1f 	bl	7be4 <z_pend_curr>
	if (got_mutex == 0) {
    6da6:	2800      	cmp	r0, #0
    6da8:	d0e0      	beq.n	6d6c <z_impl_k_mutex_lock+0xe8>
	__asm__ volatile(
    6daa:	f04f 0320 	mov.w	r3, #32
    6dae:	f3ef 8611 	mrs	r6, BASEPRI
    6db2:	f383 8812 	msr	BASEPRI_MAX, r3
    6db6:	f3bf 8f6f 	isb	sy
	__ASSERT(z_spin_lock_valid(l), "Recursive spinlock %p", l);
    6dba:	482b      	ldr	r0, [pc, #172]	; (6e68 <z_impl_k_mutex_lock+0x1e4>)
    6dbc:	f001 fe54 	bl	8a68 <z_spin_lock_valid>
    6dc0:	b968      	cbnz	r0, 6dde <z_impl_k_mutex_lock+0x15a>
    6dc2:	4a2a      	ldr	r2, [pc, #168]	; (6e6c <z_impl_k_mutex_lock+0x1e8>)
    6dc4:	492a      	ldr	r1, [pc, #168]	; (6e70 <z_impl_k_mutex_lock+0x1ec>)
    6dc6:	4826      	ldr	r0, [pc, #152]	; (6e60 <z_impl_k_mutex_lock+0x1dc>)
    6dc8:	2381      	movs	r3, #129	; 0x81
    6dca:	f003 f838 	bl	9e3e <printk>
    6dce:	4926      	ldr	r1, [pc, #152]	; (6e68 <z_impl_k_mutex_lock+0x1e4>)
    6dd0:	4828      	ldr	r0, [pc, #160]	; (6e74 <z_impl_k_mutex_lock+0x1f0>)
    6dd2:	f003 f834 	bl	9e3e <printk>
    6dd6:	4825      	ldr	r0, [pc, #148]	; (6e6c <z_impl_k_mutex_lock+0x1e8>)
    6dd8:	2181      	movs	r1, #129	; 0x81
    6dda:	f002 ff2d 	bl	9c38 <assert_post_action>
	z_spin_lock_set_owner(l);
    6dde:	4822      	ldr	r0, [pc, #136]	; (6e68 <z_impl_k_mutex_lock+0x1e4>)
    6de0:	f001 fe60 	bl	8aa4 <z_spin_lock_set_owner>
 * @return true if empty, false otherwise
 */

static inline bool sys_dlist_is_empty(sys_dlist_t *list)
{
	return list->head == list;
    6de4:	6823      	ldr	r3, [r4, #0]
    6de6:	6921      	ldr	r1, [r4, #16]
 * @return a pointer to the head element, NULL if list is empty
 */

static inline sys_dnode_t *sys_dlist_peek_head(sys_dlist_t *list)
{
	return sys_dlist_is_empty(list) ? NULL : list->head;
    6de8:	429c      	cmp	r4, r3
    6dea:	d00a      	beq.n	6e02 <z_impl_k_mutex_lock+0x17e>
		new_prio_for_inheritance(waiter->base.prio, mutex->owner_orig_prio) :
    6dec:	b14b      	cbz	r3, 6e02 <z_impl_k_mutex_lock+0x17e>
    6dee:	f993 300e 	ldrsb.w	r3, [r3, #14]
    6df2:	4299      	cmp	r1, r3
    6df4:	bfa8      	it	ge
    6df6:	4619      	movge	r1, r3
    6df8:	f06f 037e 	mvn.w	r3, #126	; 0x7e
    6dfc:	4299      	cmp	r1, r3
    6dfe:	bfb8      	it	lt
    6e00:	4619      	movlt	r1, r3
	resched = adjust_owner_prio(mutex, new_prio) || resched;
    6e02:	68a0      	ldr	r0, [r4, #8]
	if (mutex->owner->base.prio != new_prio) {
    6e04:	f990 300e 	ldrsb.w	r3, [r0, #14]
    6e08:	4299      	cmp	r1, r3
    6e0a:	d109      	bne.n	6e20 <z_impl_k_mutex_lock+0x19c>
	if (resched) {
    6e0c:	b16d      	cbz	r5, 6e2a <z_impl_k_mutex_lock+0x1a6>
		z_reschedule(&lock, key);
    6e0e:	4816      	ldr	r0, [pc, #88]	; (6e68 <z_impl_k_mutex_lock+0x1e4>)
    6e10:	4631      	mov	r1, r6
    6e12:	f000 fa95 	bl	7340 <z_reschedule>
	return -EAGAIN;
    6e16:	f06f 000a 	mvn.w	r0, #10
    6e1a:	e7a7      	b.n	6d6c <z_impl_k_mutex_lock+0xe8>
	bool resched = false;
    6e1c:	2500      	movs	r5, #0
    6e1e:	e7bb      	b.n	6d98 <z_impl_k_mutex_lock+0x114>
		return z_set_prio(mutex->owner, new_prio);
    6e20:	f000 ff10 	bl	7c44 <z_set_prio>
	resched = adjust_owner_prio(mutex, new_prio) || resched;
    6e24:	2800      	cmp	r0, #0
    6e26:	d1f2      	bne.n	6e0e <z_impl_k_mutex_lock+0x18a>
    6e28:	e7f0      	b.n	6e0c <z_impl_k_mutex_lock+0x188>
	__ASSERT(z_spin_unlock_valid(l), "Not my spinlock %p", l);
    6e2a:	480f      	ldr	r0, [pc, #60]	; (6e68 <z_impl_k_mutex_lock+0x1e4>)
    6e2c:	f001 fe2a 	bl	8a84 <z_spin_unlock_valid>
    6e30:	b968      	cbnz	r0, 6e4e <z_impl_k_mutex_lock+0x1ca>
    6e32:	4a0e      	ldr	r2, [pc, #56]	; (6e6c <z_impl_k_mutex_lock+0x1e8>)
    6e34:	4911      	ldr	r1, [pc, #68]	; (6e7c <z_impl_k_mutex_lock+0x1f8>)
    6e36:	480a      	ldr	r0, [pc, #40]	; (6e60 <z_impl_k_mutex_lock+0x1dc>)
    6e38:	23ac      	movs	r3, #172	; 0xac
    6e3a:	f003 f800 	bl	9e3e <printk>
    6e3e:	490a      	ldr	r1, [pc, #40]	; (6e68 <z_impl_k_mutex_lock+0x1e4>)
    6e40:	480f      	ldr	r0, [pc, #60]	; (6e80 <z_impl_k_mutex_lock+0x1fc>)
    6e42:	f002 fffc 	bl	9e3e <printk>
    6e46:	4809      	ldr	r0, [pc, #36]	; (6e6c <z_impl_k_mutex_lock+0x1e8>)
    6e48:	21ac      	movs	r1, #172	; 0xac
    6e4a:	f002 fef5 	bl	9c38 <assert_post_action>
	__asm__ volatile(
    6e4e:	f386 8811 	msr	BASEPRI, r6
    6e52:	f3bf 8f6f 	isb	sy
    6e56:	e7de      	b.n	6e16 <z_impl_k_mutex_lock+0x192>
    6e58:	0000c476 	.word	0x0000c476
    6e5c:	0000c454 	.word	0x0000c454
    6e60:	0000b2d3 	.word	0x0000b2d3
    6e64:	0000c488 	.word	0x0000c488
    6e68:	20000e74 	.word	0x20000e74
    6e6c:	0000ba96 	.word	0x0000ba96
    6e70:	0000bae8 	.word	0x0000bae8
    6e74:	0000bafd 	.word	0x0000bafd
    6e78:	20000e4c 	.word	0x20000e4c
    6e7c:	0000babc 	.word	0x0000babc
    6e80:	0000bad3 	.word	0x0000bad3

00006e84 <z_impl_k_mutex_unlock>:
}
#include <syscalls/k_mutex_lock_mrsh.c>
#endif

int z_impl_k_mutex_unlock(struct k_mutex *mutex)
{
    6e84:	b538      	push	{r3, r4, r5, lr}
    6e86:	4604      	mov	r4, r0
    6e88:	f3ef 8305 	mrs	r3, IPSR
	struct k_thread *new_owner;

	__ASSERT(!arch_is_in_isr(), "mutexes cannot be used inside ISRs");
    6e8c:	b163      	cbz	r3, 6ea8 <z_impl_k_mutex_unlock+0x24>
    6e8e:	4952      	ldr	r1, [pc, #328]	; (6fd8 <z_impl_k_mutex_unlock+0x154>)
    6e90:	4a52      	ldr	r2, [pc, #328]	; (6fdc <z_impl_k_mutex_unlock+0x158>)
    6e92:	4853      	ldr	r0, [pc, #332]	; (6fe0 <z_impl_k_mutex_unlock+0x15c>)
    6e94:	23c7      	movs	r3, #199	; 0xc7
    6e96:	f002 ffd2 	bl	9e3e <printk>
    6e9a:	4852      	ldr	r0, [pc, #328]	; (6fe4 <z_impl_k_mutex_unlock+0x160>)
    6e9c:	f002 ffcf 	bl	9e3e <printk>
    6ea0:	484e      	ldr	r0, [pc, #312]	; (6fdc <z_impl_k_mutex_unlock+0x158>)
    6ea2:	21c7      	movs	r1, #199	; 0xc7
    6ea4:	f002 fec8 	bl	9c38 <assert_post_action>

	SYS_PORT_TRACING_OBJ_FUNC_ENTER(k_mutex, unlock, mutex);

	CHECKIF(mutex->owner == NULL) {
    6ea8:	68a3      	ldr	r3, [r4, #8]
    6eaa:	2b00      	cmp	r3, #0
    6eac:	f000 808d 	beq.w	6fca <z_impl_k_mutex_unlock+0x146>
		return -EINVAL;
	}
	/*
	 * The current thread does not own the mutex.
	 */
	CHECKIF(mutex->owner != _current) {
    6eb0:	4d4d      	ldr	r5, [pc, #308]	; (6fe8 <z_impl_k_mutex_unlock+0x164>)
    6eb2:	68aa      	ldr	r2, [r5, #8]
    6eb4:	4293      	cmp	r3, r2
    6eb6:	f040 808b 	bne.w	6fd0 <z_impl_k_mutex_unlock+0x14c>
	 * Attempt to unlock a mutex which is unlocked. mutex->lock_count
	 * cannot be zero if the current thread is equal to mutex->owner,
	 * therefore no underflow check is required. Use assert to catch
	 * undefined behavior.
	 */
	__ASSERT_NO_MSG(mutex->lock_count > 0U);
    6eba:	68e3      	ldr	r3, [r4, #12]
    6ebc:	b94b      	cbnz	r3, 6ed2 <z_impl_k_mutex_unlock+0x4e>
    6ebe:	494b      	ldr	r1, [pc, #300]	; (6fec <z_impl_k_mutex_unlock+0x168>)
    6ec0:	4847      	ldr	r0, [pc, #284]	; (6fe0 <z_impl_k_mutex_unlock+0x15c>)
    6ec2:	4a46      	ldr	r2, [pc, #280]	; (6fdc <z_impl_k_mutex_unlock+0x158>)
    6ec4:	23df      	movs	r3, #223	; 0xdf
    6ec6:	f002 ffba 	bl	9e3e <printk>
    6eca:	4844      	ldr	r0, [pc, #272]	; (6fdc <z_impl_k_mutex_unlock+0x158>)
    6ecc:	21df      	movs	r1, #223	; 0xdf
    6ece:	f002 feb3 	bl	9c38 <assert_post_action>
    6ed2:	f3ef 8305 	mrs	r3, IPSR
	}
}

static inline void z_sched_lock(void)
{
	__ASSERT(!arch_is_in_isr(), "");
    6ed6:	b163      	cbz	r3, 6ef2 <z_impl_k_mutex_unlock+0x6e>
    6ed8:	493f      	ldr	r1, [pc, #252]	; (6fd8 <z_impl_k_mutex_unlock+0x154>)
    6eda:	4a45      	ldr	r2, [pc, #276]	; (6ff0 <z_impl_k_mutex_unlock+0x16c>)
    6edc:	4840      	ldr	r0, [pc, #256]	; (6fe0 <z_impl_k_mutex_unlock+0x15c>)
    6ede:	23fd      	movs	r3, #253	; 0xfd
    6ee0:	f002 ffad 	bl	9e3e <printk>
    6ee4:	4843      	ldr	r0, [pc, #268]	; (6ff4 <z_impl_k_mutex_unlock+0x170>)
    6ee6:	f002 ffaa 	bl	9e3e <printk>
    6eea:	4841      	ldr	r0, [pc, #260]	; (6ff0 <z_impl_k_mutex_unlock+0x16c>)
    6eec:	21fd      	movs	r1, #253	; 0xfd
    6eee:	f002 fea3 	bl	9c38 <assert_post_action>
	__ASSERT(_current->base.sched_locked != 1U, "");
    6ef2:	68ab      	ldr	r3, [r5, #8]
    6ef4:	7bdb      	ldrb	r3, [r3, #15]
    6ef6:	2b01      	cmp	r3, #1
    6ef8:	d10c      	bne.n	6f14 <z_impl_k_mutex_unlock+0x90>
    6efa:	493f      	ldr	r1, [pc, #252]	; (6ff8 <z_impl_k_mutex_unlock+0x174>)
    6efc:	4a3c      	ldr	r2, [pc, #240]	; (6ff0 <z_impl_k_mutex_unlock+0x16c>)
    6efe:	4838      	ldr	r0, [pc, #224]	; (6fe0 <z_impl_k_mutex_unlock+0x15c>)
    6f00:	23fe      	movs	r3, #254	; 0xfe
    6f02:	f002 ff9c 	bl	9e3e <printk>
    6f06:	483b      	ldr	r0, [pc, #236]	; (6ff4 <z_impl_k_mutex_unlock+0x170>)
    6f08:	f002 ff99 	bl	9e3e <printk>
    6f0c:	4838      	ldr	r0, [pc, #224]	; (6ff0 <z_impl_k_mutex_unlock+0x16c>)
    6f0e:	21fe      	movs	r1, #254	; 0xfe
    6f10:	f002 fe92 	bl	9c38 <assert_post_action>

	--_current->base.sched_locked;
    6f14:	68aa      	ldr	r2, [r5, #8]
    6f16:	7bd3      	ldrb	r3, [r2, #15]
    6f18:	3b01      	subs	r3, #1
    6f1a:	73d3      	strb	r3, [r2, #15]

	/*
	 * If we are the owner and count is greater than 1, then decrement
	 * the count and return and keep current thread as the owner.
	 */
	if (mutex->lock_count > 1U) {
    6f1c:	68e3      	ldr	r3, [r4, #12]
    6f1e:	2b01      	cmp	r3, #1
    6f20:	d905      	bls.n	6f2e <z_impl_k_mutex_unlock+0xaa>
		mutex->lock_count--;
    6f22:	3b01      	subs	r3, #1
    6f24:	60e3      	str	r3, [r4, #12]


k_mutex_unlock_return:
	SYS_PORT_TRACING_OBJ_FUNC_EXIT(k_mutex, unlock, mutex, 0);

	k_sched_unlock();
    6f26:	f000 ff93 	bl	7e50 <k_sched_unlock>

	return 0;
    6f2a:	2000      	movs	r0, #0
}
    6f2c:	bd38      	pop	{r3, r4, r5, pc}
	__asm__ volatile(
    6f2e:	f04f 0320 	mov.w	r3, #32
    6f32:	f3ef 8511 	mrs	r5, BASEPRI
    6f36:	f383 8812 	msr	BASEPRI_MAX, r3
    6f3a:	f3bf 8f6f 	isb	sy
	__ASSERT(z_spin_lock_valid(l), "Recursive spinlock %p", l);
    6f3e:	482f      	ldr	r0, [pc, #188]	; (6ffc <z_impl_k_mutex_unlock+0x178>)
    6f40:	f001 fd92 	bl	8a68 <z_spin_lock_valid>
    6f44:	b968      	cbnz	r0, 6f62 <z_impl_k_mutex_unlock+0xde>
    6f46:	4a2e      	ldr	r2, [pc, #184]	; (7000 <z_impl_k_mutex_unlock+0x17c>)
    6f48:	492e      	ldr	r1, [pc, #184]	; (7004 <z_impl_k_mutex_unlock+0x180>)
    6f4a:	4825      	ldr	r0, [pc, #148]	; (6fe0 <z_impl_k_mutex_unlock+0x15c>)
    6f4c:	2381      	movs	r3, #129	; 0x81
    6f4e:	f002 ff76 	bl	9e3e <printk>
    6f52:	492a      	ldr	r1, [pc, #168]	; (6ffc <z_impl_k_mutex_unlock+0x178>)
    6f54:	482c      	ldr	r0, [pc, #176]	; (7008 <z_impl_k_mutex_unlock+0x184>)
    6f56:	f002 ff72 	bl	9e3e <printk>
    6f5a:	4829      	ldr	r0, [pc, #164]	; (7000 <z_impl_k_mutex_unlock+0x17c>)
    6f5c:	2181      	movs	r1, #129	; 0x81
    6f5e:	f002 fe6b 	bl	9c38 <assert_post_action>
	z_spin_lock_set_owner(l);
    6f62:	4826      	ldr	r0, [pc, #152]	; (6ffc <z_impl_k_mutex_unlock+0x178>)
    6f64:	f001 fd9e 	bl	8aa4 <z_spin_lock_set_owner>
	adjust_owner_prio(mutex, mutex->owner_orig_prio);
    6f68:	68a0      	ldr	r0, [r4, #8]
    6f6a:	6921      	ldr	r1, [r4, #16]
	if (mutex->owner->base.prio != new_prio) {
    6f6c:	f990 300e 	ldrsb.w	r3, [r0, #14]
    6f70:	4299      	cmp	r1, r3
    6f72:	d001      	beq.n	6f78 <z_impl_k_mutex_unlock+0xf4>
		return z_set_prio(mutex->owner, new_prio);
    6f74:	f000 fe66 	bl	7c44 <z_set_prio>
	new_owner = z_unpend_first_thread(&mutex->wait_q);
    6f78:	4620      	mov	r0, r4
    6f7a:	f001 f831 	bl	7fe0 <z_unpend_first_thread>
	mutex->owner = new_owner;
    6f7e:	60a0      	str	r0, [r4, #8]
	if (new_owner != NULL) {
    6f80:	b158      	cbz	r0, 6f9a <z_impl_k_mutex_unlock+0x116>
		mutex->owner_orig_prio = new_owner->base.prio;
    6f82:	f990 200e 	ldrsb.w	r2, [r0, #14]
    6f86:	6122      	str	r2, [r4, #16]
    6f88:	2200      	movs	r2, #0
    6f8a:	67c2      	str	r2, [r0, #124]	; 0x7c
		z_ready_thread(new_owner);
    6f8c:	f000 fc78 	bl	7880 <z_ready_thread>
		z_reschedule(&lock, key);
    6f90:	481a      	ldr	r0, [pc, #104]	; (6ffc <z_impl_k_mutex_unlock+0x178>)
    6f92:	4629      	mov	r1, r5
    6f94:	f000 f9d4 	bl	7340 <z_reschedule>
    6f98:	e7c5      	b.n	6f26 <z_impl_k_mutex_unlock+0xa2>
		mutex->lock_count = 0U;
    6f9a:	60e0      	str	r0, [r4, #12]
	__ASSERT(z_spin_unlock_valid(l), "Not my spinlock %p", l);
    6f9c:	4817      	ldr	r0, [pc, #92]	; (6ffc <z_impl_k_mutex_unlock+0x178>)
    6f9e:	f001 fd71 	bl	8a84 <z_spin_unlock_valid>
    6fa2:	b968      	cbnz	r0, 6fc0 <z_impl_k_mutex_unlock+0x13c>
    6fa4:	4a16      	ldr	r2, [pc, #88]	; (7000 <z_impl_k_mutex_unlock+0x17c>)
    6fa6:	4919      	ldr	r1, [pc, #100]	; (700c <z_impl_k_mutex_unlock+0x188>)
    6fa8:	480d      	ldr	r0, [pc, #52]	; (6fe0 <z_impl_k_mutex_unlock+0x15c>)
    6faa:	23ac      	movs	r3, #172	; 0xac
    6fac:	f002 ff47 	bl	9e3e <printk>
    6fb0:	4912      	ldr	r1, [pc, #72]	; (6ffc <z_impl_k_mutex_unlock+0x178>)
    6fb2:	4817      	ldr	r0, [pc, #92]	; (7010 <z_impl_k_mutex_unlock+0x18c>)
    6fb4:	f002 ff43 	bl	9e3e <printk>
    6fb8:	4811      	ldr	r0, [pc, #68]	; (7000 <z_impl_k_mutex_unlock+0x17c>)
    6fba:	21ac      	movs	r1, #172	; 0xac
    6fbc:	f002 fe3c 	bl	9c38 <assert_post_action>
	__asm__ volatile(
    6fc0:	f385 8811 	msr	BASEPRI, r5
    6fc4:	f3bf 8f6f 	isb	sy
    6fc8:	e7ad      	b.n	6f26 <z_impl_k_mutex_unlock+0xa2>
		return -EINVAL;
    6fca:	f06f 0015 	mvn.w	r0, #21
    6fce:	e7ad      	b.n	6f2c <z_impl_k_mutex_unlock+0xa8>
		return -EPERM;
    6fd0:	f04f 30ff 	mov.w	r0, #4294967295
    6fd4:	e7aa      	b.n	6f2c <z_impl_k_mutex_unlock+0xa8>
    6fd6:	bf00      	nop
    6fd8:	0000c476 	.word	0x0000c476
    6fdc:	0000c454 	.word	0x0000c454
    6fe0:	0000b2d3 	.word	0x0000b2d3
    6fe4:	0000c488 	.word	0x0000c488
    6fe8:	20000e4c 	.word	0x20000e4c
    6fec:	0000c4ad 	.word	0x0000c4ad
    6ff0:	0000c4c4 	.word	0x0000c4c4
    6ff4:	0000c4ef 	.word	0x0000c4ef
    6ff8:	0000c4f2 	.word	0x0000c4f2
    6ffc:	20000e74 	.word	0x20000e74
    7000:	0000ba96 	.word	0x0000ba96
    7004:	0000bae8 	.word	0x0000bae8
    7008:	0000bafd 	.word	0x0000bafd
    700c:	0000babc 	.word	0x0000babc
    7010:	0000bad3 	.word	0x0000bad3

00007014 <signal_poll_event>:
#include <syscalls/k_poll_mrsh.c>
#endif

/* must be called with interrupts locked */
static int signal_poll_event(struct k_poll_event *event, uint32_t state)
{
    7014:	e92d 43f8 	stmdb	sp!, {r3, r4, r5, r6, r7, r8, r9, lr}
	struct z_poller *poller = event->poller;
    7018:	6884      	ldr	r4, [r0, #8]
{
    701a:	4605      	mov	r5, r0
    701c:	460e      	mov	r6, r1
	int retcode = 0;

	if (poller != NULL) {
    701e:	b1d4      	cbz	r4, 7056 <signal_poll_event+0x42>
		if (poller->mode == MODE_POLL) {
    7020:	7863      	ldrb	r3, [r4, #1]
    7022:	2b01      	cmp	r3, #1
    7024:	d14b      	bne.n	70be <signal_poll_event+0xaa>
	__ASSERT(thread != NULL, "poller should have a thread\n");
    7026:	f1b4 0760 	subs.w	r7, r4, #96	; 0x60
    702a:	d10e      	bne.n	704a <signal_poll_event+0x36>
    702c:	4a30      	ldr	r2, [pc, #192]	; (70f0 <signal_poll_event+0xdc>)
    702e:	4931      	ldr	r1, [pc, #196]	; (70f4 <signal_poll_event+0xe0>)
    7030:	4831      	ldr	r0, [pc, #196]	; (70f8 <signal_poll_event+0xe4>)
    7032:	23f9      	movs	r3, #249	; 0xf9
    7034:	f002 ff03 	bl	9e3e <printk>
    7038:	4830      	ldr	r0, [pc, #192]	; (70fc <signal_poll_event+0xe8>)
    703a:	f002 ff00 	bl	9e3e <printk>
    703e:	482c      	ldr	r0, [pc, #176]	; (70f0 <signal_poll_event+0xdc>)
    7040:	21f9      	movs	r1, #249	; 0xf9
    7042:	f002 fdf9 	bl	9c38 <assert_post_action>
	if (!z_is_thread_pending(thread)) {
    7046:	7b7b      	ldrb	r3, [r7, #13]
    7048:	deff      	udf	#255	; 0xff
    704a:	f814 3c53 	ldrb.w	r3, [r4, #-83]
    704e:	f013 0302 	ands.w	r3, r3, #2
    7052:	d10a      	bne.n	706a <signal_poll_event+0x56>
		} else {
			/* Poller is not poll or triggered mode. No action needed.*/
			;
		}

		poller->is_polling = false;
    7054:	7023      	strb	r3, [r4, #0]
	event->state |= state;
    7056:	68eb      	ldr	r3, [r5, #12]
    7058:	f3c3 3145 	ubfx	r1, r3, #13, #6
    705c:	430e      	orrs	r6, r1
	event->poller = NULL;
    705e:	2000      	movs	r0, #0
	event->state |= state;
    7060:	f366 3352 	bfi	r3, r6, #13, #6
	event->poller = NULL;
    7064:	60a8      	str	r0, [r5, #8]
	event->state |= state;
    7066:	60eb      	str	r3, [r5, #12]
			return retcode;
		}
	}

	set_event_ready(event, state);
	return retcode;
    7068:	e00d      	b.n	7086 <signal_poll_event+0x72>
	if (z_is_thread_timeout_expired(thread)) {
    706a:	e954 230e 	ldrd	r2, r3, [r4, #-56]	; 0x38
    706e:	f04f 31ff 	mov.w	r1, #4294967295
    7072:	f06f 0001 	mvn.w	r0, #1
    7076:	428b      	cmp	r3, r1
    7078:	bf08      	it	eq
    707a:	4282      	cmpeq	r2, r0
    707c:	d105      	bne.n	708a <signal_poll_event+0x76>
		poller->is_polling = false;
    707e:	2300      	movs	r3, #0
    7080:	7023      	strb	r3, [r4, #0]
		return -EAGAIN;
    7082:	f06f 000a 	mvn.w	r0, #10
}
    7086:	e8bd 83f8 	ldmia.w	sp!, {r3, r4, r5, r6, r7, r8, r9, pc}
	z_unpend_thread(thread);
    708a:	4638      	mov	r0, r7
    708c:	f000 fa54 	bl	7538 <z_unpend_thread>
	arch_thread_return_value_set(thread,
    7090:	2e08      	cmp	r6, #8
    7092:	bf0c      	ite	eq
    7094:	f06f 0303 	mvneq.w	r3, #3
    7098:	2300      	movne	r3, #0
    709a:	61e3      	str	r3, [r4, #28]
	return !((z_is_thread_prevented_from_running(thread)) != 0U ||
    709c:	f814 3c53 	ldrb.w	r3, [r4, #-83]
    70a0:	06db      	lsls	r3, r3, #27
    70a2:	d104      	bne.n	70ae <signal_poll_event+0x9a>
	if (!z_is_thread_ready(thread)) {
    70a4:	f854 8c48 	ldr.w	r8, [r4, #-72]
    70a8:	f1b8 0f00 	cmp.w	r8, #0
    70ac:	d001      	beq.n	70b2 <signal_poll_event+0x9e>
		poller->is_polling = false;
    70ae:	2300      	movs	r3, #0
    70b0:	e7d0      	b.n	7054 <signal_poll_event+0x40>
	z_ready_thread(thread);
    70b2:	4638      	mov	r0, r7
    70b4:	f000 fbe4 	bl	7880 <z_ready_thread>
		poller->is_polling = false;
    70b8:	f884 8000 	strb.w	r8, [r4]
		if (retcode < 0) {
    70bc:	e7cb      	b.n	7056 <signal_poll_event+0x42>
		} else if (poller->mode == MODE_TRIGGERED) {
    70be:	2b02      	cmp	r3, #2
    70c0:	d1f5      	bne.n	70ae <signal_poll_event+0x9a>
{
	struct z_poller *poller = event->poller;
	struct k_work_poll *twork =
		CONTAINER_OF(poller, struct k_work_poll, poller);

	if (poller->is_polling && twork->workq != NULL) {
    70c2:	7823      	ldrb	r3, [r4, #0]
    70c4:	2b00      	cmp	r3, #0
    70c6:	d0c6      	beq.n	7056 <signal_poll_event+0x42>
    70c8:	f854 7c04 	ldr.w	r7, [r4, #-4]
    70cc:	b177      	cbz	r7, 70ec <signal_poll_event+0xd8>
		struct k_work_q *work_q = twork->workq;

		z_abort_timeout(&twork->timeout);
    70ce:	f1a4 0914 	sub.w	r9, r4, #20
    70d2:	f104 0014 	add.w	r0, r4, #20
		twork->poll_result = 0;
    70d6:	f04f 0800 	mov.w	r8, #0
		z_abort_timeout(&twork->timeout);
    70da:	f001 fe0f 	bl	8cfc <z_abort_timeout>
		twork->poll_result = 0;
    70de:	f8c4 802c 	str.w	r8, [r4, #44]	; 0x2c
		k_work_submit_to_queue(work_q, &twork->work);
    70e2:	4649      	mov	r1, r9
    70e4:	4638      	mov	r0, r7
    70e6:	f002 fa97 	bl	9618 <k_work_submit_to_queue>
    70ea:	e7e5      	b.n	70b8 <signal_poll_event+0xa4>
		poller->is_polling = false;
    70ec:	7027      	strb	r7, [r4, #0]
		if (retcode < 0) {
    70ee:	e7b2      	b.n	7056 <signal_poll_event+0x42>
    70f0:	0000c523 	.word	0x0000c523
    70f4:	0000c61e 	.word	0x0000c61e
    70f8:	0000b2d3 	.word	0x0000b2d3
    70fc:	0000c634 	.word	0x0000c634

00007100 <z_impl_k_poll_signal_raise>:
{
    7100:	b570      	push	{r4, r5, r6, lr}
    7102:	4604      	mov	r4, r0
    7104:	460d      	mov	r5, r1
	__asm__ volatile(
    7106:	f04f 0320 	mov.w	r3, #32
    710a:	f3ef 8611 	mrs	r6, BASEPRI
    710e:	f383 8812 	msr	BASEPRI_MAX, r3
    7112:	f3bf 8f6f 	isb	sy
	__ASSERT(z_spin_lock_valid(l), "Recursive spinlock %p", l);
    7116:	4821      	ldr	r0, [pc, #132]	; (719c <z_impl_k_poll_signal_raise+0x9c>)
    7118:	f001 fca6 	bl	8a68 <z_spin_lock_valid>
    711c:	b968      	cbnz	r0, 713a <z_impl_k_poll_signal_raise+0x3a>
    711e:	4a20      	ldr	r2, [pc, #128]	; (71a0 <z_impl_k_poll_signal_raise+0xa0>)
    7120:	4920      	ldr	r1, [pc, #128]	; (71a4 <z_impl_k_poll_signal_raise+0xa4>)
    7122:	4821      	ldr	r0, [pc, #132]	; (71a8 <z_impl_k_poll_signal_raise+0xa8>)
    7124:	2381      	movs	r3, #129	; 0x81
    7126:	f002 fe8a 	bl	9e3e <printk>
    712a:	491c      	ldr	r1, [pc, #112]	; (719c <z_impl_k_poll_signal_raise+0x9c>)
    712c:	481f      	ldr	r0, [pc, #124]	; (71ac <z_impl_k_poll_signal_raise+0xac>)
    712e:	f002 fe86 	bl	9e3e <printk>
    7132:	481b      	ldr	r0, [pc, #108]	; (71a0 <z_impl_k_poll_signal_raise+0xa0>)
    7134:	2181      	movs	r1, #129	; 0x81
    7136:	f002 fd7f 	bl	9c38 <assert_post_action>
	z_spin_lock_set_owner(l);
    713a:	4818      	ldr	r0, [pc, #96]	; (719c <z_impl_k_poll_signal_raise+0x9c>)
    713c:	f001 fcb2 	bl	8aa4 <z_spin_lock_set_owner>
	return list->head == list;
    7140:	6820      	ldr	r0, [r4, #0]
	sig->result = result;
    7142:	60e5      	str	r5, [r4, #12]
	sig->signaled = 1U;
    7144:	2101      	movs	r1, #1

static inline sys_dnode_t *sys_dlist_get(sys_dlist_t *list)
{
	sys_dnode_t *node = NULL;

	if (!sys_dlist_is_empty(list)) {
    7146:	4284      	cmp	r4, r0
    7148:	60a1      	str	r1, [r4, #8]
    714a:	d117      	bne.n	717c <z_impl_k_poll_signal_raise+0x7c>
	__ASSERT(z_spin_unlock_valid(l), "Not my spinlock %p", l);
    714c:	4813      	ldr	r0, [pc, #76]	; (719c <z_impl_k_poll_signal_raise+0x9c>)
    714e:	f001 fc99 	bl	8a84 <z_spin_unlock_valid>
    7152:	b968      	cbnz	r0, 7170 <z_impl_k_poll_signal_raise+0x70>
    7154:	4a12      	ldr	r2, [pc, #72]	; (71a0 <z_impl_k_poll_signal_raise+0xa0>)
    7156:	4916      	ldr	r1, [pc, #88]	; (71b0 <z_impl_k_poll_signal_raise+0xb0>)
    7158:	4813      	ldr	r0, [pc, #76]	; (71a8 <z_impl_k_poll_signal_raise+0xa8>)
    715a:	23ac      	movs	r3, #172	; 0xac
    715c:	f002 fe6f 	bl	9e3e <printk>
    7160:	490e      	ldr	r1, [pc, #56]	; (719c <z_impl_k_poll_signal_raise+0x9c>)
    7162:	4814      	ldr	r0, [pc, #80]	; (71b4 <z_impl_k_poll_signal_raise+0xb4>)
    7164:	f002 fe6b 	bl	9e3e <printk>
    7168:	480d      	ldr	r0, [pc, #52]	; (71a0 <z_impl_k_poll_signal_raise+0xa0>)
    716a:	21ac      	movs	r1, #172	; 0xac
    716c:	f002 fd64 	bl	9c38 <assert_post_action>
	__asm__ volatile(
    7170:	f386 8811 	msr	BASEPRI, r6
    7174:	f3bf 8f6f 	isb	sy
		return 0;
    7178:	2400      	movs	r4, #0
    717a:	e00d      	b.n	7198 <z_impl_k_poll_signal_raise+0x98>
	sys_dnode_t *const next = node->next;
    717c:	e9d0 3200 	ldrd	r3, r2, [r0]
	prev->next = next;
    7180:	6013      	str	r3, [r2, #0]
	next->prev = prev;
    7182:	605a      	str	r2, [r3, #4]
	node->next = NULL;
    7184:	2300      	movs	r3, #0
	node->prev = NULL;
    7186:	e9c0 3300 	strd	r3, r3, [r0]
	int rc = signal_poll_event(poll_event, K_POLL_STATE_SIGNALED);
    718a:	f7ff ff43 	bl	7014 <signal_poll_event>
	z_reschedule(&lock, key);
    718e:	4631      	mov	r1, r6
	int rc = signal_poll_event(poll_event, K_POLL_STATE_SIGNALED);
    7190:	4604      	mov	r4, r0
	z_reschedule(&lock, key);
    7192:	4802      	ldr	r0, [pc, #8]	; (719c <z_impl_k_poll_signal_raise+0x9c>)
    7194:	f000 f8d4 	bl	7340 <z_reschedule>
}
    7198:	4620      	mov	r0, r4
    719a:	bd70      	pop	{r4, r5, r6, pc}
    719c:	20000e78 	.word	0x20000e78
    71a0:	0000ba96 	.word	0x0000ba96
    71a4:	0000bae8 	.word	0x0000bae8
    71a8:	0000b2d3 	.word	0x0000b2d3
    71ac:	0000bafd 	.word	0x0000bafd
    71b0:	0000babc 	.word	0x0000babc
    71b4:	0000bad3 	.word	0x0000bad3

000071b8 <z_reset_time_slice>:
 */
static struct k_thread *pending_current;
#endif

void z_reset_time_slice(void)
{
    71b8:	b510      	push	{r4, lr}
	/* Add the elapsed time since the last announced tick to the
	 * slice count, as we'll see those "expired" ticks arrive in a
	 * FUTURE z_time_slice() call.
	 */
	if (slice_time != 0) {
    71ba:	4c08      	ldr	r4, [pc, #32]	; (71dc <z_reset_time_slice+0x24>)
    71bc:	6823      	ldr	r3, [r4, #0]
    71be:	b15b      	cbz	r3, 71d8 <z_reset_time_slice+0x20>
		_current_cpu->slice_ticks = slice_time + sys_clock_elapsed();
    71c0:	f7fe f9e2 	bl	5588 <sys_clock_elapsed>
    71c4:	4603      	mov	r3, r0
    71c6:	6820      	ldr	r0, [r4, #0]
    71c8:	4a05      	ldr	r2, [pc, #20]	; (71e0 <z_reset_time_slice+0x28>)
    71ca:	4403      	add	r3, r0
		z_set_timeout_expiry(slice_time, false);
	}
}
    71cc:	e8bd 4010 	ldmia.w	sp!, {r4, lr}
		_current_cpu->slice_ticks = slice_time + sys_clock_elapsed();
    71d0:	6113      	str	r3, [r2, #16]
		z_set_timeout_expiry(slice_time, false);
    71d2:	2100      	movs	r1, #0
    71d4:	f001 be28 	b.w	8e28 <z_set_timeout_expiry>
}
    71d8:	bd10      	pop	{r4, pc}
    71da:	bf00      	nop
    71dc:	20000e88 	.word	0x20000e88
    71e0:	20000e4c 	.word	0x20000e4c

000071e4 <k_sched_time_slice_set>:

void k_sched_time_slice_set(int32_t slice, int prio)
{
    71e4:	b5f8      	push	{r3, r4, r5, r6, r7, lr}
    71e6:	4604      	mov	r4, r0
    71e8:	460d      	mov	r5, r1
	__asm__ volatile(
    71ea:	f04f 0320 	mov.w	r3, #32
    71ee:	f3ef 8611 	mrs	r6, BASEPRI
    71f2:	f383 8812 	msr	BASEPRI_MAX, r3
    71f6:	f3bf 8f6f 	isb	sy
	__ASSERT(z_spin_lock_valid(l), "Recursive spinlock %p", l);
    71fa:	4823      	ldr	r0, [pc, #140]	; (7288 <k_sched_time_slice_set+0xa4>)
    71fc:	f001 fc34 	bl	8a68 <z_spin_lock_valid>
    7200:	b968      	cbnz	r0, 721e <k_sched_time_slice_set+0x3a>
    7202:	4a22      	ldr	r2, [pc, #136]	; (728c <k_sched_time_slice_set+0xa8>)
    7204:	4922      	ldr	r1, [pc, #136]	; (7290 <k_sched_time_slice_set+0xac>)
    7206:	4823      	ldr	r0, [pc, #140]	; (7294 <k_sched_time_slice_set+0xb0>)
    7208:	2381      	movs	r3, #129	; 0x81
    720a:	f002 fe18 	bl	9e3e <printk>
    720e:	491e      	ldr	r1, [pc, #120]	; (7288 <k_sched_time_slice_set+0xa4>)
    7210:	4821      	ldr	r0, [pc, #132]	; (7298 <k_sched_time_slice_set+0xb4>)
    7212:	f002 fe14 	bl	9e3e <printk>
    7216:	481d      	ldr	r0, [pc, #116]	; (728c <k_sched_time_slice_set+0xa8>)
    7218:	2181      	movs	r1, #129	; 0x81
    721a:	f002 fd0d 	bl	9c38 <assert_post_action>
	z_spin_lock_set_owner(l);
    721e:	481a      	ldr	r0, [pc, #104]	; (7288 <k_sched_time_slice_set+0xa4>)
    7220:	f001 fc40 	bl	8aa4 <z_spin_lock_set_owner>
	LOCKED(&sched_spinlock) {
		_current_cpu->slice_ticks = 0;
    7224:	4b1d      	ldr	r3, [pc, #116]	; (729c <k_sched_time_slice_set+0xb8>)
    7226:	2200      	movs	r2, #0
			return (uint32_t)((t * to_hz + off) / from_hz);
    7228:	f44f 4700 	mov.w	r7, #32768	; 0x8000
    722c:	f240 30e7 	movw	r0, #999	; 0x3e7
    7230:	2100      	movs	r1, #0
    7232:	611a      	str	r2, [r3, #16]
    7234:	fbe7 0104 	umlal	r0, r1, r7, r4
    7238:	2300      	movs	r3, #0
    723a:	f44f 727a 	mov.w	r2, #1000	; 0x3e8
    723e:	f7f9 fdf3 	bl	e28 <__aeabi_uldivmod>
		slice_time = k_ms_to_ticks_ceil32(slice);
		if (IS_ENABLED(CONFIG_TICKLESS_KERNEL) && slice > 0) {
    7242:	2c00      	cmp	r4, #0
    7244:	4b16      	ldr	r3, [pc, #88]	; (72a0 <k_sched_time_slice_set+0xbc>)
    7246:	dc1b      	bgt.n	7280 <k_sched_time_slice_set+0x9c>
			/* It's not possible to reliably set a 1-tick
			 * timeout if ticks aren't regular.
			 */
			slice_time = MAX(2, slice_time);
    7248:	6018      	str	r0, [r3, #0]
		}
		slice_max_prio = prio;
    724a:	4b16      	ldr	r3, [pc, #88]	; (72a4 <k_sched_time_slice_set+0xc0>)
    724c:	601d      	str	r5, [r3, #0]
		z_reset_time_slice();
    724e:	f7ff ffb3 	bl	71b8 <z_reset_time_slice>
	__ASSERT(z_spin_unlock_valid(l), "Not my spinlock %p", l);
    7252:	480d      	ldr	r0, [pc, #52]	; (7288 <k_sched_time_slice_set+0xa4>)
    7254:	f001 fc16 	bl	8a84 <z_spin_unlock_valid>
    7258:	b968      	cbnz	r0, 7276 <k_sched_time_slice_set+0x92>
    725a:	4a0c      	ldr	r2, [pc, #48]	; (728c <k_sched_time_slice_set+0xa8>)
    725c:	4912      	ldr	r1, [pc, #72]	; (72a8 <k_sched_time_slice_set+0xc4>)
    725e:	480d      	ldr	r0, [pc, #52]	; (7294 <k_sched_time_slice_set+0xb0>)
    7260:	23ac      	movs	r3, #172	; 0xac
    7262:	f002 fdec 	bl	9e3e <printk>
    7266:	4908      	ldr	r1, [pc, #32]	; (7288 <k_sched_time_slice_set+0xa4>)
    7268:	4810      	ldr	r0, [pc, #64]	; (72ac <k_sched_time_slice_set+0xc8>)
    726a:	f002 fde8 	bl	9e3e <printk>
    726e:	4807      	ldr	r0, [pc, #28]	; (728c <k_sched_time_slice_set+0xa8>)
    7270:	21ac      	movs	r1, #172	; 0xac
    7272:	f002 fce1 	bl	9c38 <assert_post_action>
	__asm__ volatile(
    7276:	f386 8811 	msr	BASEPRI, r6
    727a:	f3bf 8f6f 	isb	sy
	}
}
    727e:	bdf8      	pop	{r3, r4, r5, r6, r7, pc}
			slice_time = MAX(2, slice_time);
    7280:	2802      	cmp	r0, #2
    7282:	bfb8      	it	lt
    7284:	2002      	movlt	r0, #2
    7286:	e7df      	b.n	7248 <k_sched_time_slice_set+0x64>
    7288:	20000e80 	.word	0x20000e80
    728c:	0000ba96 	.word	0x0000ba96
    7290:	0000bae8 	.word	0x0000bae8
    7294:	0000b2d3 	.word	0x0000b2d3
    7298:	0000bafd 	.word	0x0000bafd
    729c:	20000e4c 	.word	0x20000e4c
    72a0:	20000e88 	.word	0x20000e88
    72a4:	20000e84 	.word	0x20000e84
    72a8:	0000babc 	.word	0x0000babc
    72ac:	0000bad3 	.word	0x0000bad3

000072b0 <z_unpend_thread_no_timeout>:
	z_mark_thread_as_not_pending(thread);
	thread->base.pended_on = NULL;
}

ALWAYS_INLINE void z_unpend_thread_no_timeout(struct k_thread *thread)
{
    72b0:	b538      	push	{r3, r4, r5, lr}
    72b2:	4604      	mov	r4, r0
	__asm__ volatile(
    72b4:	f04f 0320 	mov.w	r3, #32
    72b8:	f3ef 8511 	mrs	r5, BASEPRI
    72bc:	f383 8812 	msr	BASEPRI_MAX, r3
    72c0:	f3bf 8f6f 	isb	sy
	__ASSERT(z_spin_lock_valid(l), "Recursive spinlock %p", l);
    72c4:	4817      	ldr	r0, [pc, #92]	; (7324 <z_unpend_thread_no_timeout+0x74>)
    72c6:	f001 fbcf 	bl	8a68 <z_spin_lock_valid>
    72ca:	b968      	cbnz	r0, 72e8 <z_unpend_thread_no_timeout+0x38>
    72cc:	4a16      	ldr	r2, [pc, #88]	; (7328 <z_unpend_thread_no_timeout+0x78>)
    72ce:	4917      	ldr	r1, [pc, #92]	; (732c <z_unpend_thread_no_timeout+0x7c>)
    72d0:	4817      	ldr	r0, [pc, #92]	; (7330 <z_unpend_thread_no_timeout+0x80>)
    72d2:	2381      	movs	r3, #129	; 0x81
    72d4:	f002 fdb3 	bl	9e3e <printk>
    72d8:	4912      	ldr	r1, [pc, #72]	; (7324 <z_unpend_thread_no_timeout+0x74>)
    72da:	4816      	ldr	r0, [pc, #88]	; (7334 <z_unpend_thread_no_timeout+0x84>)
    72dc:	f002 fdaf 	bl	9e3e <printk>
    72e0:	4811      	ldr	r0, [pc, #68]	; (7328 <z_unpend_thread_no_timeout+0x78>)
    72e2:	2181      	movs	r1, #129	; 0x81
    72e4:	f002 fca8 	bl	9c38 <assert_post_action>
	z_spin_lock_set_owner(l);
    72e8:	480e      	ldr	r0, [pc, #56]	; (7324 <z_unpend_thread_no_timeout+0x74>)
    72ea:	f001 fbdb 	bl	8aa4 <z_spin_lock_set_owner>
	LOCKED(&sched_spinlock) {
		unpend_thread_no_timeout(thread);
    72ee:	4620      	mov	r0, r4
    72f0:	f000 f900 	bl	74f4 <unpend_thread_no_timeout>
	__ASSERT(z_spin_unlock_valid(l), "Not my spinlock %p", l);
    72f4:	480b      	ldr	r0, [pc, #44]	; (7324 <z_unpend_thread_no_timeout+0x74>)
    72f6:	f001 fbc5 	bl	8a84 <z_spin_unlock_valid>
    72fa:	b968      	cbnz	r0, 7318 <z_unpend_thread_no_timeout+0x68>
    72fc:	4a0a      	ldr	r2, [pc, #40]	; (7328 <z_unpend_thread_no_timeout+0x78>)
    72fe:	490e      	ldr	r1, [pc, #56]	; (7338 <z_unpend_thread_no_timeout+0x88>)
    7300:	480b      	ldr	r0, [pc, #44]	; (7330 <z_unpend_thread_no_timeout+0x80>)
    7302:	23ac      	movs	r3, #172	; 0xac
    7304:	f002 fd9b 	bl	9e3e <printk>
    7308:	4906      	ldr	r1, [pc, #24]	; (7324 <z_unpend_thread_no_timeout+0x74>)
    730a:	480c      	ldr	r0, [pc, #48]	; (733c <z_unpend_thread_no_timeout+0x8c>)
    730c:	f002 fd97 	bl	9e3e <printk>
    7310:	4805      	ldr	r0, [pc, #20]	; (7328 <z_unpend_thread_no_timeout+0x78>)
    7312:	21ac      	movs	r1, #172	; 0xac
    7314:	f002 fc90 	bl	9c38 <assert_post_action>
	__asm__ volatile(
    7318:	f385 8811 	msr	BASEPRI, r5
    731c:	f3bf 8f6f 	isb	sy
	}
}
    7320:	bd38      	pop	{r3, r4, r5, pc}
    7322:	bf00      	nop
    7324:	20000e80 	.word	0x20000e80
    7328:	0000ba96 	.word	0x0000ba96
    732c:	0000bae8 	.word	0x0000bae8
    7330:	0000b2d3 	.word	0x0000b2d3
    7334:	0000bafd 	.word	0x0000bafd
    7338:	0000babc 	.word	0x0000babc
    733c:	0000bad3 	.word	0x0000bad3

00007340 <z_reschedule>:
	return new_thread != _current;
#endif
}

void z_reschedule(struct k_spinlock *lock, k_spinlock_key_t key)
{
    7340:	b538      	push	{r3, r4, r5, lr}
    7342:	4604      	mov	r4, r0
	return arch_irq_unlocked(key) && !arch_is_in_isr();
    7344:	460d      	mov	r5, r1
    7346:	b9e9      	cbnz	r1, 7384 <z_reschedule+0x44>
    7348:	f3ef 8305 	mrs	r3, IPSR
	if (resched(key.key) && need_swap()) {
    734c:	b9d3      	cbnz	r3, 7384 <z_reschedule+0x44>
	new_thread = _kernel.ready_q.cache;
    734e:	4b19      	ldr	r3, [pc, #100]	; (73b4 <z_reschedule+0x74>)
	if (resched(key.key) && need_swap()) {
    7350:	69da      	ldr	r2, [r3, #28]
    7352:	689b      	ldr	r3, [r3, #8]
    7354:	429a      	cmp	r2, r3
    7356:	d015      	beq.n	7384 <z_reschedule+0x44>
 */
static ALWAYS_INLINE void k_spin_release(struct k_spinlock *l)
{
	ARG_UNUSED(l);
#ifdef CONFIG_SPIN_VALIDATE
	__ASSERT(z_spin_unlock_valid(l), "Not my spinlock %p", l);
    7358:	f001 fb94 	bl	8a84 <z_spin_unlock_valid>
    735c:	b968      	cbnz	r0, 737a <z_reschedule+0x3a>
    735e:	4a16      	ldr	r2, [pc, #88]	; (73b8 <z_reschedule+0x78>)
    7360:	4916      	ldr	r1, [pc, #88]	; (73bc <z_reschedule+0x7c>)
    7362:	4817      	ldr	r0, [pc, #92]	; (73c0 <z_reschedule+0x80>)
    7364:	23c3      	movs	r3, #195	; 0xc3
    7366:	f002 fd6a 	bl	9e3e <printk>
    736a:	4816      	ldr	r0, [pc, #88]	; (73c4 <z_reschedule+0x84>)
    736c:	4621      	mov	r1, r4
    736e:	f002 fd66 	bl	9e3e <printk>
    7372:	4811      	ldr	r0, [pc, #68]	; (73b8 <z_reschedule+0x78>)
    7374:	21c3      	movs	r1, #195	; 0xc3
    7376:	f002 fc5f 	bl	9c38 <assert_post_action>
		z_swap(lock, key);
	} else {
		k_spin_unlock(lock, key);
	}
}
    737a:	e8bd 4038 	ldmia.w	sp!, {r3, r4, r5, lr}
	ret = arch_swap(key);
    737e:	2000      	movs	r0, #0
    7380:	f7fc b862 	b.w	3448 <arch_swap>
	__ASSERT(z_spin_unlock_valid(l), "Not my spinlock %p", l);
    7384:	4620      	mov	r0, r4
    7386:	f001 fb7d 	bl	8a84 <z_spin_unlock_valid>
    738a:	b968      	cbnz	r0, 73a8 <z_reschedule+0x68>
    738c:	4a0a      	ldr	r2, [pc, #40]	; (73b8 <z_reschedule+0x78>)
    738e:	490b      	ldr	r1, [pc, #44]	; (73bc <z_reschedule+0x7c>)
    7390:	480b      	ldr	r0, [pc, #44]	; (73c0 <z_reschedule+0x80>)
    7392:	23ac      	movs	r3, #172	; 0xac
    7394:	f002 fd53 	bl	9e3e <printk>
    7398:	480a      	ldr	r0, [pc, #40]	; (73c4 <z_reschedule+0x84>)
    739a:	4621      	mov	r1, r4
    739c:	f002 fd4f 	bl	9e3e <printk>
    73a0:	4805      	ldr	r0, [pc, #20]	; (73b8 <z_reschedule+0x78>)
    73a2:	21ac      	movs	r1, #172	; 0xac
    73a4:	f002 fc48 	bl	9c38 <assert_post_action>
    73a8:	f385 8811 	msr	BASEPRI, r5
    73ac:	f3bf 8f6f 	isb	sy
    73b0:	bd38      	pop	{r3, r4, r5, pc}
    73b2:	bf00      	nop
    73b4:	20000e4c 	.word	0x20000e4c
    73b8:	0000ba96 	.word	0x0000ba96
    73bc:	0000babc 	.word	0x0000babc
    73c0:	0000b2d3 	.word	0x0000b2d3
    73c4:	0000bad3 	.word	0x0000bad3

000073c8 <k_sched_lock>:
		irq_unlock(key);
	}
}

void k_sched_lock(void)
{
    73c8:	b538      	push	{r3, r4, r5, lr}
	__asm__ volatile(
    73ca:	f04f 0320 	mov.w	r3, #32
    73ce:	f3ef 8511 	mrs	r5, BASEPRI
    73d2:	f383 8812 	msr	BASEPRI_MAX, r3
    73d6:	f3bf 8f6f 	isb	sy
	__ASSERT(z_spin_lock_valid(l), "Recursive spinlock %p", l);
    73da:	4829      	ldr	r0, [pc, #164]	; (7480 <k_sched_lock+0xb8>)
    73dc:	f001 fb44 	bl	8a68 <z_spin_lock_valid>
    73e0:	b968      	cbnz	r0, 73fe <k_sched_lock+0x36>
    73e2:	4a28      	ldr	r2, [pc, #160]	; (7484 <k_sched_lock+0xbc>)
    73e4:	4928      	ldr	r1, [pc, #160]	; (7488 <k_sched_lock+0xc0>)
    73e6:	4829      	ldr	r0, [pc, #164]	; (748c <k_sched_lock+0xc4>)
    73e8:	2381      	movs	r3, #129	; 0x81
    73ea:	f002 fd28 	bl	9e3e <printk>
    73ee:	4924      	ldr	r1, [pc, #144]	; (7480 <k_sched_lock+0xb8>)
    73f0:	4827      	ldr	r0, [pc, #156]	; (7490 <k_sched_lock+0xc8>)
    73f2:	f002 fd24 	bl	9e3e <printk>
    73f6:	4823      	ldr	r0, [pc, #140]	; (7484 <k_sched_lock+0xbc>)
    73f8:	2181      	movs	r1, #129	; 0x81
    73fa:	f002 fc1d 	bl	9c38 <assert_post_action>
	z_spin_lock_set_owner(l);
    73fe:	4820      	ldr	r0, [pc, #128]	; (7480 <k_sched_lock+0xb8>)
    7400:	f001 fb50 	bl	8aa4 <z_spin_lock_set_owner>
    7404:	f3ef 8305 	mrs	r3, IPSR
	__ASSERT(!arch_is_in_isr(), "");
    7408:	b163      	cbz	r3, 7424 <k_sched_lock+0x5c>
    740a:	4922      	ldr	r1, [pc, #136]	; (7494 <k_sched_lock+0xcc>)
    740c:	4a22      	ldr	r2, [pc, #136]	; (7498 <k_sched_lock+0xd0>)
    740e:	481f      	ldr	r0, [pc, #124]	; (748c <k_sched_lock+0xc4>)
    7410:	23fd      	movs	r3, #253	; 0xfd
    7412:	f002 fd14 	bl	9e3e <printk>
    7416:	4821      	ldr	r0, [pc, #132]	; (749c <k_sched_lock+0xd4>)
    7418:	f002 fd11 	bl	9e3e <printk>
    741c:	481e      	ldr	r0, [pc, #120]	; (7498 <k_sched_lock+0xd0>)
    741e:	21fd      	movs	r1, #253	; 0xfd
    7420:	f002 fc0a 	bl	9c38 <assert_post_action>
	__ASSERT(_current->base.sched_locked != 1U, "");
    7424:	4c1e      	ldr	r4, [pc, #120]	; (74a0 <k_sched_lock+0xd8>)
    7426:	68a2      	ldr	r2, [r4, #8]
    7428:	7bd2      	ldrb	r2, [r2, #15]
    742a:	2a01      	cmp	r2, #1
    742c:	d10c      	bne.n	7448 <k_sched_lock+0x80>
    742e:	491d      	ldr	r1, [pc, #116]	; (74a4 <k_sched_lock+0xdc>)
    7430:	4a19      	ldr	r2, [pc, #100]	; (7498 <k_sched_lock+0xd0>)
    7432:	4816      	ldr	r0, [pc, #88]	; (748c <k_sched_lock+0xc4>)
    7434:	23fe      	movs	r3, #254	; 0xfe
    7436:	f002 fd02 	bl	9e3e <printk>
    743a:	4818      	ldr	r0, [pc, #96]	; (749c <k_sched_lock+0xd4>)
    743c:	f002 fcff 	bl	9e3e <printk>
    7440:	4815      	ldr	r0, [pc, #84]	; (7498 <k_sched_lock+0xd0>)
    7442:	21fe      	movs	r1, #254	; 0xfe
    7444:	f002 fbf8 	bl	9c38 <assert_post_action>
	--_current->base.sched_locked;
    7448:	68a2      	ldr	r2, [r4, #8]
    744a:	7bd3      	ldrb	r3, [r2, #15]
    744c:	3b01      	subs	r3, #1
    744e:	73d3      	strb	r3, [r2, #15]
	__ASSERT(z_spin_unlock_valid(l), "Not my spinlock %p", l);
    7450:	480b      	ldr	r0, [pc, #44]	; (7480 <k_sched_lock+0xb8>)
    7452:	f001 fb17 	bl	8a84 <z_spin_unlock_valid>
    7456:	b968      	cbnz	r0, 7474 <k_sched_lock+0xac>
    7458:	4a0a      	ldr	r2, [pc, #40]	; (7484 <k_sched_lock+0xbc>)
    745a:	4913      	ldr	r1, [pc, #76]	; (74a8 <k_sched_lock+0xe0>)
    745c:	480b      	ldr	r0, [pc, #44]	; (748c <k_sched_lock+0xc4>)
    745e:	23ac      	movs	r3, #172	; 0xac
    7460:	f002 fced 	bl	9e3e <printk>
    7464:	4906      	ldr	r1, [pc, #24]	; (7480 <k_sched_lock+0xb8>)
    7466:	4811      	ldr	r0, [pc, #68]	; (74ac <k_sched_lock+0xe4>)
    7468:	f002 fce9 	bl	9e3e <printk>
    746c:	4805      	ldr	r0, [pc, #20]	; (7484 <k_sched_lock+0xbc>)
    746e:	21ac      	movs	r1, #172	; 0xac
    7470:	f002 fbe2 	bl	9c38 <assert_post_action>
	__asm__ volatile(
    7474:	f385 8811 	msr	BASEPRI, r5
    7478:	f3bf 8f6f 	isb	sy
	LOCKED(&sched_spinlock) {
		SYS_PORT_TRACING_FUNC(k_thread, sched_lock);

		z_sched_lock();
	}
}
    747c:	bd38      	pop	{r3, r4, r5, pc}
    747e:	bf00      	nop
    7480:	20000e80 	.word	0x20000e80
    7484:	0000ba96 	.word	0x0000ba96
    7488:	0000bae8 	.word	0x0000bae8
    748c:	0000b2d3 	.word	0x0000b2d3
    7490:	0000bafd 	.word	0x0000bafd
    7494:	0000c476 	.word	0x0000c476
    7498:	0000c4c4 	.word	0x0000c4c4
    749c:	0000c4ef 	.word	0x0000c4ef
    74a0:	20000e4c 	.word	0x20000e4c
    74a4:	0000c4f2 	.word	0x0000c4f2
    74a8:	0000babc 	.word	0x0000babc
    74ac:	0000bad3 	.word	0x0000bad3

000074b0 <z_priq_dumb_remove>:
}
#endif

void z_priq_dumb_remove(sys_dlist_t *pq, struct k_thread *thread)
{
	__ASSERT_NO_MSG(!z_is_idle_thread_object(thread));
    74b0:	4b0c      	ldr	r3, [pc, #48]	; (74e4 <z_priq_dumb_remove+0x34>)
    74b2:	4299      	cmp	r1, r3
{
    74b4:	b510      	push	{r4, lr}
    74b6:	460c      	mov	r4, r1
	__ASSERT_NO_MSG(!z_is_idle_thread_object(thread));
    74b8:	d10b      	bne.n	74d2 <z_priq_dumb_remove+0x22>
    74ba:	490b      	ldr	r1, [pc, #44]	; (74e8 <z_priq_dumb_remove+0x38>)
    74bc:	480b      	ldr	r0, [pc, #44]	; (74ec <z_priq_dumb_remove+0x3c>)
    74be:	4a0c      	ldr	r2, [pc, #48]	; (74f0 <z_priq_dumb_remove+0x40>)
    74c0:	f240 33e7 	movw	r3, #999	; 0x3e7
    74c4:	f002 fcbb 	bl	9e3e <printk>
    74c8:	4809      	ldr	r0, [pc, #36]	; (74f0 <z_priq_dumb_remove+0x40>)
    74ca:	f240 31e7 	movw	r1, #999	; 0x3e7
    74ce:	f002 fbb3 	bl	9c38 <assert_post_action>
	sys_dnode_t *const next = node->next;
    74d2:	e9d4 3200 	ldrd	r3, r2, [r4]
	prev->next = next;
    74d6:	6013      	str	r3, [r2, #0]
	next->prev = prev;
    74d8:	605a      	str	r2, [r3, #4]
	node->next = NULL;
    74da:	2300      	movs	r3, #0
	node->prev = NULL;
    74dc:	e9c4 3300 	strd	r3, r3, [r4]

	sys_dlist_remove(&thread->base.qnode_dlist);
}
    74e0:	bd10      	pop	{r4, pc}
    74e2:	bf00      	nop
    74e4:	20000540 	.word	0x20000540
    74e8:	0000c675 	.word	0x0000c675
    74ec:	0000b2d3 	.word	0x0000b2d3
    74f0:	0000c653 	.word	0x0000c653

000074f4 <unpend_thread_no_timeout>:
	__ASSERT_NO_MSG(thread->base.pended_on);
    74f4:	6883      	ldr	r3, [r0, #8]
{
    74f6:	b510      	push	{r4, lr}
    74f8:	4604      	mov	r4, r0
	__ASSERT_NO_MSG(thread->base.pended_on);
    74fa:	b95b      	cbnz	r3, 7514 <unpend_thread_no_timeout+0x20>
    74fc:	490b      	ldr	r1, [pc, #44]	; (752c <unpend_thread_no_timeout+0x38>)
    74fe:	480c      	ldr	r0, [pc, #48]	; (7530 <unpend_thread_no_timeout+0x3c>)
    7500:	4a0c      	ldr	r2, [pc, #48]	; (7534 <unpend_thread_no_timeout+0x40>)
    7502:	f240 2383 	movw	r3, #643	; 0x283
    7506:	f002 fc9a 	bl	9e3e <printk>
    750a:	480a      	ldr	r0, [pc, #40]	; (7534 <unpend_thread_no_timeout+0x40>)
    750c:	f240 2183 	movw	r1, #643	; 0x283
    7510:	f002 fb92 	bl	9c38 <assert_post_action>
	_priq_wait_remove(&pended_on_thread(thread)->waitq, thread);
    7514:	68a0      	ldr	r0, [r4, #8]
    7516:	4621      	mov	r1, r4
    7518:	f7ff ffca 	bl	74b0 <z_priq_dumb_remove>
	thread->base.thread_state &= ~_THREAD_PENDING;
    751c:	7b63      	ldrb	r3, [r4, #13]
    751e:	f023 0302 	bic.w	r3, r3, #2
    7522:	7363      	strb	r3, [r4, #13]
	thread->base.pended_on = NULL;
    7524:	2300      	movs	r3, #0
    7526:	60a3      	str	r3, [r4, #8]
}
    7528:	bd10      	pop	{r4, pc}
    752a:	bf00      	nop
    752c:	0000c696 	.word	0x0000c696
    7530:	0000b2d3 	.word	0x0000b2d3
    7534:	0000c653 	.word	0x0000c653

00007538 <z_unpend_thread>:
{
    7538:	b538      	push	{r3, r4, r5, lr}
    753a:	4604      	mov	r4, r0
	__asm__ volatile(
    753c:	f04f 0320 	mov.w	r3, #32
    7540:	f3ef 8511 	mrs	r5, BASEPRI
    7544:	f383 8812 	msr	BASEPRI_MAX, r3
    7548:	f3bf 8f6f 	isb	sy
	__ASSERT(z_spin_lock_valid(l), "Recursive spinlock %p", l);
    754c:	4819      	ldr	r0, [pc, #100]	; (75b4 <z_unpend_thread+0x7c>)
    754e:	f001 fa8b 	bl	8a68 <z_spin_lock_valid>
    7552:	b968      	cbnz	r0, 7570 <z_unpend_thread+0x38>
    7554:	4a18      	ldr	r2, [pc, #96]	; (75b8 <z_unpend_thread+0x80>)
    7556:	4919      	ldr	r1, [pc, #100]	; (75bc <z_unpend_thread+0x84>)
    7558:	4819      	ldr	r0, [pc, #100]	; (75c0 <z_unpend_thread+0x88>)
    755a:	2381      	movs	r3, #129	; 0x81
    755c:	f002 fc6f 	bl	9e3e <printk>
    7560:	4914      	ldr	r1, [pc, #80]	; (75b4 <z_unpend_thread+0x7c>)
    7562:	4818      	ldr	r0, [pc, #96]	; (75c4 <z_unpend_thread+0x8c>)
    7564:	f002 fc6b 	bl	9e3e <printk>
    7568:	4813      	ldr	r0, [pc, #76]	; (75b8 <z_unpend_thread+0x80>)
    756a:	2181      	movs	r1, #129	; 0x81
    756c:	f002 fb64 	bl	9c38 <assert_post_action>
	z_spin_lock_set_owner(l);
    7570:	4810      	ldr	r0, [pc, #64]	; (75b4 <z_unpend_thread+0x7c>)
    7572:	f001 fa97 	bl	8aa4 <z_spin_lock_set_owner>
		unpend_thread_no_timeout(thread);
    7576:	4620      	mov	r0, r4
    7578:	f7ff ffbc 	bl	74f4 <unpend_thread_no_timeout>
	__ASSERT(z_spin_unlock_valid(l), "Not my spinlock %p", l);
    757c:	480d      	ldr	r0, [pc, #52]	; (75b4 <z_unpend_thread+0x7c>)
    757e:	f001 fa81 	bl	8a84 <z_spin_unlock_valid>
    7582:	b968      	cbnz	r0, 75a0 <z_unpend_thread+0x68>
    7584:	4a0c      	ldr	r2, [pc, #48]	; (75b8 <z_unpend_thread+0x80>)
    7586:	4910      	ldr	r1, [pc, #64]	; (75c8 <z_unpend_thread+0x90>)
    7588:	480d      	ldr	r0, [pc, #52]	; (75c0 <z_unpend_thread+0x88>)
    758a:	23ac      	movs	r3, #172	; 0xac
    758c:	f002 fc57 	bl	9e3e <printk>
    7590:	4908      	ldr	r1, [pc, #32]	; (75b4 <z_unpend_thread+0x7c>)
    7592:	480e      	ldr	r0, [pc, #56]	; (75cc <z_unpend_thread+0x94>)
    7594:	f002 fc53 	bl	9e3e <printk>
    7598:	4807      	ldr	r0, [pc, #28]	; (75b8 <z_unpend_thread+0x80>)
    759a:	21ac      	movs	r1, #172	; 0xac
    759c:	f002 fb4c 	bl	9c38 <assert_post_action>
	__asm__ volatile(
    75a0:	f385 8811 	msr	BASEPRI, r5
    75a4:	f3bf 8f6f 	isb	sy
	z_add_timeout(&thread->base.timeout, z_thread_timeout, ticks);
}

static inline int z_abort_thread_timeout(struct k_thread *thread)
{
	return z_abort_timeout(&thread->base.timeout);
    75a8:	f104 0018 	add.w	r0, r4, #24
}
    75ac:	e8bd 4038 	ldmia.w	sp!, {r3, r4, r5, lr}
    75b0:	f001 bba4 	b.w	8cfc <z_abort_timeout>
    75b4:	20000e80 	.word	0x20000e80
    75b8:	0000ba96 	.word	0x0000ba96
    75bc:	0000bae8 	.word	0x0000bae8
    75c0:	0000b2d3 	.word	0x0000b2d3
    75c4:	0000bafd 	.word	0x0000bafd
    75c8:	0000babc 	.word	0x0000babc
    75cc:	0000bad3 	.word	0x0000bad3

000075d0 <update_cache>:
{
    75d0:	b538      	push	{r3, r4, r5, lr}
    75d2:	4602      	mov	r2, r0
	return _priq_run_best(curr_cpu_runq());
    75d4:	4814      	ldr	r0, [pc, #80]	; (7628 <update_cache+0x58>)
    75d6:	4d15      	ldr	r5, [pc, #84]	; (762c <update_cache+0x5c>)
    75d8:	f003 fb30 	bl	ac3c <z_priq_dumb_best>
	return (thread != NULL) ? thread : _current_cpu->idle_thread;
    75dc:	4604      	mov	r4, r0
    75de:	b900      	cbnz	r0, 75e2 <update_cache+0x12>
    75e0:	68ec      	ldr	r4, [r5, #12]
	if (preempt_ok != 0) {
    75e2:	b9ca      	cbnz	r2, 7618 <update_cache+0x48>
	__ASSERT(_current != NULL, "");
    75e4:	68ab      	ldr	r3, [r5, #8]
    75e6:	b963      	cbnz	r3, 7602 <update_cache+0x32>
    75e8:	4911      	ldr	r1, [pc, #68]	; (7630 <update_cache+0x60>)
    75ea:	4a12      	ldr	r2, [pc, #72]	; (7634 <update_cache+0x64>)
    75ec:	4812      	ldr	r0, [pc, #72]	; (7638 <update_cache+0x68>)
    75ee:	2389      	movs	r3, #137	; 0x89
    75f0:	f002 fc25 	bl	9e3e <printk>
    75f4:	4811      	ldr	r0, [pc, #68]	; (763c <update_cache+0x6c>)
    75f6:	f002 fc22 	bl	9e3e <printk>
    75fa:	480e      	ldr	r0, [pc, #56]	; (7634 <update_cache+0x64>)
    75fc:	2189      	movs	r1, #137	; 0x89
    75fe:	f002 fb1b 	bl	9c38 <assert_post_action>
	if (z_is_thread_prevented_from_running(_current)) {
    7602:	68ab      	ldr	r3, [r5, #8]
    7604:	7b5a      	ldrb	r2, [r3, #13]
    7606:	06d2      	lsls	r2, r2, #27
    7608:	d106      	bne.n	7618 <update_cache+0x48>
	if (IS_ENABLED(CONFIG_SWAP_NONATOMIC)
    760a:	69a2      	ldr	r2, [r4, #24]
    760c:	b922      	cbnz	r2, 7618 <update_cache+0x48>
	if (is_preempt(_current) || is_metairq(thread)) {
    760e:	89da      	ldrh	r2, [r3, #14]
    7610:	2a7f      	cmp	r2, #127	; 0x7f
    7612:	d901      	bls.n	7618 <update_cache+0x48>
		_kernel.ready_q.cache = _current;
    7614:	61eb      	str	r3, [r5, #28]
}
    7616:	bd38      	pop	{r3, r4, r5, pc}
		if (thread != _current) {
    7618:	68ab      	ldr	r3, [r5, #8]
    761a:	42a3      	cmp	r3, r4
    761c:	d001      	beq.n	7622 <update_cache+0x52>
			z_reset_time_slice();
    761e:	f7ff fdcb 	bl	71b8 <z_reset_time_slice>
		_kernel.ready_q.cache = thread;
    7622:	61ec      	str	r4, [r5, #28]
}
    7624:	e7f7      	b.n	7616 <update_cache+0x46>
    7626:	bf00      	nop
    7628:	20000e6c 	.word	0x20000e6c
    762c:	20000e4c 	.word	0x20000e4c
    7630:	0000c6ad 	.word	0x0000c6ad
    7634:	0000c653 	.word	0x0000c653
    7638:	0000b2d3 	.word	0x0000b2d3
    763c:	0000c4ef 	.word	0x0000c4ef

00007640 <move_thread_to_end_of_prio_q>:
{
    7640:	b570      	push	{r4, r5, r6, lr}
	if (z_is_thread_queued(thread)) {
    7642:	f990 200d 	ldrsb.w	r2, [r0, #13]
	return z_is_thread_state_set(thread, _THREAD_QUEUED);
    7646:	7b43      	ldrb	r3, [r0, #13]
    7648:	2a00      	cmp	r2, #0
{
    764a:	4604      	mov	r4, r0
	if (z_is_thread_queued(thread)) {
    764c:	da06      	bge.n	765c <move_thread_to_end_of_prio_q+0x1c>
	thread->base.thread_state &= ~_THREAD_QUEUED;
    764e:	f003 037f 	and.w	r3, r3, #127	; 0x7f
    7652:	7343      	strb	r3, [r0, #13]
	_priq_run_remove(thread_runq(thread), thread);
    7654:	4601      	mov	r1, r0
    7656:	481f      	ldr	r0, [pc, #124]	; (76d4 <move_thread_to_end_of_prio_q+0x94>)
    7658:	f7ff ff2a 	bl	74b0 <z_priq_dumb_remove>
	thread->base.thread_state |= _THREAD_QUEUED;
    765c:	7b63      	ldrb	r3, [r4, #13]
    765e:	f063 037f 	orn	r3, r3, #127	; 0x7f
    7662:	7363      	strb	r3, [r4, #13]
	__ASSERT_NO_MSG(!z_is_idle_thread_object(thread));
    7664:	4b1c      	ldr	r3, [pc, #112]	; (76d8 <move_thread_to_end_of_prio_q+0x98>)
    7666:	429c      	cmp	r4, r3
    7668:	d109      	bne.n	767e <move_thread_to_end_of_prio_q+0x3e>
    766a:	491c      	ldr	r1, [pc, #112]	; (76dc <move_thread_to_end_of_prio_q+0x9c>)
    766c:	481c      	ldr	r0, [pc, #112]	; (76e0 <move_thread_to_end_of_prio_q+0xa0>)
    766e:	4a1d      	ldr	r2, [pc, #116]	; (76e4 <move_thread_to_end_of_prio_q+0xa4>)
    7670:	23ba      	movs	r3, #186	; 0xba
    7672:	f002 fbe4 	bl	9e3e <printk>
    7676:	481b      	ldr	r0, [pc, #108]	; (76e4 <move_thread_to_end_of_prio_q+0xa4>)
    7678:	21ba      	movs	r1, #186	; 0xba
    767a:	f002 fadd 	bl	9c38 <assert_post_action>
	return list->head == list;
    767e:	4a1a      	ldr	r2, [pc, #104]	; (76e8 <move_thread_to_end_of_prio_q+0xa8>)
    7680:	4611      	mov	r1, r2
	return (node != NULL) ? sys_dlist_peek_next_no_check(list, node) : NULL;
    7682:	6a55      	ldr	r5, [r2, #36]	; 0x24
	return list->head == list;
    7684:	f851 3f20 	ldr.w	r3, [r1, #32]!
	return sys_dlist_is_empty(list) ? NULL : list->head;
    7688:	428b      	cmp	r3, r1
    768a:	bf08      	it	eq
    768c:	2300      	moveq	r3, #0
    768e:	2b00      	cmp	r3, #0
    7690:	bf38      	it	cc
    7692:	2300      	movcc	r3, #0
	SYS_DLIST_FOR_EACH_CONTAINER(pq, t, base.qnode_dlist) {
    7694:	b1cb      	cbz	r3, 76ca <move_thread_to_end_of_prio_q+0x8a>
	int32_t b1 = thread_1->base.prio;
    7696:	f994 600e 	ldrsb.w	r6, [r4, #14]
	int32_t b2 = thread_2->base.prio;
    769a:	f993 000e 	ldrsb.w	r0, [r3, #14]
	if (b1 != b2) {
    769e:	4286      	cmp	r6, r0
    76a0:	d00f      	beq.n	76c2 <move_thread_to_end_of_prio_q+0x82>
		return b2 - b1;
    76a2:	1b80      	subs	r0, r0, r6
		if (z_sched_prio_cmp(thread, t) > 0) {
    76a4:	2800      	cmp	r0, #0
    76a6:	dd0c      	ble.n	76c2 <move_thread_to_end_of_prio_q+0x82>
	sys_dnode_t *const prev = successor->prev;
    76a8:	6859      	ldr	r1, [r3, #4]
	node->next = successor;
    76aa:	e9c4 3100 	strd	r3, r1, [r4]
	prev->next = node;
    76ae:	600c      	str	r4, [r1, #0]
	successor->prev = node;
    76b0:	605c      	str	r4, [r3, #4]
	update_cache(thread == _current);
    76b2:	6890      	ldr	r0, [r2, #8]
    76b4:	1b03      	subs	r3, r0, r4
    76b6:	4258      	negs	r0, r3
}
    76b8:	e8bd 4070 	ldmia.w	sp!, {r4, r5, r6, lr}
	update_cache(thread == _current);
    76bc:	4158      	adcs	r0, r3
    76be:	f7ff bf87 	b.w	75d0 <update_cache>
	return (node == list->tail) ? NULL : node->next;
    76c2:	42ab      	cmp	r3, r5
    76c4:	d001      	beq.n	76ca <move_thread_to_end_of_prio_q+0x8a>
    76c6:	681b      	ldr	r3, [r3, #0]
    76c8:	e7e4      	b.n	7694 <move_thread_to_end_of_prio_q+0x54>
	node->prev = tail;
    76ca:	e9c4 1500 	strd	r1, r5, [r4]
	tail->next = node;
    76ce:	602c      	str	r4, [r5, #0]
	list->tail = node;
    76d0:	6254      	str	r4, [r2, #36]	; 0x24
}
    76d2:	e7ee      	b.n	76b2 <move_thread_to_end_of_prio_q+0x72>
    76d4:	20000e6c 	.word	0x20000e6c
    76d8:	20000540 	.word	0x20000540
    76dc:	0000c675 	.word	0x0000c675
    76e0:	0000b2d3 	.word	0x0000b2d3
    76e4:	0000c653 	.word	0x0000c653
    76e8:	20000e4c 	.word	0x20000e4c

000076ec <z_time_slice>:
{
    76ec:	b570      	push	{r4, r5, r6, lr}
    76ee:	4604      	mov	r4, r0
	__asm__ volatile(
    76f0:	f04f 0320 	mov.w	r3, #32
    76f4:	f3ef 8511 	mrs	r5, BASEPRI
    76f8:	f383 8812 	msr	BASEPRI_MAX, r3
    76fc:	f3bf 8f6f 	isb	sy
	__ASSERT(z_spin_lock_valid(l), "Recursive spinlock %p", l);
    7700:	482a      	ldr	r0, [pc, #168]	; (77ac <z_time_slice+0xc0>)
    7702:	f001 f9b1 	bl	8a68 <z_spin_lock_valid>
    7706:	b968      	cbnz	r0, 7724 <z_time_slice+0x38>
    7708:	4a29      	ldr	r2, [pc, #164]	; (77b0 <z_time_slice+0xc4>)
    770a:	492a      	ldr	r1, [pc, #168]	; (77b4 <z_time_slice+0xc8>)
    770c:	482a      	ldr	r0, [pc, #168]	; (77b8 <z_time_slice+0xcc>)
    770e:	2381      	movs	r3, #129	; 0x81
    7710:	f002 fb95 	bl	9e3e <printk>
    7714:	4925      	ldr	r1, [pc, #148]	; (77ac <z_time_slice+0xc0>)
    7716:	4829      	ldr	r0, [pc, #164]	; (77bc <z_time_slice+0xd0>)
    7718:	f002 fb91 	bl	9e3e <printk>
    771c:	4824      	ldr	r0, [pc, #144]	; (77b0 <z_time_slice+0xc4>)
    771e:	2181      	movs	r1, #129	; 0x81
    7720:	f002 fa8a 	bl	9c38 <assert_post_action>
	z_spin_lock_set_owner(l);
    7724:	4821      	ldr	r0, [pc, #132]	; (77ac <z_time_slice+0xc0>)
    7726:	f001 f9bd 	bl	8aa4 <z_spin_lock_set_owner>
	if (pending_current == _current) {
    772a:	4b25      	ldr	r3, [pc, #148]	; (77c0 <z_time_slice+0xd4>)
    772c:	4a25      	ldr	r2, [pc, #148]	; (77c4 <z_time_slice+0xd8>)
    772e:	6898      	ldr	r0, [r3, #8]
    7730:	6811      	ldr	r1, [r2, #0]
    7732:	4288      	cmp	r0, r1
    7734:	4619      	mov	r1, r3
    7736:	d118      	bne.n	776a <z_time_slice+0x7e>
			z_reset_time_slice();
    7738:	f7ff fd3e 	bl	71b8 <z_reset_time_slice>
	__ASSERT(z_spin_unlock_valid(l), "Not my spinlock %p", l);
    773c:	481b      	ldr	r0, [pc, #108]	; (77ac <z_time_slice+0xc0>)
    773e:	f001 f9a1 	bl	8a84 <z_spin_unlock_valid>
    7742:	b968      	cbnz	r0, 7760 <z_time_slice+0x74>
    7744:	4a1a      	ldr	r2, [pc, #104]	; (77b0 <z_time_slice+0xc4>)
    7746:	4920      	ldr	r1, [pc, #128]	; (77c8 <z_time_slice+0xdc>)
    7748:	481b      	ldr	r0, [pc, #108]	; (77b8 <z_time_slice+0xcc>)
    774a:	23ac      	movs	r3, #172	; 0xac
    774c:	f002 fb77 	bl	9e3e <printk>
    7750:	4916      	ldr	r1, [pc, #88]	; (77ac <z_time_slice+0xc0>)
    7752:	481e      	ldr	r0, [pc, #120]	; (77cc <z_time_slice+0xe0>)
    7754:	f002 fb73 	bl	9e3e <printk>
    7758:	4815      	ldr	r0, [pc, #84]	; (77b0 <z_time_slice+0xc4>)
    775a:	21ac      	movs	r1, #172	; 0xac
    775c:	f002 fa6c 	bl	9c38 <assert_post_action>
	__asm__ volatile(
    7760:	f385 8811 	msr	BASEPRI, r5
    7764:	f3bf 8f6f 	isb	sy
}
    7768:	bd70      	pop	{r4, r5, r6, pc}
	pending_current = NULL;
    776a:	2600      	movs	r6, #0
    776c:	6016      	str	r6, [r2, #0]
	if (slice_time && sliceable(_current)) {
    776e:	4a18      	ldr	r2, [pc, #96]	; (77d0 <z_time_slice+0xe4>)
    7770:	6812      	ldr	r2, [r2, #0]
    7772:	b1ba      	cbz	r2, 77a4 <z_time_slice+0xb8>
		&& !z_is_idle_thread_object(thread);
    7774:	89c2      	ldrh	r2, [r0, #14]
    7776:	2a7f      	cmp	r2, #127	; 0x7f
    7778:	d814      	bhi.n	77a4 <z_time_slice+0xb8>
		&& !z_is_thread_prevented_from_running(thread)
    777a:	7b42      	ldrb	r2, [r0, #13]
    777c:	06d2      	lsls	r2, r2, #27
    777e:	d111      	bne.n	77a4 <z_time_slice+0xb8>
		&& !z_is_prio_higher(thread->base.prio, slice_max_prio)
    7780:	4a14      	ldr	r2, [pc, #80]	; (77d4 <z_time_slice+0xe8>)
    7782:	f990 600e 	ldrsb.w	r6, [r0, #14]
    7786:	6812      	ldr	r2, [r2, #0]
    7788:	4296      	cmp	r6, r2
    778a:	db0b      	blt.n	77a4 <z_time_slice+0xb8>
		&& !z_is_idle_thread_object(thread);
    778c:	4a12      	ldr	r2, [pc, #72]	; (77d8 <z_time_slice+0xec>)
    778e:	4290      	cmp	r0, r2
    7790:	d008      	beq.n	77a4 <z_time_slice+0xb8>
		if (ticks >= _current_cpu->slice_ticks) {
    7792:	691a      	ldr	r2, [r3, #16]
    7794:	42a2      	cmp	r2, r4
    7796:	dc02      	bgt.n	779e <z_time_slice+0xb2>
			move_thread_to_end_of_prio_q(_current);
    7798:	f7ff ff52 	bl	7640 <move_thread_to_end_of_prio_q>
    779c:	e7cc      	b.n	7738 <z_time_slice+0x4c>
			_current_cpu->slice_ticks -= ticks;
    779e:	1b12      	subs	r2, r2, r4
    77a0:	611a      	str	r2, [r3, #16]
    77a2:	e7cb      	b.n	773c <z_time_slice+0x50>
		_current_cpu->slice_ticks = 0;
    77a4:	2300      	movs	r3, #0
    77a6:	610b      	str	r3, [r1, #16]
    77a8:	e7c8      	b.n	773c <z_time_slice+0x50>
    77aa:	bf00      	nop
    77ac:	20000e80 	.word	0x20000e80
    77b0:	0000ba96 	.word	0x0000ba96
    77b4:	0000bae8 	.word	0x0000bae8
    77b8:	0000b2d3 	.word	0x0000b2d3
    77bc:	0000bafd 	.word	0x0000bafd
    77c0:	20000e4c 	.word	0x20000e4c
    77c4:	20000e7c 	.word	0x20000e7c
    77c8:	0000babc 	.word	0x0000babc
    77cc:	0000bad3 	.word	0x0000bad3
    77d0:	20000e88 	.word	0x20000e88
    77d4:	20000e84 	.word	0x20000e84
    77d8:	20000540 	.word	0x20000540

000077dc <ready_thread>:
{
    77dc:	b570      	push	{r4, r5, r6, lr}
	if (!z_is_thread_queued(thread) && z_is_thread_ready(thread)) {
    77de:	f990 200d 	ldrsb.w	r2, [r0, #13]
    77e2:	7b43      	ldrb	r3, [r0, #13]
    77e4:	2a00      	cmp	r2, #0
{
    77e6:	4604      	mov	r4, r0
	if (!z_is_thread_queued(thread) && z_is_thread_ready(thread)) {
    77e8:	db3e      	blt.n	7868 <ready_thread+0x8c>
	return !((z_is_thread_prevented_from_running(thread)) != 0U ||
    77ea:	06da      	lsls	r2, r3, #27
    77ec:	d13c      	bne.n	7868 <ready_thread+0x8c>
	return !sys_dnode_is_linked(&to->node);
    77ee:	6985      	ldr	r5, [r0, #24]
    77f0:	2d00      	cmp	r5, #0
    77f2:	d139      	bne.n	7868 <ready_thread+0x8c>
	thread->base.thread_state |= _THREAD_QUEUED;
    77f4:	f063 037f 	orn	r3, r3, #127	; 0x7f
    77f8:	7343      	strb	r3, [r0, #13]
	__ASSERT_NO_MSG(!z_is_idle_thread_object(thread));
    77fa:	4b1c      	ldr	r3, [pc, #112]	; (786c <ready_thread+0x90>)
    77fc:	4298      	cmp	r0, r3
    77fe:	d109      	bne.n	7814 <ready_thread+0x38>
    7800:	491b      	ldr	r1, [pc, #108]	; (7870 <ready_thread+0x94>)
    7802:	481c      	ldr	r0, [pc, #112]	; (7874 <ready_thread+0x98>)
    7804:	4a1c      	ldr	r2, [pc, #112]	; (7878 <ready_thread+0x9c>)
    7806:	23ba      	movs	r3, #186	; 0xba
    7808:	f002 fb19 	bl	9e3e <printk>
    780c:	481a      	ldr	r0, [pc, #104]	; (7878 <ready_thread+0x9c>)
    780e:	21ba      	movs	r1, #186	; 0xba
    7810:	f002 fa12 	bl	9c38 <assert_post_action>
	return list->head == list;
    7814:	4919      	ldr	r1, [pc, #100]	; (787c <ready_thread+0xa0>)
    7816:	460b      	mov	r3, r1
    7818:	f853 0f20 	ldr.w	r0, [r3, #32]!
	return sys_dlist_is_empty(list) ? NULL : list->head;
    781c:	4298      	cmp	r0, r3
    781e:	bf18      	it	ne
    7820:	4605      	movne	r5, r0
    7822:	2d00      	cmp	r5, #0
    7824:	461a      	mov	r2, r3
    7826:	462b      	mov	r3, r5
	return (node != NULL) ? sys_dlist_peek_next_no_check(list, node) : NULL;
    7828:	6a4d      	ldr	r5, [r1, #36]	; 0x24
    782a:	bf38      	it	cc
    782c:	2300      	movcc	r3, #0
	SYS_DLIST_FOR_EACH_CONTAINER(pq, t, base.qnode_dlist) {
    782e:	b1b3      	cbz	r3, 785e <ready_thread+0x82>
	int32_t b1 = thread_1->base.prio;
    7830:	f994 600e 	ldrsb.w	r6, [r4, #14]
	int32_t b2 = thread_2->base.prio;
    7834:	f993 000e 	ldrsb.w	r0, [r3, #14]
	if (b1 != b2) {
    7838:	4286      	cmp	r6, r0
    783a:	d00c      	beq.n	7856 <ready_thread+0x7a>
		return b2 - b1;
    783c:	1b80      	subs	r0, r0, r6
		if (z_sched_prio_cmp(thread, t) > 0) {
    783e:	2800      	cmp	r0, #0
    7840:	dd09      	ble.n	7856 <ready_thread+0x7a>
	sys_dnode_t *const prev = successor->prev;
    7842:	685a      	ldr	r2, [r3, #4]
	node->next = successor;
    7844:	e9c4 3200 	strd	r3, r2, [r4]
	prev->next = node;
    7848:	6014      	str	r4, [r2, #0]
	successor->prev = node;
    784a:	605c      	str	r4, [r3, #4]
}
    784c:	e8bd 4070 	ldmia.w	sp!, {r4, r5, r6, lr}
		update_cache(0);
    7850:	2000      	movs	r0, #0
    7852:	f7ff bebd 	b.w	75d0 <update_cache>
	return (node == list->tail) ? NULL : node->next;
    7856:	42ab      	cmp	r3, r5
    7858:	d001      	beq.n	785e <ready_thread+0x82>
    785a:	681b      	ldr	r3, [r3, #0]
    785c:	e7e7      	b.n	782e <ready_thread+0x52>
	node->prev = tail;
    785e:	e9c4 2500 	strd	r2, r5, [r4]
	tail->next = node;
    7862:	602c      	str	r4, [r5, #0]
	list->tail = node;
    7864:	624c      	str	r4, [r1, #36]	; 0x24
}
    7866:	e7f1      	b.n	784c <ready_thread+0x70>
}
    7868:	bd70      	pop	{r4, r5, r6, pc}
    786a:	bf00      	nop
    786c:	20000540 	.word	0x20000540
    7870:	0000c675 	.word	0x0000c675
    7874:	0000b2d3 	.word	0x0000b2d3
    7878:	0000c653 	.word	0x0000c653
    787c:	20000e4c 	.word	0x20000e4c

00007880 <z_ready_thread>:
{
    7880:	b538      	push	{r3, r4, r5, lr}
    7882:	4604      	mov	r4, r0
	__asm__ volatile(
    7884:	f04f 0320 	mov.w	r3, #32
    7888:	f3ef 8511 	mrs	r5, BASEPRI
    788c:	f383 8812 	msr	BASEPRI_MAX, r3
    7890:	f3bf 8f6f 	isb	sy
	__ASSERT(z_spin_lock_valid(l), "Recursive spinlock %p", l);
    7894:	4817      	ldr	r0, [pc, #92]	; (78f4 <z_ready_thread+0x74>)
    7896:	f001 f8e7 	bl	8a68 <z_spin_lock_valid>
    789a:	b968      	cbnz	r0, 78b8 <z_ready_thread+0x38>
    789c:	4a16      	ldr	r2, [pc, #88]	; (78f8 <z_ready_thread+0x78>)
    789e:	4917      	ldr	r1, [pc, #92]	; (78fc <z_ready_thread+0x7c>)
    78a0:	4817      	ldr	r0, [pc, #92]	; (7900 <z_ready_thread+0x80>)
    78a2:	2381      	movs	r3, #129	; 0x81
    78a4:	f002 facb 	bl	9e3e <printk>
    78a8:	4912      	ldr	r1, [pc, #72]	; (78f4 <z_ready_thread+0x74>)
    78aa:	4816      	ldr	r0, [pc, #88]	; (7904 <z_ready_thread+0x84>)
    78ac:	f002 fac7 	bl	9e3e <printk>
    78b0:	4811      	ldr	r0, [pc, #68]	; (78f8 <z_ready_thread+0x78>)
    78b2:	2181      	movs	r1, #129	; 0x81
    78b4:	f002 f9c0 	bl	9c38 <assert_post_action>
	z_spin_lock_set_owner(l);
    78b8:	480e      	ldr	r0, [pc, #56]	; (78f4 <z_ready_thread+0x74>)
    78ba:	f001 f8f3 	bl	8aa4 <z_spin_lock_set_owner>
			ready_thread(thread);
    78be:	4620      	mov	r0, r4
    78c0:	f7ff ff8c 	bl	77dc <ready_thread>
	__ASSERT(z_spin_unlock_valid(l), "Not my spinlock %p", l);
    78c4:	480b      	ldr	r0, [pc, #44]	; (78f4 <z_ready_thread+0x74>)
    78c6:	f001 f8dd 	bl	8a84 <z_spin_unlock_valid>
    78ca:	b968      	cbnz	r0, 78e8 <z_ready_thread+0x68>
    78cc:	4a0a      	ldr	r2, [pc, #40]	; (78f8 <z_ready_thread+0x78>)
    78ce:	490e      	ldr	r1, [pc, #56]	; (7908 <z_ready_thread+0x88>)
    78d0:	480b      	ldr	r0, [pc, #44]	; (7900 <z_ready_thread+0x80>)
    78d2:	23ac      	movs	r3, #172	; 0xac
    78d4:	f002 fab3 	bl	9e3e <printk>
    78d8:	4906      	ldr	r1, [pc, #24]	; (78f4 <z_ready_thread+0x74>)
    78da:	480c      	ldr	r0, [pc, #48]	; (790c <z_ready_thread+0x8c>)
    78dc:	f002 faaf 	bl	9e3e <printk>
    78e0:	4805      	ldr	r0, [pc, #20]	; (78f8 <z_ready_thread+0x78>)
    78e2:	21ac      	movs	r1, #172	; 0xac
    78e4:	f002 f9a8 	bl	9c38 <assert_post_action>
	__asm__ volatile(
    78e8:	f385 8811 	msr	BASEPRI, r5
    78ec:	f3bf 8f6f 	isb	sy
}
    78f0:	bd38      	pop	{r3, r4, r5, pc}
    78f2:	bf00      	nop
    78f4:	20000e80 	.word	0x20000e80
    78f8:	0000ba96 	.word	0x0000ba96
    78fc:	0000bae8 	.word	0x0000bae8
    7900:	0000b2d3 	.word	0x0000b2d3
    7904:	0000bafd 	.word	0x0000bafd
    7908:	0000babc 	.word	0x0000babc
    790c:	0000bad3 	.word	0x0000bad3

00007910 <z_sched_start>:
{
    7910:	b538      	push	{r3, r4, r5, lr}
    7912:	4604      	mov	r4, r0
	__asm__ volatile(
    7914:	f04f 0320 	mov.w	r3, #32
    7918:	f3ef 8511 	mrs	r5, BASEPRI
    791c:	f383 8812 	msr	BASEPRI_MAX, r3
    7920:	f3bf 8f6f 	isb	sy
	__ASSERT(z_spin_lock_valid(l), "Recursive spinlock %p", l);
    7924:	481d      	ldr	r0, [pc, #116]	; (799c <z_sched_start+0x8c>)
    7926:	f001 f89f 	bl	8a68 <z_spin_lock_valid>
    792a:	b968      	cbnz	r0, 7948 <z_sched_start+0x38>
    792c:	4a1c      	ldr	r2, [pc, #112]	; (79a0 <z_sched_start+0x90>)
    792e:	491d      	ldr	r1, [pc, #116]	; (79a4 <z_sched_start+0x94>)
    7930:	481d      	ldr	r0, [pc, #116]	; (79a8 <z_sched_start+0x98>)
    7932:	2381      	movs	r3, #129	; 0x81
    7934:	f002 fa83 	bl	9e3e <printk>
    7938:	4918      	ldr	r1, [pc, #96]	; (799c <z_sched_start+0x8c>)
    793a:	481c      	ldr	r0, [pc, #112]	; (79ac <z_sched_start+0x9c>)
    793c:	f002 fa7f 	bl	9e3e <printk>
    7940:	4817      	ldr	r0, [pc, #92]	; (79a0 <z_sched_start+0x90>)
    7942:	2181      	movs	r1, #129	; 0x81
    7944:	f002 f978 	bl	9c38 <assert_post_action>
	z_spin_lock_set_owner(l);
    7948:	4814      	ldr	r0, [pc, #80]	; (799c <z_sched_start+0x8c>)
    794a:	f001 f8ab 	bl	8aa4 <z_spin_lock_set_owner>
	if (z_has_thread_started(thread)) {
    794e:	7b63      	ldrb	r3, [r4, #13]
    7950:	075a      	lsls	r2, r3, #29
    7952:	d416      	bmi.n	7982 <z_sched_start+0x72>
	__ASSERT(z_spin_unlock_valid(l), "Not my spinlock %p", l);
    7954:	4811      	ldr	r0, [pc, #68]	; (799c <z_sched_start+0x8c>)
    7956:	f001 f895 	bl	8a84 <z_spin_unlock_valid>
    795a:	b968      	cbnz	r0, 7978 <z_sched_start+0x68>
    795c:	4a10      	ldr	r2, [pc, #64]	; (79a0 <z_sched_start+0x90>)
    795e:	4914      	ldr	r1, [pc, #80]	; (79b0 <z_sched_start+0xa0>)
    7960:	4811      	ldr	r0, [pc, #68]	; (79a8 <z_sched_start+0x98>)
    7962:	23ac      	movs	r3, #172	; 0xac
    7964:	f002 fa6b 	bl	9e3e <printk>
    7968:	490c      	ldr	r1, [pc, #48]	; (799c <z_sched_start+0x8c>)
    796a:	4812      	ldr	r0, [pc, #72]	; (79b4 <z_sched_start+0xa4>)
    796c:	f002 fa67 	bl	9e3e <printk>
    7970:	480b      	ldr	r0, [pc, #44]	; (79a0 <z_sched_start+0x90>)
    7972:	21ac      	movs	r1, #172	; 0xac
    7974:	f002 f960 	bl	9c38 <assert_post_action>
	__asm__ volatile(
    7978:	f385 8811 	msr	BASEPRI, r5
    797c:	f3bf 8f6f 	isb	sy
}
    7980:	bd38      	pop	{r3, r4, r5, pc}
	thread->base.thread_state &= ~_THREAD_PRESTART;
    7982:	f023 0304 	bic.w	r3, r3, #4
	ready_thread(thread);
    7986:	4620      	mov	r0, r4
    7988:	7363      	strb	r3, [r4, #13]
    798a:	f7ff ff27 	bl	77dc <ready_thread>
	z_reschedule(&sched_spinlock, key);
    798e:	4629      	mov	r1, r5
    7990:	4802      	ldr	r0, [pc, #8]	; (799c <z_sched_start+0x8c>)
}
    7992:	e8bd 4038 	ldmia.w	sp!, {r3, r4, r5, lr}
	z_reschedule(&sched_spinlock, key);
    7996:	f7ff bcd3 	b.w	7340 <z_reschedule>
    799a:	bf00      	nop
    799c:	20000e80 	.word	0x20000e80
    79a0:	0000ba96 	.word	0x0000ba96
    79a4:	0000bae8 	.word	0x0000bae8
    79a8:	0000b2d3 	.word	0x0000b2d3
    79ac:	0000bafd 	.word	0x0000bafd
    79b0:	0000babc 	.word	0x0000babc
    79b4:	0000bad3 	.word	0x0000bad3

000079b8 <z_thread_timeout>:
{
    79b8:	b570      	push	{r4, r5, r6, lr}
    79ba:	4604      	mov	r4, r0
	__asm__ volatile(
    79bc:	f04f 0320 	mov.w	r3, #32
    79c0:	f3ef 8611 	mrs	r6, BASEPRI
    79c4:	f383 8812 	msr	BASEPRI_MAX, r3
    79c8:	f3bf 8f6f 	isb	sy
	__ASSERT(z_spin_lock_valid(l), "Recursive spinlock %p", l);
    79cc:	4820      	ldr	r0, [pc, #128]	; (7a50 <z_thread_timeout+0x98>)
    79ce:	f001 f84b 	bl	8a68 <z_spin_lock_valid>
    79d2:	b968      	cbnz	r0, 79f0 <z_thread_timeout+0x38>
    79d4:	4a1f      	ldr	r2, [pc, #124]	; (7a54 <z_thread_timeout+0x9c>)
    79d6:	4920      	ldr	r1, [pc, #128]	; (7a58 <z_thread_timeout+0xa0>)
    79d8:	4820      	ldr	r0, [pc, #128]	; (7a5c <z_thread_timeout+0xa4>)
    79da:	2381      	movs	r3, #129	; 0x81
    79dc:	f002 fa2f 	bl	9e3e <printk>
    79e0:	491b      	ldr	r1, [pc, #108]	; (7a50 <z_thread_timeout+0x98>)
    79e2:	481f      	ldr	r0, [pc, #124]	; (7a60 <z_thread_timeout+0xa8>)
    79e4:	f002 fa2b 	bl	9e3e <printk>
    79e8:	481a      	ldr	r0, [pc, #104]	; (7a54 <z_thread_timeout+0x9c>)
    79ea:	2181      	movs	r1, #129	; 0x81
    79ec:	f002 f924 	bl	9c38 <assert_post_action>
	z_spin_lock_set_owner(l);
    79f0:	4817      	ldr	r0, [pc, #92]	; (7a50 <z_thread_timeout+0x98>)
    79f2:	f001 f857 	bl	8aa4 <z_spin_lock_set_owner>
		if (!killed) {
    79f6:	f814 3c0b 	ldrb.w	r3, [r4, #-11]
    79fa:	f013 0f28 	tst.w	r3, #40	; 0x28
    79fe:	d110      	bne.n	7a22 <z_thread_timeout+0x6a>
			if (thread->base.pended_on != NULL) {
    7a00:	f854 3c10 	ldr.w	r3, [r4, #-16]
	struct k_thread *thread = CONTAINER_OF(timeout,
    7a04:	f1a4 0518 	sub.w	r5, r4, #24
			if (thread->base.pended_on != NULL) {
    7a08:	b113      	cbz	r3, 7a10 <z_thread_timeout+0x58>
				unpend_thread_no_timeout(thread);
    7a0a:	4628      	mov	r0, r5
    7a0c:	f7ff fd72 	bl	74f4 <unpend_thread_no_timeout>
	thread->base.thread_state &= ~_THREAD_SUSPENDED;
    7a10:	f814 3c0b 	ldrb.w	r3, [r4, #-11]
    7a14:	f023 0314 	bic.w	r3, r3, #20
    7a18:	f804 3c0b 	strb.w	r3, [r4, #-11]
			ready_thread(thread);
    7a1c:	4628      	mov	r0, r5
    7a1e:	f7ff fedd 	bl	77dc <ready_thread>
	__ASSERT(z_spin_unlock_valid(l), "Not my spinlock %p", l);
    7a22:	480b      	ldr	r0, [pc, #44]	; (7a50 <z_thread_timeout+0x98>)
    7a24:	f001 f82e 	bl	8a84 <z_spin_unlock_valid>
    7a28:	b968      	cbnz	r0, 7a46 <z_thread_timeout+0x8e>
    7a2a:	4a0a      	ldr	r2, [pc, #40]	; (7a54 <z_thread_timeout+0x9c>)
    7a2c:	490d      	ldr	r1, [pc, #52]	; (7a64 <z_thread_timeout+0xac>)
    7a2e:	480b      	ldr	r0, [pc, #44]	; (7a5c <z_thread_timeout+0xa4>)
    7a30:	23ac      	movs	r3, #172	; 0xac
    7a32:	f002 fa04 	bl	9e3e <printk>
    7a36:	4906      	ldr	r1, [pc, #24]	; (7a50 <z_thread_timeout+0x98>)
    7a38:	480b      	ldr	r0, [pc, #44]	; (7a68 <z_thread_timeout+0xb0>)
    7a3a:	f002 fa00 	bl	9e3e <printk>
    7a3e:	4805      	ldr	r0, [pc, #20]	; (7a54 <z_thread_timeout+0x9c>)
    7a40:	21ac      	movs	r1, #172	; 0xac
    7a42:	f002 f8f9 	bl	9c38 <assert_post_action>
	__asm__ volatile(
    7a46:	f386 8811 	msr	BASEPRI, r6
    7a4a:	f3bf 8f6f 	isb	sy
}
    7a4e:	bd70      	pop	{r4, r5, r6, pc}
    7a50:	20000e80 	.word	0x20000e80
    7a54:	0000ba96 	.word	0x0000ba96
    7a58:	0000bae8 	.word	0x0000bae8
    7a5c:	0000b2d3 	.word	0x0000b2d3
    7a60:	0000bafd 	.word	0x0000bafd
    7a64:	0000babc 	.word	0x0000babc
    7a68:	0000bad3 	.word	0x0000bad3

00007a6c <unready_thread>:
{
    7a6c:	b510      	push	{r4, lr}
	if (z_is_thread_queued(thread)) {
    7a6e:	f990 200d 	ldrsb.w	r2, [r0, #13]
	return z_is_thread_state_set(thread, _THREAD_QUEUED);
    7a72:	7b43      	ldrb	r3, [r0, #13]
    7a74:	2a00      	cmp	r2, #0
{
    7a76:	4604      	mov	r4, r0
	if (z_is_thread_queued(thread)) {
    7a78:	da06      	bge.n	7a88 <unready_thread+0x1c>
	thread->base.thread_state &= ~_THREAD_QUEUED;
    7a7a:	f003 037f 	and.w	r3, r3, #127	; 0x7f
    7a7e:	7343      	strb	r3, [r0, #13]
	_priq_run_remove(thread_runq(thread), thread);
    7a80:	4601      	mov	r1, r0
    7a82:	4806      	ldr	r0, [pc, #24]	; (7a9c <unready_thread+0x30>)
    7a84:	f7ff fd14 	bl	74b0 <z_priq_dumb_remove>
	update_cache(thread == _current);
    7a88:	4b05      	ldr	r3, [pc, #20]	; (7aa0 <unready_thread+0x34>)
    7a8a:	6898      	ldr	r0, [r3, #8]
    7a8c:	1b03      	subs	r3, r0, r4
    7a8e:	4258      	negs	r0, r3
}
    7a90:	e8bd 4010 	ldmia.w	sp!, {r4, lr}
	update_cache(thread == _current);
    7a94:	4158      	adcs	r0, r3
    7a96:	f7ff bd9b 	b.w	75d0 <update_cache>
    7a9a:	bf00      	nop
    7a9c:	20000e6c 	.word	0x20000e6c
    7aa0:	20000e4c 	.word	0x20000e4c

00007aa4 <add_to_waitq_locked>:
{
    7aa4:	b538      	push	{r3, r4, r5, lr}
    7aa6:	4604      	mov	r4, r0
    7aa8:	460d      	mov	r5, r1
	unready_thread(thread);
    7aaa:	f7ff ffdf 	bl	7a6c <unready_thread>
	thread->base.thread_state |= _THREAD_PENDING;
    7aae:	7b63      	ldrb	r3, [r4, #13]
    7ab0:	f043 0302 	orr.w	r3, r3, #2
    7ab4:	7363      	strb	r3, [r4, #13]
	if (wait_q != NULL) {
    7ab6:	b31d      	cbz	r5, 7b00 <add_to_waitq_locked+0x5c>
	__ASSERT_NO_MSG(!z_is_idle_thread_object(thread));
    7ab8:	4b17      	ldr	r3, [pc, #92]	; (7b18 <add_to_waitq_locked+0x74>)
		thread->base.pended_on = wait_q;
    7aba:	60a5      	str	r5, [r4, #8]
	__ASSERT_NO_MSG(!z_is_idle_thread_object(thread));
    7abc:	429c      	cmp	r4, r3
    7abe:	d109      	bne.n	7ad4 <add_to_waitq_locked+0x30>
    7ac0:	4916      	ldr	r1, [pc, #88]	; (7b1c <add_to_waitq_locked+0x78>)
    7ac2:	4817      	ldr	r0, [pc, #92]	; (7b20 <add_to_waitq_locked+0x7c>)
    7ac4:	4a17      	ldr	r2, [pc, #92]	; (7b24 <add_to_waitq_locked+0x80>)
    7ac6:	23ba      	movs	r3, #186	; 0xba
    7ac8:	f002 f9b9 	bl	9e3e <printk>
    7acc:	4815      	ldr	r0, [pc, #84]	; (7b24 <add_to_waitq_locked+0x80>)
    7ace:	21ba      	movs	r1, #186	; 0xba
    7ad0:	f002 f8b2 	bl	9c38 <assert_post_action>
	return list->head == list;
    7ad4:	682b      	ldr	r3, [r5, #0]
	return sys_dlist_is_empty(list) ? NULL : list->head;
    7ad6:	429d      	cmp	r5, r3
    7ad8:	bf08      	it	eq
    7ada:	2300      	moveq	r3, #0
    7adc:	2b00      	cmp	r3, #0
    7ade:	bf38      	it	cc
    7ae0:	2300      	movcc	r3, #0
	SYS_DLIST_FOR_EACH_CONTAINER(pq, t, base.qnode_dlist) {
    7ae2:	b19b      	cbz	r3, 7b0c <add_to_waitq_locked+0x68>
	int32_t b1 = thread_1->base.prio;
    7ae4:	f994 100e 	ldrsb.w	r1, [r4, #14]
	int32_t b2 = thread_2->base.prio;
    7ae8:	f993 200e 	ldrsb.w	r2, [r3, #14]
	if (b1 != b2) {
    7aec:	4291      	cmp	r1, r2
    7aee:	d008      	beq.n	7b02 <add_to_waitq_locked+0x5e>
		return b2 - b1;
    7af0:	1a52      	subs	r2, r2, r1
		if (z_sched_prio_cmp(thread, t) > 0) {
    7af2:	2a00      	cmp	r2, #0
    7af4:	dd05      	ble.n	7b02 <add_to_waitq_locked+0x5e>
	sys_dnode_t *const prev = successor->prev;
    7af6:	685a      	ldr	r2, [r3, #4]
	node->next = successor;
    7af8:	e9c4 3200 	strd	r3, r2, [r4]
	prev->next = node;
    7afc:	6014      	str	r4, [r2, #0]
	successor->prev = node;
    7afe:	605c      	str	r4, [r3, #4]
}
    7b00:	bd38      	pop	{r3, r4, r5, pc}
	return (node == list->tail) ? NULL : node->next;
    7b02:	686a      	ldr	r2, [r5, #4]
    7b04:	4293      	cmp	r3, r2
    7b06:	d001      	beq.n	7b0c <add_to_waitq_locked+0x68>
    7b08:	681b      	ldr	r3, [r3, #0]
    7b0a:	e7ea      	b.n	7ae2 <add_to_waitq_locked+0x3e>
	sys_dnode_t *const tail = list->tail;
    7b0c:	686b      	ldr	r3, [r5, #4]
	node->prev = tail;
    7b0e:	e9c4 5300 	strd	r5, r3, [r4]
	tail->next = node;
    7b12:	601c      	str	r4, [r3, #0]
	list->tail = node;
    7b14:	606c      	str	r4, [r5, #4]
    7b16:	e7f3      	b.n	7b00 <add_to_waitq_locked+0x5c>
    7b18:	20000540 	.word	0x20000540
    7b1c:	0000c675 	.word	0x0000c675
    7b20:	0000b2d3 	.word	0x0000b2d3
    7b24:	0000c653 	.word	0x0000c653

00007b28 <pend>:
{
    7b28:	e92d 41f0 	stmdb	sp!, {r4, r5, r6, r7, r8, lr}
    7b2c:	4604      	mov	r4, r0
    7b2e:	460d      	mov	r5, r1
    7b30:	4616      	mov	r6, r2
    7b32:	461f      	mov	r7, r3
	__asm__ volatile(
    7b34:	f04f 0320 	mov.w	r3, #32
    7b38:	f3ef 8811 	mrs	r8, BASEPRI
    7b3c:	f383 8812 	msr	BASEPRI_MAX, r3
    7b40:	f3bf 8f6f 	isb	sy
	__ASSERT(z_spin_lock_valid(l), "Recursive spinlock %p", l);
    7b44:	481f      	ldr	r0, [pc, #124]	; (7bc4 <pend+0x9c>)
    7b46:	f000 ff8f 	bl	8a68 <z_spin_lock_valid>
    7b4a:	b968      	cbnz	r0, 7b68 <pend+0x40>
    7b4c:	4a1e      	ldr	r2, [pc, #120]	; (7bc8 <pend+0xa0>)
    7b4e:	491f      	ldr	r1, [pc, #124]	; (7bcc <pend+0xa4>)
    7b50:	481f      	ldr	r0, [pc, #124]	; (7bd0 <pend+0xa8>)
    7b52:	2381      	movs	r3, #129	; 0x81
    7b54:	f002 f973 	bl	9e3e <printk>
    7b58:	491a      	ldr	r1, [pc, #104]	; (7bc4 <pend+0x9c>)
    7b5a:	481e      	ldr	r0, [pc, #120]	; (7bd4 <pend+0xac>)
    7b5c:	f002 f96f 	bl	9e3e <printk>
    7b60:	4819      	ldr	r0, [pc, #100]	; (7bc8 <pend+0xa0>)
    7b62:	2181      	movs	r1, #129	; 0x81
    7b64:	f002 f868 	bl	9c38 <assert_post_action>
	z_spin_lock_set_owner(l);
    7b68:	4816      	ldr	r0, [pc, #88]	; (7bc4 <pend+0x9c>)
    7b6a:	f000 ff9b 	bl	8aa4 <z_spin_lock_set_owner>
		add_to_waitq_locked(thread, wait_q);
    7b6e:	4620      	mov	r0, r4
    7b70:	4629      	mov	r1, r5
    7b72:	f7ff ff97 	bl	7aa4 <add_to_waitq_locked>
	__ASSERT(z_spin_unlock_valid(l), "Not my spinlock %p", l);
    7b76:	4813      	ldr	r0, [pc, #76]	; (7bc4 <pend+0x9c>)
    7b78:	f000 ff84 	bl	8a84 <z_spin_unlock_valid>
    7b7c:	b968      	cbnz	r0, 7b9a <pend+0x72>
    7b7e:	4a12      	ldr	r2, [pc, #72]	; (7bc8 <pend+0xa0>)
    7b80:	4915      	ldr	r1, [pc, #84]	; (7bd8 <pend+0xb0>)
    7b82:	4813      	ldr	r0, [pc, #76]	; (7bd0 <pend+0xa8>)
    7b84:	23ac      	movs	r3, #172	; 0xac
    7b86:	f002 f95a 	bl	9e3e <printk>
    7b8a:	490e      	ldr	r1, [pc, #56]	; (7bc4 <pend+0x9c>)
    7b8c:	4813      	ldr	r0, [pc, #76]	; (7bdc <pend+0xb4>)
    7b8e:	f002 f956 	bl	9e3e <printk>
    7b92:	480d      	ldr	r0, [pc, #52]	; (7bc8 <pend+0xa0>)
    7b94:	21ac      	movs	r1, #172	; 0xac
    7b96:	f002 f84f 	bl	9c38 <assert_post_action>
	__asm__ volatile(
    7b9a:	f388 8811 	msr	BASEPRI, r8
    7b9e:	f3bf 8f6f 	isb	sy
	if (!K_TIMEOUT_EQ(timeout, K_FOREVER)) {
    7ba2:	1c7b      	adds	r3, r7, #1
    7ba4:	bf08      	it	eq
    7ba6:	f1b6 3fff 	cmpeq.w	r6, #4294967295
    7baa:	d008      	beq.n	7bbe <pend+0x96>
	z_add_timeout(&thread->base.timeout, z_thread_timeout, ticks);
    7bac:	4632      	mov	r2, r6
    7bae:	463b      	mov	r3, r7
    7bb0:	f104 0018 	add.w	r0, r4, #24
    7bb4:	490a      	ldr	r1, [pc, #40]	; (7be0 <pend+0xb8>)
}
    7bb6:	e8bd 41f0 	ldmia.w	sp!, {r4, r5, r6, r7, r8, lr}
    7bba:	f000 bfcb 	b.w	8b54 <z_add_timeout>
    7bbe:	e8bd 81f0 	ldmia.w	sp!, {r4, r5, r6, r7, r8, pc}
    7bc2:	bf00      	nop
    7bc4:	20000e80 	.word	0x20000e80
    7bc8:	0000ba96 	.word	0x0000ba96
    7bcc:	0000bae8 	.word	0x0000bae8
    7bd0:	0000b2d3 	.word	0x0000b2d3
    7bd4:	0000bafd 	.word	0x0000bafd
    7bd8:	0000babc 	.word	0x0000babc
    7bdc:	0000bad3 	.word	0x0000bad3
    7be0:	000079b9 	.word	0x000079b9

00007be4 <z_pend_curr>:
{
    7be4:	b538      	push	{r3, r4, r5, lr}
	pending_current = _current;
    7be6:	4b11      	ldr	r3, [pc, #68]	; (7c2c <z_pend_curr+0x48>)
{
    7be8:	4604      	mov	r4, r0
	pending_current = _current;
    7bea:	6898      	ldr	r0, [r3, #8]
    7bec:	4b10      	ldr	r3, [pc, #64]	; (7c30 <z_pend_curr+0x4c>)
{
    7bee:	460d      	mov	r5, r1
	pending_current = _current;
    7bf0:	6018      	str	r0, [r3, #0]
{
    7bf2:	4611      	mov	r1, r2
	pend(_current, wait_q, timeout);
    7bf4:	e9dd 2304 	ldrd	r2, r3, [sp, #16]
    7bf8:	f7ff ff96 	bl	7b28 <pend>
	__ASSERT(z_spin_unlock_valid(l), "Not my spinlock %p", l);
    7bfc:	4620      	mov	r0, r4
    7bfe:	f000 ff41 	bl	8a84 <z_spin_unlock_valid>
    7c02:	b968      	cbnz	r0, 7c20 <z_pend_curr+0x3c>
    7c04:	4a0b      	ldr	r2, [pc, #44]	; (7c34 <z_pend_curr+0x50>)
    7c06:	490c      	ldr	r1, [pc, #48]	; (7c38 <z_pend_curr+0x54>)
    7c08:	480c      	ldr	r0, [pc, #48]	; (7c3c <z_pend_curr+0x58>)
    7c0a:	23c3      	movs	r3, #195	; 0xc3
    7c0c:	f002 f917 	bl	9e3e <printk>
    7c10:	480b      	ldr	r0, [pc, #44]	; (7c40 <z_pend_curr+0x5c>)
    7c12:	4621      	mov	r1, r4
    7c14:	f002 f913 	bl	9e3e <printk>
    7c18:	4806      	ldr	r0, [pc, #24]	; (7c34 <z_pend_curr+0x50>)
    7c1a:	21c3      	movs	r1, #195	; 0xc3
    7c1c:	f002 f80c 	bl	9c38 <assert_post_action>
    7c20:	4628      	mov	r0, r5
}
    7c22:	e8bd 4038 	ldmia.w	sp!, {r3, r4, r5, lr}
    7c26:	f7fb bc0f 	b.w	3448 <arch_swap>
    7c2a:	bf00      	nop
    7c2c:	20000e4c 	.word	0x20000e4c
    7c30:	20000e7c 	.word	0x20000e7c
    7c34:	0000ba96 	.word	0x0000ba96
    7c38:	0000babc 	.word	0x0000babc
    7c3c:	0000b2d3 	.word	0x0000b2d3
    7c40:	0000bad3 	.word	0x0000bad3

00007c44 <z_set_prio>:
{
    7c44:	b5f8      	push	{r3, r4, r5, r6, r7, lr}
    7c46:	4604      	mov	r4, r0
    7c48:	460e      	mov	r6, r1
	__asm__ volatile(
    7c4a:	f04f 0320 	mov.w	r3, #32
    7c4e:	f3ef 8711 	mrs	r7, BASEPRI
    7c52:	f383 8812 	msr	BASEPRI_MAX, r3
    7c56:	f3bf 8f6f 	isb	sy
	__ASSERT(z_spin_lock_valid(l), "Recursive spinlock %p", l);
    7c5a:	483c      	ldr	r0, [pc, #240]	; (7d4c <z_set_prio+0x108>)
    7c5c:	f000 ff04 	bl	8a68 <z_spin_lock_valid>
    7c60:	b968      	cbnz	r0, 7c7e <z_set_prio+0x3a>
    7c62:	4a3b      	ldr	r2, [pc, #236]	; (7d50 <z_set_prio+0x10c>)
    7c64:	493b      	ldr	r1, [pc, #236]	; (7d54 <z_set_prio+0x110>)
    7c66:	483c      	ldr	r0, [pc, #240]	; (7d58 <z_set_prio+0x114>)
    7c68:	2381      	movs	r3, #129	; 0x81
    7c6a:	f002 f8e8 	bl	9e3e <printk>
    7c6e:	4937      	ldr	r1, [pc, #220]	; (7d4c <z_set_prio+0x108>)
    7c70:	483a      	ldr	r0, [pc, #232]	; (7d5c <z_set_prio+0x118>)
    7c72:	f002 f8e4 	bl	9e3e <printk>
    7c76:	4836      	ldr	r0, [pc, #216]	; (7d50 <z_set_prio+0x10c>)
    7c78:	2181      	movs	r1, #129	; 0x81
    7c7a:	f001 ffdd 	bl	9c38 <assert_post_action>
	z_spin_lock_set_owner(l);
    7c7e:	4833      	ldr	r0, [pc, #204]	; (7d4c <z_set_prio+0x108>)
    7c80:	f000 ff10 	bl	8aa4 <z_spin_lock_set_owner>
	return !((z_is_thread_prevented_from_running(thread)) != 0U ||
    7c84:	7b63      	ldrb	r3, [r4, #13]
    7c86:	06da      	lsls	r2, r3, #27
    7c88:	b276      	sxtb	r6, r6
    7c8a:	d15c      	bne.n	7d46 <z_set_prio+0x102>
	return !sys_dnode_is_linked(&to->node);
    7c8c:	69a5      	ldr	r5, [r4, #24]
		if (need_sched) {
    7c8e:	2d00      	cmp	r5, #0
    7c90:	d159      	bne.n	7d46 <z_set_prio+0x102>
	thread->base.thread_state &= ~_THREAD_QUEUED;
    7c92:	f003 037f 	and.w	r3, r3, #127	; 0x7f
    7c96:	7363      	strb	r3, [r4, #13]
	_priq_run_remove(thread_runq(thread), thread);
    7c98:	4831      	ldr	r0, [pc, #196]	; (7d60 <z_set_prio+0x11c>)
    7c9a:	4621      	mov	r1, r4
    7c9c:	f7ff fc08 	bl	74b0 <z_priq_dumb_remove>
	thread->base.thread_state |= _THREAD_QUEUED;
    7ca0:	7b63      	ldrb	r3, [r4, #13]
				thread->base.prio = prio;
    7ca2:	73a6      	strb	r6, [r4, #14]
	thread->base.thread_state |= _THREAD_QUEUED;
    7ca4:	f063 037f 	orn	r3, r3, #127	; 0x7f
    7ca8:	7363      	strb	r3, [r4, #13]
	__ASSERT_NO_MSG(!z_is_idle_thread_object(thread));
    7caa:	4b2e      	ldr	r3, [pc, #184]	; (7d64 <z_set_prio+0x120>)
    7cac:	429c      	cmp	r4, r3
    7cae:	d109      	bne.n	7cc4 <z_set_prio+0x80>
    7cb0:	492d      	ldr	r1, [pc, #180]	; (7d68 <z_set_prio+0x124>)
    7cb2:	4829      	ldr	r0, [pc, #164]	; (7d58 <z_set_prio+0x114>)
    7cb4:	4a2d      	ldr	r2, [pc, #180]	; (7d6c <z_set_prio+0x128>)
    7cb6:	23ba      	movs	r3, #186	; 0xba
    7cb8:	f002 f8c1 	bl	9e3e <printk>
    7cbc:	482b      	ldr	r0, [pc, #172]	; (7d6c <z_set_prio+0x128>)
    7cbe:	21ba      	movs	r1, #186	; 0xba
    7cc0:	f001 ffba 	bl	9c38 <assert_post_action>
	return list->head == list;
    7cc4:	492a      	ldr	r1, [pc, #168]	; (7d70 <z_set_prio+0x12c>)
    7cc6:	460b      	mov	r3, r1
    7cc8:	f853 0f20 	ldr.w	r0, [r3, #32]!
	return sys_dlist_is_empty(list) ? NULL : list->head;
    7ccc:	4298      	cmp	r0, r3
    7cce:	bf18      	it	ne
    7cd0:	4605      	movne	r5, r0
    7cd2:	2d00      	cmp	r5, #0
    7cd4:	461a      	mov	r2, r3
    7cd6:	462b      	mov	r3, r5
	return (node != NULL) ? sys_dlist_peek_next_no_check(list, node) : NULL;
    7cd8:	6a4d      	ldr	r5, [r1, #36]	; 0x24
    7cda:	bf38      	it	cc
    7cdc:	2300      	movcc	r3, #0
	SYS_DLIST_FOR_EACH_CONTAINER(pq, t, base.qnode_dlist) {
    7cde:	b36b      	cbz	r3, 7d3c <z_set_prio+0xf8>
	int32_t b1 = thread_1->base.prio;
    7ce0:	f994 600e 	ldrsb.w	r6, [r4, #14]
	int32_t b2 = thread_2->base.prio;
    7ce4:	f993 000e 	ldrsb.w	r0, [r3, #14]
	if (b1 != b2) {
    7ce8:	4286      	cmp	r6, r0
    7cea:	d023      	beq.n	7d34 <z_set_prio+0xf0>
		return b2 - b1;
    7cec:	1b80      	subs	r0, r0, r6
		if (z_sched_prio_cmp(thread, t) > 0) {
    7cee:	2800      	cmp	r0, #0
    7cf0:	dd20      	ble.n	7d34 <z_set_prio+0xf0>
	sys_dnode_t *const prev = successor->prev;
    7cf2:	685a      	ldr	r2, [r3, #4]
	node->next = successor;
    7cf4:	e9c4 3200 	strd	r3, r2, [r4]
	prev->next = node;
    7cf8:	6014      	str	r4, [r2, #0]
	successor->prev = node;
    7cfa:	605c      	str	r4, [r3, #4]
			update_cache(1);
    7cfc:	2001      	movs	r0, #1
    7cfe:	f7ff fc67 	bl	75d0 <update_cache>
    7d02:	2401      	movs	r4, #1
	__ASSERT(z_spin_unlock_valid(l), "Not my spinlock %p", l);
    7d04:	4811      	ldr	r0, [pc, #68]	; (7d4c <z_set_prio+0x108>)
    7d06:	f000 febd 	bl	8a84 <z_spin_unlock_valid>
    7d0a:	b968      	cbnz	r0, 7d28 <z_set_prio+0xe4>
    7d0c:	4a10      	ldr	r2, [pc, #64]	; (7d50 <z_set_prio+0x10c>)
    7d0e:	4919      	ldr	r1, [pc, #100]	; (7d74 <z_set_prio+0x130>)
    7d10:	4811      	ldr	r0, [pc, #68]	; (7d58 <z_set_prio+0x114>)
    7d12:	23ac      	movs	r3, #172	; 0xac
    7d14:	f002 f893 	bl	9e3e <printk>
    7d18:	490c      	ldr	r1, [pc, #48]	; (7d4c <z_set_prio+0x108>)
    7d1a:	4817      	ldr	r0, [pc, #92]	; (7d78 <z_set_prio+0x134>)
    7d1c:	f002 f88f 	bl	9e3e <printk>
    7d20:	480b      	ldr	r0, [pc, #44]	; (7d50 <z_set_prio+0x10c>)
    7d22:	21ac      	movs	r1, #172	; 0xac
    7d24:	f001 ff88 	bl	9c38 <assert_post_action>
	__asm__ volatile(
    7d28:	f387 8811 	msr	BASEPRI, r7
    7d2c:	f3bf 8f6f 	isb	sy
}
    7d30:	4620      	mov	r0, r4
    7d32:	bdf8      	pop	{r3, r4, r5, r6, r7, pc}
	return (node == list->tail) ? NULL : node->next;
    7d34:	42ab      	cmp	r3, r5
    7d36:	d001      	beq.n	7d3c <z_set_prio+0xf8>
    7d38:	681b      	ldr	r3, [r3, #0]
    7d3a:	e7d0      	b.n	7cde <z_set_prio+0x9a>
	node->prev = tail;
    7d3c:	e9c4 2500 	strd	r2, r5, [r4]
	tail->next = node;
    7d40:	602c      	str	r4, [r5, #0]
	list->tail = node;
    7d42:	624c      	str	r4, [r1, #36]	; 0x24
}
    7d44:	e7da      	b.n	7cfc <z_set_prio+0xb8>
			thread->base.prio = prio;
    7d46:	73a6      	strb	r6, [r4, #14]
    7d48:	2400      	movs	r4, #0
    7d4a:	e7db      	b.n	7d04 <z_set_prio+0xc0>
    7d4c:	20000e80 	.word	0x20000e80
    7d50:	0000ba96 	.word	0x0000ba96
    7d54:	0000bae8 	.word	0x0000bae8
    7d58:	0000b2d3 	.word	0x0000b2d3
    7d5c:	0000bafd 	.word	0x0000bafd
    7d60:	20000e6c 	.word	0x20000e6c
    7d64:	20000540 	.word	0x20000540
    7d68:	0000c675 	.word	0x0000c675
    7d6c:	0000c653 	.word	0x0000c653
    7d70:	20000e4c 	.word	0x20000e4c
    7d74:	0000babc 	.word	0x0000babc
    7d78:	0000bad3 	.word	0x0000bad3

00007d7c <z_impl_k_thread_suspend>:
{
    7d7c:	b570      	push	{r4, r5, r6, lr}
    7d7e:	4604      	mov	r4, r0
	return z_abort_timeout(&thread->base.timeout);
    7d80:	3018      	adds	r0, #24
    7d82:	f000 ffbb 	bl	8cfc <z_abort_timeout>
	__asm__ volatile(
    7d86:	f04f 0320 	mov.w	r3, #32
    7d8a:	f3ef 8611 	mrs	r6, BASEPRI
    7d8e:	f383 8812 	msr	BASEPRI_MAX, r3
    7d92:	f3bf 8f6f 	isb	sy
	__ASSERT(z_spin_lock_valid(l), "Recursive spinlock %p", l);
    7d96:	4825      	ldr	r0, [pc, #148]	; (7e2c <z_impl_k_thread_suspend+0xb0>)
    7d98:	f000 fe66 	bl	8a68 <z_spin_lock_valid>
    7d9c:	b968      	cbnz	r0, 7dba <z_impl_k_thread_suspend+0x3e>
    7d9e:	4a24      	ldr	r2, [pc, #144]	; (7e30 <z_impl_k_thread_suspend+0xb4>)
    7da0:	4924      	ldr	r1, [pc, #144]	; (7e34 <z_impl_k_thread_suspend+0xb8>)
    7da2:	4825      	ldr	r0, [pc, #148]	; (7e38 <z_impl_k_thread_suspend+0xbc>)
    7da4:	2381      	movs	r3, #129	; 0x81
    7da6:	f002 f84a 	bl	9e3e <printk>
    7daa:	4920      	ldr	r1, [pc, #128]	; (7e2c <z_impl_k_thread_suspend+0xb0>)
    7dac:	4823      	ldr	r0, [pc, #140]	; (7e3c <z_impl_k_thread_suspend+0xc0>)
    7dae:	f002 f846 	bl	9e3e <printk>
    7db2:	481f      	ldr	r0, [pc, #124]	; (7e30 <z_impl_k_thread_suspend+0xb4>)
    7db4:	2181      	movs	r1, #129	; 0x81
    7db6:	f001 ff3f 	bl	9c38 <assert_post_action>
	z_spin_lock_set_owner(l);
    7dba:	481c      	ldr	r0, [pc, #112]	; (7e2c <z_impl_k_thread_suspend+0xb0>)
    7dbc:	f000 fe72 	bl	8aa4 <z_spin_lock_set_owner>
		if (z_is_thread_queued(thread)) {
    7dc0:	f994 200d 	ldrsb.w	r2, [r4, #13]
	return z_is_thread_state_set(thread, _THREAD_QUEUED);
    7dc4:	7b63      	ldrb	r3, [r4, #13]
    7dc6:	2a00      	cmp	r2, #0
    7dc8:	da06      	bge.n	7dd8 <z_impl_k_thread_suspend+0x5c>
	thread->base.thread_state &= ~_THREAD_QUEUED;
    7dca:	f003 037f 	and.w	r3, r3, #127	; 0x7f
	_priq_run_remove(thread_runq(thread), thread);
    7dce:	481c      	ldr	r0, [pc, #112]	; (7e40 <z_impl_k_thread_suspend+0xc4>)
	thread->base.thread_state &= ~_THREAD_QUEUED;
    7dd0:	7363      	strb	r3, [r4, #13]
	_priq_run_remove(thread_runq(thread), thread);
    7dd2:	4621      	mov	r1, r4
    7dd4:	f7ff fb6c 	bl	74b0 <z_priq_dumb_remove>
		update_cache(thread == _current);
    7dd8:	4d1a      	ldr	r5, [pc, #104]	; (7e44 <z_impl_k_thread_suspend+0xc8>)
	thread->base.thread_state |= _THREAD_SUSPENDED;
    7dda:	7b63      	ldrb	r3, [r4, #13]
    7ddc:	68a8      	ldr	r0, [r5, #8]
    7dde:	f043 0310 	orr.w	r3, r3, #16
    7de2:	7363      	strb	r3, [r4, #13]
    7de4:	1b03      	subs	r3, r0, r4
    7de6:	4258      	negs	r0, r3
    7de8:	4158      	adcs	r0, r3
    7dea:	f7ff fbf1 	bl	75d0 <update_cache>
	__ASSERT(z_spin_unlock_valid(l), "Not my spinlock %p", l);
    7dee:	480f      	ldr	r0, [pc, #60]	; (7e2c <z_impl_k_thread_suspend+0xb0>)
    7df0:	f000 fe48 	bl	8a84 <z_spin_unlock_valid>
    7df4:	b968      	cbnz	r0, 7e12 <z_impl_k_thread_suspend+0x96>
    7df6:	4a0e      	ldr	r2, [pc, #56]	; (7e30 <z_impl_k_thread_suspend+0xb4>)
    7df8:	4913      	ldr	r1, [pc, #76]	; (7e48 <z_impl_k_thread_suspend+0xcc>)
    7dfa:	480f      	ldr	r0, [pc, #60]	; (7e38 <z_impl_k_thread_suspend+0xbc>)
    7dfc:	23ac      	movs	r3, #172	; 0xac
    7dfe:	f002 f81e 	bl	9e3e <printk>
    7e02:	490a      	ldr	r1, [pc, #40]	; (7e2c <z_impl_k_thread_suspend+0xb0>)
    7e04:	4811      	ldr	r0, [pc, #68]	; (7e4c <z_impl_k_thread_suspend+0xd0>)
    7e06:	f002 f81a 	bl	9e3e <printk>
    7e0a:	4809      	ldr	r0, [pc, #36]	; (7e30 <z_impl_k_thread_suspend+0xb4>)
    7e0c:	21ac      	movs	r1, #172	; 0xac
    7e0e:	f001 ff13 	bl	9c38 <assert_post_action>
	__asm__ volatile(
    7e12:	f386 8811 	msr	BASEPRI, r6
    7e16:	f3bf 8f6f 	isb	sy
	if (thread == _current) {
    7e1a:	68ab      	ldr	r3, [r5, #8]
    7e1c:	42a3      	cmp	r3, r4
    7e1e:	d103      	bne.n	7e28 <z_impl_k_thread_suspend+0xac>
}
    7e20:	e8bd 4070 	ldmia.w	sp!, {r4, r5, r6, lr}
		z_reschedule_unlocked();
    7e24:	f002 bf00 	b.w	ac28 <z_reschedule_unlocked>
}
    7e28:	bd70      	pop	{r4, r5, r6, pc}
    7e2a:	bf00      	nop
    7e2c:	20000e80 	.word	0x20000e80
    7e30:	0000ba96 	.word	0x0000ba96
    7e34:	0000bae8 	.word	0x0000bae8
    7e38:	0000b2d3 	.word	0x0000b2d3
    7e3c:	0000bafd 	.word	0x0000bafd
    7e40:	20000e6c 	.word	0x20000e6c
    7e44:	20000e4c 	.word	0x20000e4c
    7e48:	0000babc 	.word	0x0000babc
    7e4c:	0000bad3 	.word	0x0000bad3

00007e50 <k_sched_unlock>:
{
    7e50:	b538      	push	{r3, r4, r5, lr}
	__asm__ volatile(
    7e52:	f04f 0320 	mov.w	r3, #32
    7e56:	f3ef 8511 	mrs	r5, BASEPRI
    7e5a:	f383 8812 	msr	BASEPRI_MAX, r3
    7e5e:	f3bf 8f6f 	isb	sy
	__ASSERT(z_spin_lock_valid(l), "Recursive spinlock %p", l);
    7e62:	482d      	ldr	r0, [pc, #180]	; (7f18 <k_sched_unlock+0xc8>)
    7e64:	f000 fe00 	bl	8a68 <z_spin_lock_valid>
    7e68:	b968      	cbnz	r0, 7e86 <k_sched_unlock+0x36>
    7e6a:	4a2c      	ldr	r2, [pc, #176]	; (7f1c <k_sched_unlock+0xcc>)
    7e6c:	492c      	ldr	r1, [pc, #176]	; (7f20 <k_sched_unlock+0xd0>)
    7e6e:	482d      	ldr	r0, [pc, #180]	; (7f24 <k_sched_unlock+0xd4>)
    7e70:	2381      	movs	r3, #129	; 0x81
    7e72:	f001 ffe4 	bl	9e3e <printk>
    7e76:	4928      	ldr	r1, [pc, #160]	; (7f18 <k_sched_unlock+0xc8>)
    7e78:	482b      	ldr	r0, [pc, #172]	; (7f28 <k_sched_unlock+0xd8>)
    7e7a:	f001 ffe0 	bl	9e3e <printk>
    7e7e:	4827      	ldr	r0, [pc, #156]	; (7f1c <k_sched_unlock+0xcc>)
    7e80:	2181      	movs	r1, #129	; 0x81
    7e82:	f001 fed9 	bl	9c38 <assert_post_action>
		__ASSERT(_current->base.sched_locked != 0U, "");
    7e86:	4c29      	ldr	r4, [pc, #164]	; (7f2c <k_sched_unlock+0xdc>)
	z_spin_lock_set_owner(l);
    7e88:	4823      	ldr	r0, [pc, #140]	; (7f18 <k_sched_unlock+0xc8>)
    7e8a:	f000 fe0b 	bl	8aa4 <z_spin_lock_set_owner>
    7e8e:	68a2      	ldr	r2, [r4, #8]
    7e90:	7bd2      	ldrb	r2, [r2, #15]
    7e92:	b972      	cbnz	r2, 7eb2 <k_sched_unlock+0x62>
    7e94:	4926      	ldr	r1, [pc, #152]	; (7f30 <k_sched_unlock+0xe0>)
    7e96:	4a27      	ldr	r2, [pc, #156]	; (7f34 <k_sched_unlock+0xe4>)
    7e98:	4822      	ldr	r0, [pc, #136]	; (7f24 <k_sched_unlock+0xd4>)
    7e9a:	f240 3385 	movw	r3, #901	; 0x385
    7e9e:	f001 ffce 	bl	9e3e <printk>
    7ea2:	4825      	ldr	r0, [pc, #148]	; (7f38 <k_sched_unlock+0xe8>)
    7ea4:	f001 ffcb 	bl	9e3e <printk>
    7ea8:	4822      	ldr	r0, [pc, #136]	; (7f34 <k_sched_unlock+0xe4>)
    7eaa:	f240 3185 	movw	r1, #901	; 0x385
    7eae:	f001 fec3 	bl	9c38 <assert_post_action>
    7eb2:	f3ef 8305 	mrs	r3, IPSR
		__ASSERT(!arch_is_in_isr(), "");
    7eb6:	b173      	cbz	r3, 7ed6 <k_sched_unlock+0x86>
    7eb8:	4920      	ldr	r1, [pc, #128]	; (7f3c <k_sched_unlock+0xec>)
    7eba:	4a1e      	ldr	r2, [pc, #120]	; (7f34 <k_sched_unlock+0xe4>)
    7ebc:	4819      	ldr	r0, [pc, #100]	; (7f24 <k_sched_unlock+0xd4>)
    7ebe:	f240 3386 	movw	r3, #902	; 0x386
    7ec2:	f001 ffbc 	bl	9e3e <printk>
    7ec6:	481c      	ldr	r0, [pc, #112]	; (7f38 <k_sched_unlock+0xe8>)
    7ec8:	f001 ffb9 	bl	9e3e <printk>
    7ecc:	4819      	ldr	r0, [pc, #100]	; (7f34 <k_sched_unlock+0xe4>)
    7ece:	f240 3186 	movw	r1, #902	; 0x386
    7ed2:	f001 feb1 	bl	9c38 <assert_post_action>
		++_current->base.sched_locked;
    7ed6:	68a2      	ldr	r2, [r4, #8]
    7ed8:	7bd3      	ldrb	r3, [r2, #15]
    7eda:	3301      	adds	r3, #1
		update_cache(0);
    7edc:	2000      	movs	r0, #0
		++_current->base.sched_locked;
    7ede:	73d3      	strb	r3, [r2, #15]
		update_cache(0);
    7ee0:	f7ff fb76 	bl	75d0 <update_cache>
	__ASSERT(z_spin_unlock_valid(l), "Not my spinlock %p", l);
    7ee4:	480c      	ldr	r0, [pc, #48]	; (7f18 <k_sched_unlock+0xc8>)
    7ee6:	f000 fdcd 	bl	8a84 <z_spin_unlock_valid>
    7eea:	b968      	cbnz	r0, 7f08 <k_sched_unlock+0xb8>
    7eec:	4a0b      	ldr	r2, [pc, #44]	; (7f1c <k_sched_unlock+0xcc>)
    7eee:	4914      	ldr	r1, [pc, #80]	; (7f40 <k_sched_unlock+0xf0>)
    7ef0:	480c      	ldr	r0, [pc, #48]	; (7f24 <k_sched_unlock+0xd4>)
    7ef2:	23ac      	movs	r3, #172	; 0xac
    7ef4:	f001 ffa3 	bl	9e3e <printk>
    7ef8:	4907      	ldr	r1, [pc, #28]	; (7f18 <k_sched_unlock+0xc8>)
    7efa:	4812      	ldr	r0, [pc, #72]	; (7f44 <k_sched_unlock+0xf4>)
    7efc:	f001 ff9f 	bl	9e3e <printk>
    7f00:	4806      	ldr	r0, [pc, #24]	; (7f1c <k_sched_unlock+0xcc>)
    7f02:	21ac      	movs	r1, #172	; 0xac
    7f04:	f001 fe98 	bl	9c38 <assert_post_action>
	__asm__ volatile(
    7f08:	f385 8811 	msr	BASEPRI, r5
    7f0c:	f3bf 8f6f 	isb	sy
}
    7f10:	e8bd 4038 	ldmia.w	sp!, {r3, r4, r5, lr}
	z_reschedule_unlocked();
    7f14:	f002 be88 	b.w	ac28 <z_reschedule_unlocked>
    7f18:	20000e80 	.word	0x20000e80
    7f1c:	0000ba96 	.word	0x0000ba96
    7f20:	0000bae8 	.word	0x0000bae8
    7f24:	0000b2d3 	.word	0x0000b2d3
    7f28:	0000bafd 	.word	0x0000bafd
    7f2c:	20000e4c 	.word	0x20000e4c
    7f30:	0000c6d4 	.word	0x0000c6d4
    7f34:	0000c653 	.word	0x0000c653
    7f38:	0000c4ef 	.word	0x0000c4ef
    7f3c:	0000c476 	.word	0x0000c476
    7f40:	0000babc 	.word	0x0000babc
    7f44:	0000bad3 	.word	0x0000bad3

00007f48 <z_unpend1_no_timeout>:
{
    7f48:	b538      	push	{r3, r4, r5, lr}
    7f4a:	4604      	mov	r4, r0
	__asm__ volatile(
    7f4c:	f04f 0320 	mov.w	r3, #32
    7f50:	f3ef 8511 	mrs	r5, BASEPRI
    7f54:	f383 8812 	msr	BASEPRI_MAX, r3
    7f58:	f3bf 8f6f 	isb	sy
	__ASSERT(z_spin_lock_valid(l), "Recursive spinlock %p", l);
    7f5c:	4819      	ldr	r0, [pc, #100]	; (7fc4 <z_unpend1_no_timeout+0x7c>)
    7f5e:	f000 fd83 	bl	8a68 <z_spin_lock_valid>
    7f62:	b968      	cbnz	r0, 7f80 <z_unpend1_no_timeout+0x38>
    7f64:	4a18      	ldr	r2, [pc, #96]	; (7fc8 <z_unpend1_no_timeout+0x80>)
    7f66:	4919      	ldr	r1, [pc, #100]	; (7fcc <z_unpend1_no_timeout+0x84>)
    7f68:	4819      	ldr	r0, [pc, #100]	; (7fd0 <z_unpend1_no_timeout+0x88>)
    7f6a:	2381      	movs	r3, #129	; 0x81
    7f6c:	f001 ff67 	bl	9e3e <printk>
    7f70:	4914      	ldr	r1, [pc, #80]	; (7fc4 <z_unpend1_no_timeout+0x7c>)
    7f72:	4818      	ldr	r0, [pc, #96]	; (7fd4 <z_unpend1_no_timeout+0x8c>)
    7f74:	f001 ff63 	bl	9e3e <printk>
    7f78:	4813      	ldr	r0, [pc, #76]	; (7fc8 <z_unpend1_no_timeout+0x80>)
    7f7a:	2181      	movs	r1, #129	; 0x81
    7f7c:	f001 fe5c 	bl	9c38 <assert_post_action>
	z_spin_lock_set_owner(l);
    7f80:	4810      	ldr	r0, [pc, #64]	; (7fc4 <z_unpend1_no_timeout+0x7c>)
    7f82:	f000 fd8f 	bl	8aa4 <z_spin_lock_set_owner>
		thread = _priq_wait_best(&wait_q->waitq);
    7f86:	4620      	mov	r0, r4
    7f88:	f002 fe58 	bl	ac3c <z_priq_dumb_best>
		if (thread != NULL) {
    7f8c:	4604      	mov	r4, r0
    7f8e:	b108      	cbz	r0, 7f94 <z_unpend1_no_timeout+0x4c>
			unpend_thread_no_timeout(thread);
    7f90:	f7ff fab0 	bl	74f4 <unpend_thread_no_timeout>
	__ASSERT(z_spin_unlock_valid(l), "Not my spinlock %p", l);
    7f94:	480b      	ldr	r0, [pc, #44]	; (7fc4 <z_unpend1_no_timeout+0x7c>)
    7f96:	f000 fd75 	bl	8a84 <z_spin_unlock_valid>
    7f9a:	b968      	cbnz	r0, 7fb8 <z_unpend1_no_timeout+0x70>
    7f9c:	4a0a      	ldr	r2, [pc, #40]	; (7fc8 <z_unpend1_no_timeout+0x80>)
    7f9e:	490e      	ldr	r1, [pc, #56]	; (7fd8 <z_unpend1_no_timeout+0x90>)
    7fa0:	480b      	ldr	r0, [pc, #44]	; (7fd0 <z_unpend1_no_timeout+0x88>)
    7fa2:	23ac      	movs	r3, #172	; 0xac
    7fa4:	f001 ff4b 	bl	9e3e <printk>
    7fa8:	4906      	ldr	r1, [pc, #24]	; (7fc4 <z_unpend1_no_timeout+0x7c>)
    7faa:	480c      	ldr	r0, [pc, #48]	; (7fdc <z_unpend1_no_timeout+0x94>)
    7fac:	f001 ff47 	bl	9e3e <printk>
    7fb0:	4805      	ldr	r0, [pc, #20]	; (7fc8 <z_unpend1_no_timeout+0x80>)
    7fb2:	21ac      	movs	r1, #172	; 0xac
    7fb4:	f001 fe40 	bl	9c38 <assert_post_action>
	__asm__ volatile(
    7fb8:	f385 8811 	msr	BASEPRI, r5
    7fbc:	f3bf 8f6f 	isb	sy
}
    7fc0:	4620      	mov	r0, r4
    7fc2:	bd38      	pop	{r3, r4, r5, pc}
    7fc4:	20000e80 	.word	0x20000e80
    7fc8:	0000ba96 	.word	0x0000ba96
    7fcc:	0000bae8 	.word	0x0000bae8
    7fd0:	0000b2d3 	.word	0x0000b2d3
    7fd4:	0000bafd 	.word	0x0000bafd
    7fd8:	0000babc 	.word	0x0000babc
    7fdc:	0000bad3 	.word	0x0000bad3

00007fe0 <z_unpend_first_thread>:
{
    7fe0:	b538      	push	{r3, r4, r5, lr}
    7fe2:	4604      	mov	r4, r0
	__asm__ volatile(
    7fe4:	f04f 0320 	mov.w	r3, #32
    7fe8:	f3ef 8511 	mrs	r5, BASEPRI
    7fec:	f383 8812 	msr	BASEPRI_MAX, r3
    7ff0:	f3bf 8f6f 	isb	sy
	__ASSERT(z_spin_lock_valid(l), "Recursive spinlock %p", l);
    7ff4:	481b      	ldr	r0, [pc, #108]	; (8064 <CONFIG_PM_PARTITION_SIZE_B0_IMAGE+0x64>)
    7ff6:	f000 fd37 	bl	8a68 <z_spin_lock_valid>
    7ffa:	b968      	cbnz	r0, 8018 <CONFIG_PM_PARTITION_SIZE_B0_IMAGE+0x18>
    7ffc:	4a1a      	ldr	r2, [pc, #104]	; (8068 <CONFIG_PM_PARTITION_SIZE_B0_IMAGE+0x68>)
    7ffe:	491b      	ldr	r1, [pc, #108]	; (806c <CONFIG_PM_PARTITION_SIZE_B0_IMAGE+0x6c>)
    8000:	481b      	ldr	r0, [pc, #108]	; (8070 <CONFIG_PM_PARTITION_SIZE_B0_IMAGE+0x70>)
    8002:	2381      	movs	r3, #129	; 0x81
    8004:	f001 ff1b 	bl	9e3e <printk>
    8008:	4916      	ldr	r1, [pc, #88]	; (8064 <CONFIG_PM_PARTITION_SIZE_B0_IMAGE+0x64>)
    800a:	481a      	ldr	r0, [pc, #104]	; (8074 <CONFIG_PM_PARTITION_SIZE_B0_IMAGE+0x74>)
    800c:	f001 ff17 	bl	9e3e <printk>
    8010:	4815      	ldr	r0, [pc, #84]	; (8068 <CONFIG_PM_PARTITION_SIZE_B0_IMAGE+0x68>)
    8012:	2181      	movs	r1, #129	; 0x81
    8014:	f001 fe10 	bl	9c38 <assert_post_action>
	z_spin_lock_set_owner(l);
    8018:	4812      	ldr	r0, [pc, #72]	; (8064 <CONFIG_PM_PARTITION_SIZE_B0_IMAGE+0x64>)
    801a:	f000 fd43 	bl	8aa4 <z_spin_lock_set_owner>
		thread = _priq_wait_best(&wait_q->waitq);
    801e:	4620      	mov	r0, r4
    8020:	f002 fe0c 	bl	ac3c <z_priq_dumb_best>
		if (thread != NULL) {
    8024:	4604      	mov	r4, r0
    8026:	b128      	cbz	r0, 8034 <CONFIG_PM_PARTITION_SIZE_B0_IMAGE+0x34>
			unpend_thread_no_timeout(thread);
    8028:	f7ff fa64 	bl	74f4 <unpend_thread_no_timeout>
    802c:	f104 0018 	add.w	r0, r4, #24
    8030:	f000 fe64 	bl	8cfc <z_abort_timeout>
	__ASSERT(z_spin_unlock_valid(l), "Not my spinlock %p", l);
    8034:	480b      	ldr	r0, [pc, #44]	; (8064 <CONFIG_PM_PARTITION_SIZE_B0_IMAGE+0x64>)
    8036:	f000 fd25 	bl	8a84 <z_spin_unlock_valid>
    803a:	b968      	cbnz	r0, 8058 <CONFIG_PM_PARTITION_SIZE_B0_IMAGE+0x58>
    803c:	4a0a      	ldr	r2, [pc, #40]	; (8068 <CONFIG_PM_PARTITION_SIZE_B0_IMAGE+0x68>)
    803e:	490e      	ldr	r1, [pc, #56]	; (8078 <CONFIG_PM_PARTITION_SIZE_B0_IMAGE+0x78>)
    8040:	480b      	ldr	r0, [pc, #44]	; (8070 <CONFIG_PM_PARTITION_SIZE_B0_IMAGE+0x70>)
    8042:	23ac      	movs	r3, #172	; 0xac
    8044:	f001 fefb 	bl	9e3e <printk>
    8048:	4906      	ldr	r1, [pc, #24]	; (8064 <CONFIG_PM_PARTITION_SIZE_B0_IMAGE+0x64>)
    804a:	480c      	ldr	r0, [pc, #48]	; (807c <CONFIG_PM_PARTITION_SIZE_B0_IMAGE+0x7c>)
    804c:	f001 fef7 	bl	9e3e <printk>
    8050:	4805      	ldr	r0, [pc, #20]	; (8068 <CONFIG_PM_PARTITION_SIZE_B0_IMAGE+0x68>)
    8052:	21ac      	movs	r1, #172	; 0xac
    8054:	f001 fdf0 	bl	9c38 <assert_post_action>
	__asm__ volatile(
    8058:	f385 8811 	msr	BASEPRI, r5
    805c:	f3bf 8f6f 	isb	sy
}
    8060:	4620      	mov	r0, r4
    8062:	bd38      	pop	{r3, r4, r5, pc}
    8064:	20000e80 	.word	0x20000e80
    8068:	0000ba96 	.word	0x0000ba96
    806c:	0000bae8 	.word	0x0000bae8
    8070:	0000b2d3 	.word	0x0000b2d3
    8074:	0000bafd 	.word	0x0000bafd
    8078:	0000babc 	.word	0x0000babc
    807c:	0000bad3 	.word	0x0000bad3

00008080 <z_sched_init>:
	list->head = (sys_dnode_t *)list;
    8080:	4b04      	ldr	r3, [pc, #16]	; (8094 <z_sched_init+0x14>)
#else
	init_ready_q(&_kernel.ready_q);
#endif

#ifdef CONFIG_TIMESLICING
	k_sched_time_slice_set(CONFIG_TIMESLICE_SIZE,
    8082:	2100      	movs	r1, #0
    8084:	f103 0220 	add.w	r2, r3, #32
	list->tail = (sys_dnode_t *)list;
    8088:	e9c3 2208 	strd	r2, r2, [r3, #32]
    808c:	4608      	mov	r0, r1
    808e:	f7ff b8a9 	b.w	71e4 <k_sched_time_slice_set>
    8092:	bf00      	nop
    8094:	20000e4c 	.word	0x20000e4c

00008098 <z_impl_k_yield>:
#include <syscalls/k_thread_deadline_set_mrsh.c>
#endif
#endif

void z_impl_k_yield(void)
{
    8098:	b5f8      	push	{r3, r4, r5, r6, r7, lr}
    809a:	f3ef 8305 	mrs	r3, IPSR
	__ASSERT(!arch_is_in_isr(), "");
    809e:	b173      	cbz	r3, 80be <z_impl_k_yield+0x26>
    80a0:	4941      	ldr	r1, [pc, #260]	; (81a8 <z_impl_k_yield+0x110>)
    80a2:	4a42      	ldr	r2, [pc, #264]	; (81ac <z_impl_k_yield+0x114>)
    80a4:	4842      	ldr	r0, [pc, #264]	; (81b0 <z_impl_k_yield+0x118>)
    80a6:	f240 43dc 	movw	r3, #1244	; 0x4dc
    80aa:	f001 fec8 	bl	9e3e <printk>
    80ae:	4841      	ldr	r0, [pc, #260]	; (81b4 <z_impl_k_yield+0x11c>)
    80b0:	f001 fec5 	bl	9e3e <printk>
    80b4:	483d      	ldr	r0, [pc, #244]	; (81ac <z_impl_k_yield+0x114>)
    80b6:	f240 41dc 	movw	r1, #1244	; 0x4dc
    80ba:	f001 fdbd 	bl	9c38 <assert_post_action>
	__asm__ volatile(
    80be:	f04f 0320 	mov.w	r3, #32
    80c2:	f3ef 8611 	mrs	r6, BASEPRI
    80c6:	f383 8812 	msr	BASEPRI_MAX, r3
    80ca:	f3bf 8f6f 	isb	sy
	__ASSERT(z_spin_lock_valid(l), "Recursive spinlock %p", l);
    80ce:	483a      	ldr	r0, [pc, #232]	; (81b8 <z_impl_k_yield+0x120>)
    80d0:	f000 fcca 	bl	8a68 <z_spin_lock_valid>
    80d4:	b968      	cbnz	r0, 80f2 <z_impl_k_yield+0x5a>
    80d6:	4a39      	ldr	r2, [pc, #228]	; (81bc <z_impl_k_yield+0x124>)
    80d8:	4939      	ldr	r1, [pc, #228]	; (81c0 <z_impl_k_yield+0x128>)
    80da:	4835      	ldr	r0, [pc, #212]	; (81b0 <z_impl_k_yield+0x118>)
    80dc:	2381      	movs	r3, #129	; 0x81
    80de:	f001 feae 	bl	9e3e <printk>
    80e2:	4935      	ldr	r1, [pc, #212]	; (81b8 <z_impl_k_yield+0x120>)
    80e4:	4837      	ldr	r0, [pc, #220]	; (81c4 <z_impl_k_yield+0x12c>)
    80e6:	f001 feaa 	bl	9e3e <printk>
    80ea:	4834      	ldr	r0, [pc, #208]	; (81bc <z_impl_k_yield+0x124>)
    80ec:	2181      	movs	r1, #129	; 0x81
    80ee:	f001 fda3 	bl	9c38 <assert_post_action>

	k_spinlock_key_t key = k_spin_lock(&sched_spinlock);

	if (!IS_ENABLED(CONFIG_SMP) ||
	    z_is_thread_queued(_current)) {
		dequeue_thread(_current);
    80f2:	4d35      	ldr	r5, [pc, #212]	; (81c8 <z_impl_k_yield+0x130>)
	z_spin_lock_set_owner(l);
    80f4:	4830      	ldr	r0, [pc, #192]	; (81b8 <z_impl_k_yield+0x120>)
    80f6:	f000 fcd5 	bl	8aa4 <z_spin_lock_set_owner>
    80fa:	68a9      	ldr	r1, [r5, #8]
	thread->base.thread_state &= ~_THREAD_QUEUED;
    80fc:	7b4b      	ldrb	r3, [r1, #13]
    80fe:	f003 037f 	and.w	r3, r3, #127	; 0x7f
    8102:	734b      	strb	r3, [r1, #13]
	_priq_run_remove(thread_runq(thread), thread);
    8104:	f105 0020 	add.w	r0, r5, #32
    8108:	f7ff f9d2 	bl	74b0 <z_priq_dumb_remove>
	}
	queue_thread(_current);
    810c:	68ac      	ldr	r4, [r5, #8]
	thread->base.thread_state |= _THREAD_QUEUED;
    810e:	7b63      	ldrb	r3, [r4, #13]
    8110:	f063 037f 	orn	r3, r3, #127	; 0x7f
    8114:	7363      	strb	r3, [r4, #13]
	__ASSERT_NO_MSG(!z_is_idle_thread_object(thread));
    8116:	4b2d      	ldr	r3, [pc, #180]	; (81cc <z_impl_k_yield+0x134>)
    8118:	429c      	cmp	r4, r3
    811a:	d109      	bne.n	8130 <z_impl_k_yield+0x98>
    811c:	492c      	ldr	r1, [pc, #176]	; (81d0 <z_impl_k_yield+0x138>)
    811e:	4824      	ldr	r0, [pc, #144]	; (81b0 <z_impl_k_yield+0x118>)
    8120:	4a22      	ldr	r2, [pc, #136]	; (81ac <z_impl_k_yield+0x114>)
    8122:	23ba      	movs	r3, #186	; 0xba
    8124:	f001 fe8b 	bl	9e3e <printk>
    8128:	4820      	ldr	r0, [pc, #128]	; (81ac <z_impl_k_yield+0x114>)
    812a:	21ba      	movs	r1, #186	; 0xba
    812c:	f001 fd84 	bl	9c38 <assert_post_action>
	return list->head == list;
    8130:	6a2b      	ldr	r3, [r5, #32]
	return sys_dlist_is_empty(list) ? NULL : list->head;
    8132:	4828      	ldr	r0, [pc, #160]	; (81d4 <z_impl_k_yield+0x13c>)
	return (node != NULL) ? sys_dlist_peek_next_no_check(list, node) : NULL;
    8134:	6a69      	ldr	r1, [r5, #36]	; 0x24
	return sys_dlist_is_empty(list) ? NULL : list->head;
    8136:	4283      	cmp	r3, r0
    8138:	bf08      	it	eq
    813a:	2300      	moveq	r3, #0
    813c:	2b00      	cmp	r3, #0
    813e:	bf38      	it	cc
    8140:	2300      	movcc	r3, #0
	SYS_DLIST_FOR_EACH_CONTAINER(pq, t, base.qnode_dlist) {
    8142:	b35b      	cbz	r3, 819c <z_impl_k_yield+0x104>
	int32_t b1 = thread_1->base.prio;
    8144:	f994 700e 	ldrsb.w	r7, [r4, #14]
	int32_t b2 = thread_2->base.prio;
    8148:	f993 200e 	ldrsb.w	r2, [r3, #14]
	if (b1 != b2) {
    814c:	4297      	cmp	r7, r2
    814e:	d021      	beq.n	8194 <z_impl_k_yield+0xfc>
		return b2 - b1;
    8150:	1bd2      	subs	r2, r2, r7
		if (z_sched_prio_cmp(thread, t) > 0) {
    8152:	2a00      	cmp	r2, #0
    8154:	dd1e      	ble.n	8194 <z_impl_k_yield+0xfc>
	sys_dnode_t *const prev = successor->prev;
    8156:	685a      	ldr	r2, [r3, #4]
	node->next = successor;
    8158:	e9c4 3200 	strd	r3, r2, [r4]
	prev->next = node;
    815c:	6014      	str	r4, [r2, #0]
	successor->prev = node;
    815e:	605c      	str	r4, [r3, #4]
	update_cache(1);
    8160:	2001      	movs	r0, #1
    8162:	f7ff fa35 	bl	75d0 <update_cache>
	__ASSERT(z_spin_unlock_valid(l), "Not my spinlock %p", l);
    8166:	4814      	ldr	r0, [pc, #80]	; (81b8 <z_impl_k_yield+0x120>)
    8168:	f000 fc8c 	bl	8a84 <z_spin_unlock_valid>
    816c:	b968      	cbnz	r0, 818a <z_impl_k_yield+0xf2>
    816e:	4a13      	ldr	r2, [pc, #76]	; (81bc <z_impl_k_yield+0x124>)
    8170:	4919      	ldr	r1, [pc, #100]	; (81d8 <z_impl_k_yield+0x140>)
    8172:	480f      	ldr	r0, [pc, #60]	; (81b0 <z_impl_k_yield+0x118>)
    8174:	23c3      	movs	r3, #195	; 0xc3
    8176:	f001 fe62 	bl	9e3e <printk>
    817a:	490f      	ldr	r1, [pc, #60]	; (81b8 <z_impl_k_yield+0x120>)
    817c:	4817      	ldr	r0, [pc, #92]	; (81dc <z_impl_k_yield+0x144>)
    817e:	f001 fe5e 	bl	9e3e <printk>
    8182:	480e      	ldr	r0, [pc, #56]	; (81bc <z_impl_k_yield+0x124>)
    8184:	21c3      	movs	r1, #195	; 0xc3
    8186:	f001 fd57 	bl	9c38 <assert_post_action>
    818a:	4630      	mov	r0, r6
	z_swap(&sched_spinlock, key);
}
    818c:	e8bd 40f8 	ldmia.w	sp!, {r3, r4, r5, r6, r7, lr}
    8190:	f7fb b95a 	b.w	3448 <arch_swap>
	return (node == list->tail) ? NULL : node->next;
    8194:	428b      	cmp	r3, r1
    8196:	d001      	beq.n	819c <z_impl_k_yield+0x104>
    8198:	681b      	ldr	r3, [r3, #0]
    819a:	e7d2      	b.n	8142 <z_impl_k_yield+0xaa>
	node->prev = tail;
    819c:	e9c4 0100 	strd	r0, r1, [r4]
	tail->next = node;
    81a0:	600c      	str	r4, [r1, #0]
	list->tail = node;
    81a2:	626c      	str	r4, [r5, #36]	; 0x24
}
    81a4:	e7dc      	b.n	8160 <z_impl_k_yield+0xc8>
    81a6:	bf00      	nop
    81a8:	0000c476 	.word	0x0000c476
    81ac:	0000c653 	.word	0x0000c653
    81b0:	0000b2d3 	.word	0x0000b2d3
    81b4:	0000c4ef 	.word	0x0000c4ef
    81b8:	20000e80 	.word	0x20000e80
    81bc:	0000ba96 	.word	0x0000ba96
    81c0:	0000bae8 	.word	0x0000bae8
    81c4:	0000bafd 	.word	0x0000bafd
    81c8:	20000e4c 	.word	0x20000e4c
    81cc:	20000540 	.word	0x20000540
    81d0:	0000c675 	.word	0x0000c675
    81d4:	20000e6c 	.word	0x20000e6c
    81d8:	0000babc 	.word	0x0000babc
    81dc:	0000bad3 	.word	0x0000bad3

000081e0 <z_tick_sleep>:
}
#include <syscalls/k_yield_mrsh.c>
#endif

static int32_t z_tick_sleep(k_ticks_t ticks)
{
    81e0:	e92d 41f0 	stmdb	sp!, {r4, r5, r6, r7, r8, lr}
    81e4:	4604      	mov	r4, r0
    81e6:	460d      	mov	r5, r1
    81e8:	f3ef 8305 	mrs	r3, IPSR
#ifdef CONFIG_MULTITHREADING
	uint32_t expected_wakeup_ticks;

	__ASSERT(!arch_is_in_isr(), "");
    81ec:	b173      	cbz	r3, 820c <z_tick_sleep+0x2c>
    81ee:	4945      	ldr	r1, [pc, #276]	; (8304 <z_tick_sleep+0x124>)
    81f0:	4a45      	ldr	r2, [pc, #276]	; (8308 <z_tick_sleep+0x128>)
    81f2:	4846      	ldr	r0, [pc, #280]	; (830c <z_tick_sleep+0x12c>)
    81f4:	f44f 639f 	mov.w	r3, #1272	; 0x4f8
    81f8:	f001 fe21 	bl	9e3e <printk>
    81fc:	4844      	ldr	r0, [pc, #272]	; (8310 <z_tick_sleep+0x130>)
    81fe:	f001 fe1e 	bl	9e3e <printk>
    8202:	4841      	ldr	r0, [pc, #260]	; (8308 <z_tick_sleep+0x128>)
    8204:	f44f 619f 	mov.w	r1, #1272	; 0x4f8
    8208:	f001 fd16 	bl	9c38 <assert_post_action>
	 */
	LOG_DBG("thread %p for %u ticks", _current, ticks);
#endif

	/* wait of 0 ms is treated as a 'yield' */
	if (ticks == 0) {
    820c:	ea54 0305 	orrs.w	r3, r4, r5
    8210:	d104      	bne.n	821c <z_tick_sleep+0x3c>
	z_impl_k_yield();
    8212:	f7ff ff41 	bl	8098 <z_impl_k_yield>
		k_yield();
		return 0;
    8216:	2000      	movs	r0, #0
		return ticks;
	}
#endif

	return 0;
}
    8218:	e8bd 81f0 	ldmia.w	sp!, {r4, r5, r6, r7, r8, pc}
	if (Z_TICK_ABS(ticks) <= 0) {
    821c:	f06f 0301 	mvn.w	r3, #1
    8220:	1b1e      	subs	r6, r3, r4
    8222:	f04f 33ff 	mov.w	r3, #4294967295
    8226:	eb63 0705 	sbc.w	r7, r3, r5
    822a:	2e01      	cmp	r6, #1
    822c:	f177 0300 	sbcs.w	r3, r7, #0
    8230:	da64      	bge.n	82fc <z_tick_sleep+0x11c>
		expected_wakeup_ticks = ticks + sys_clock_tick_get_32();
    8232:	f002 fd28 	bl	ac86 <sys_clock_tick_get_32>
    8236:	1906      	adds	r6, r0, r4
    8238:	f04f 0320 	mov.w	r3, #32
    823c:	f3ef 8811 	mrs	r8, BASEPRI
    8240:	f383 8812 	msr	BASEPRI_MAX, r3
    8244:	f3bf 8f6f 	isb	sy
	__ASSERT(z_spin_lock_valid(l), "Recursive spinlock %p", l);
    8248:	4832      	ldr	r0, [pc, #200]	; (8314 <z_tick_sleep+0x134>)
    824a:	f000 fc0d 	bl	8a68 <z_spin_lock_valid>
    824e:	b968      	cbnz	r0, 826c <z_tick_sleep+0x8c>
    8250:	4a31      	ldr	r2, [pc, #196]	; (8318 <z_tick_sleep+0x138>)
    8252:	4932      	ldr	r1, [pc, #200]	; (831c <z_tick_sleep+0x13c>)
    8254:	482d      	ldr	r0, [pc, #180]	; (830c <z_tick_sleep+0x12c>)
    8256:	2381      	movs	r3, #129	; 0x81
    8258:	f001 fdf1 	bl	9e3e <printk>
    825c:	492d      	ldr	r1, [pc, #180]	; (8314 <z_tick_sleep+0x134>)
    825e:	4830      	ldr	r0, [pc, #192]	; (8320 <z_tick_sleep+0x140>)
    8260:	f001 fded 	bl	9e3e <printk>
    8264:	482c      	ldr	r0, [pc, #176]	; (8318 <z_tick_sleep+0x138>)
    8266:	2181      	movs	r1, #129	; 0x81
    8268:	f001 fce6 	bl	9c38 <assert_post_action>
	pending_current = _current;
    826c:	4f2d      	ldr	r7, [pc, #180]	; (8324 <z_tick_sleep+0x144>)
	z_spin_lock_set_owner(l);
    826e:	4829      	ldr	r0, [pc, #164]	; (8314 <z_tick_sleep+0x134>)
    8270:	f000 fc18 	bl	8aa4 <z_spin_lock_set_owner>
    8274:	4b2c      	ldr	r3, [pc, #176]	; (8328 <z_tick_sleep+0x148>)
    8276:	68b8      	ldr	r0, [r7, #8]
    8278:	6018      	str	r0, [r3, #0]
	unready_thread(_current);
    827a:	f7ff fbf7 	bl	7a6c <unready_thread>
	z_add_thread_timeout(_current, timeout);
    827e:	68b8      	ldr	r0, [r7, #8]
	z_add_timeout(&thread->base.timeout, z_thread_timeout, ticks);
    8280:	492a      	ldr	r1, [pc, #168]	; (832c <z_tick_sleep+0x14c>)
    8282:	4622      	mov	r2, r4
    8284:	462b      	mov	r3, r5
    8286:	3018      	adds	r0, #24
    8288:	f000 fc64 	bl	8b54 <z_add_timeout>
	z_mark_thread_as_suspended(_current);
    828c:	68ba      	ldr	r2, [r7, #8]
	__ASSERT(z_spin_unlock_valid(l), "Not my spinlock %p", l);
    828e:	4821      	ldr	r0, [pc, #132]	; (8314 <z_tick_sleep+0x134>)
    8290:	7b53      	ldrb	r3, [r2, #13]
    8292:	f043 0310 	orr.w	r3, r3, #16
    8296:	7353      	strb	r3, [r2, #13]
    8298:	f000 fbf4 	bl	8a84 <z_spin_unlock_valid>
    829c:	b968      	cbnz	r0, 82ba <z_tick_sleep+0xda>
    829e:	4a1e      	ldr	r2, [pc, #120]	; (8318 <z_tick_sleep+0x138>)
    82a0:	4923      	ldr	r1, [pc, #140]	; (8330 <z_tick_sleep+0x150>)
    82a2:	481a      	ldr	r0, [pc, #104]	; (830c <z_tick_sleep+0x12c>)
    82a4:	23c3      	movs	r3, #195	; 0xc3
    82a6:	f001 fdca 	bl	9e3e <printk>
    82aa:	491a      	ldr	r1, [pc, #104]	; (8314 <z_tick_sleep+0x134>)
    82ac:	4821      	ldr	r0, [pc, #132]	; (8334 <z_tick_sleep+0x154>)
    82ae:	f001 fdc6 	bl	9e3e <printk>
    82b2:	4819      	ldr	r0, [pc, #100]	; (8318 <z_tick_sleep+0x138>)
    82b4:	21c3      	movs	r1, #195	; 0xc3
    82b6:	f001 fcbf 	bl	9c38 <assert_post_action>
    82ba:	4640      	mov	r0, r8
    82bc:	f7fb f8c4 	bl	3448 <arch_swap>
	__ASSERT(!z_is_thread_state_set(_current, _THREAD_SUSPENDED), "");
    82c0:	68bb      	ldr	r3, [r7, #8]
    82c2:	7b5b      	ldrb	r3, [r3, #13]
    82c4:	06db      	lsls	r3, r3, #27
    82c6:	d50e      	bpl.n	82e6 <z_tick_sleep+0x106>
    82c8:	491b      	ldr	r1, [pc, #108]	; (8338 <z_tick_sleep+0x158>)
    82ca:	4a0f      	ldr	r2, [pc, #60]	; (8308 <z_tick_sleep+0x128>)
    82cc:	480f      	ldr	r0, [pc, #60]	; (830c <z_tick_sleep+0x12c>)
    82ce:	f240 5319 	movw	r3, #1305	; 0x519
    82d2:	f001 fdb4 	bl	9e3e <printk>
    82d6:	480e      	ldr	r0, [pc, #56]	; (8310 <z_tick_sleep+0x130>)
    82d8:	f001 fdb1 	bl	9e3e <printk>
    82dc:	480a      	ldr	r0, [pc, #40]	; (8308 <z_tick_sleep+0x128>)
    82de:	f240 5119 	movw	r1, #1305	; 0x519
    82e2:	f001 fca9 	bl	9c38 <assert_post_action>
	ticks = (k_ticks_t)expected_wakeup_ticks - sys_clock_tick_get_32();
    82e6:	f002 fcce 	bl	ac86 <sys_clock_tick_get_32>
    82ea:	1a30      	subs	r0, r6, r0
    82ec:	eb66 0106 	sbc.w	r1, r6, r6
		return ticks;
    82f0:	2801      	cmp	r0, #1
    82f2:	f171 0300 	sbcs.w	r3, r1, #0
    82f6:	bfb8      	it	lt
    82f8:	2000      	movlt	r0, #0
    82fa:	e78d      	b.n	8218 <z_tick_sleep+0x38>
		expected_wakeup_ticks = Z_TICK_ABS(ticks);
    82fc:	f06f 0601 	mvn.w	r6, #1
    8300:	1b36      	subs	r6, r6, r4
    8302:	e799      	b.n	8238 <z_tick_sleep+0x58>
    8304:	0000c476 	.word	0x0000c476
    8308:	0000c653 	.word	0x0000c653
    830c:	0000b2d3 	.word	0x0000b2d3
    8310:	0000c4ef 	.word	0x0000c4ef
    8314:	20000e80 	.word	0x20000e80
    8318:	0000ba96 	.word	0x0000ba96
    831c:	0000bae8 	.word	0x0000bae8
    8320:	0000bafd 	.word	0x0000bafd
    8324:	20000e4c 	.word	0x20000e4c
    8328:	20000e7c 	.word	0x20000e7c
    832c:	000079b9 	.word	0x000079b9
    8330:	0000babc 	.word	0x0000babc
    8334:	0000bad3 	.word	0x0000bad3
    8338:	0000c705 	.word	0x0000c705

0000833c <z_impl_k_sleep>:

int32_t z_impl_k_sleep(k_timeout_t timeout)
{
    833c:	b538      	push	{r3, r4, r5, lr}
    833e:	4604      	mov	r4, r0
    8340:	460d      	mov	r5, r1
    8342:	f3ef 8305 	mrs	r3, IPSR
	k_ticks_t ticks;

	__ASSERT(!arch_is_in_isr(), "");
    8346:	b173      	cbz	r3, 8366 <z_impl_k_sleep+0x2a>
    8348:	4913      	ldr	r1, [pc, #76]	; (8398 <z_impl_k_sleep+0x5c>)
    834a:	4a14      	ldr	r2, [pc, #80]	; (839c <z_impl_k_sleep+0x60>)
    834c:	4814      	ldr	r0, [pc, #80]	; (83a0 <z_impl_k_sleep+0x64>)
    834e:	f44f 63a5 	mov.w	r3, #1320	; 0x528
    8352:	f001 fd74 	bl	9e3e <printk>
    8356:	4813      	ldr	r0, [pc, #76]	; (83a4 <z_impl_k_sleep+0x68>)
    8358:	f001 fd71 	bl	9e3e <printk>
    835c:	480f      	ldr	r0, [pc, #60]	; (839c <z_impl_k_sleep+0x60>)
    835e:	f44f 61a5 	mov.w	r1, #1320	; 0x528
    8362:	f001 fc69 	bl	9c38 <assert_post_action>

	SYS_PORT_TRACING_FUNC_ENTER(k_thread, sleep, timeout);

	/* in case of K_FOREVER, we suspend */
	if (K_TIMEOUT_EQ(timeout, K_FOREVER)) {
    8366:	1c6b      	adds	r3, r5, #1
    8368:	bf08      	it	eq
    836a:	f1b4 3fff 	cmpeq.w	r4, #4294967295
    836e:	d106      	bne.n	837e <z_impl_k_sleep+0x42>
		k_thread_suspend(_current);
    8370:	4b0d      	ldr	r3, [pc, #52]	; (83a8 <z_impl_k_sleep+0x6c>)
    8372:	6898      	ldr	r0, [r3, #8]
	z_impl_k_thread_suspend(thread);
    8374:	f7ff fd02 	bl	7d7c <z_impl_k_thread_suspend>

		SYS_PORT_TRACING_FUNC_EXIT(k_thread, sleep, timeout, (int32_t) K_TICKS_FOREVER);

		return (int32_t) K_TICKS_FOREVER;
    8378:	f04f 30ff 	mov.w	r0, #4294967295
	int32_t ret = k_ticks_to_ms_floor64(ticks);

	SYS_PORT_TRACING_FUNC_EXIT(k_thread, sleep, timeout, ret);

	return ret;
}
    837c:	bd38      	pop	{r3, r4, r5, pc}
	ticks = z_tick_sleep(ticks);
    837e:	4620      	mov	r0, r4
    8380:	4629      	mov	r1, r5
    8382:	f7ff ff2d 	bl	81e0 <z_tick_sleep>
			return (t * to_hz + off) / from_hz;
    8386:	f44f 737a 	mov.w	r3, #1000	; 0x3e8
    838a:	fb80 3403 	smull	r3, r4, r0, r3
    838e:	0bd8      	lsrs	r0, r3, #15
    8390:	ea40 4044 	orr.w	r0, r0, r4, lsl #17
	return ret;
    8394:	e7f2      	b.n	837c <z_impl_k_sleep+0x40>
    8396:	bf00      	nop
    8398:	0000c476 	.word	0x0000c476
    839c:	0000c653 	.word	0x0000c653
    83a0:	0000b2d3 	.word	0x0000b2d3
    83a4:	0000c4ef 	.word	0x0000c4ef
    83a8:	20000e4c 	.word	0x20000e4c

000083ac <z_impl_z_current_get>:

#ifdef CONFIG_SMP
	arch_irq_unlock(k);
#endif
	return ret;
}
    83ac:	4b01      	ldr	r3, [pc, #4]	; (83b4 <z_impl_z_current_get+0x8>)
    83ae:	6898      	ldr	r0, [r3, #8]
    83b0:	4770      	bx	lr
    83b2:	bf00      	nop
    83b4:	20000e4c 	.word	0x20000e4c

000083b8 <z_impl_k_is_preempt_thread>:
    83b8:	f3ef 8305 	mrs	r3, IPSR
#include <syscalls/z_current_get_mrsh.c>
#endif

int z_impl_k_is_preempt_thread(void)
{
	return !arch_is_in_isr() && is_preempt(_current);
    83bc:	b93b      	cbnz	r3, 83ce <z_impl_k_is_preempt_thread+0x16>
    83be:	4b05      	ldr	r3, [pc, #20]	; (83d4 <z_impl_k_is_preempt_thread+0x1c>)
    83c0:	689b      	ldr	r3, [r3, #8]
    83c2:	89d8      	ldrh	r0, [r3, #14]
    83c4:	287f      	cmp	r0, #127	; 0x7f
    83c6:	bf8c      	ite	hi
    83c8:	2000      	movhi	r0, #0
    83ca:	2001      	movls	r0, #1
    83cc:	4770      	bx	lr
    83ce:	2000      	movs	r0, #0
}
    83d0:	4770      	bx	lr
    83d2:	bf00      	nop
    83d4:	20000e4c 	.word	0x20000e4c

000083d8 <z_thread_abort>:
#endif
	}
}

void z_thread_abort(struct k_thread *thread)
{
    83d8:	e92d 41f0 	stmdb	sp!, {r4, r5, r6, r7, r8, lr}
    83dc:	4604      	mov	r4, r0
    83de:	f04f 0320 	mov.w	r3, #32
    83e2:	f3ef 8611 	mrs	r6, BASEPRI
    83e6:	f383 8812 	msr	BASEPRI_MAX, r3
    83ea:	f3bf 8f6f 	isb	sy
	__ASSERT(z_spin_lock_valid(l), "Recursive spinlock %p", l);
    83ee:	4848      	ldr	r0, [pc, #288]	; (8510 <z_thread_abort+0x138>)
    83f0:	f000 fb3a 	bl	8a68 <z_spin_lock_valid>
    83f4:	b968      	cbnz	r0, 8412 <z_thread_abort+0x3a>
    83f6:	4a47      	ldr	r2, [pc, #284]	; (8514 <z_thread_abort+0x13c>)
    83f8:	4947      	ldr	r1, [pc, #284]	; (8518 <z_thread_abort+0x140>)
    83fa:	4848      	ldr	r0, [pc, #288]	; (851c <z_thread_abort+0x144>)
    83fc:	2381      	movs	r3, #129	; 0x81
    83fe:	f001 fd1e 	bl	9e3e <printk>
    8402:	4943      	ldr	r1, [pc, #268]	; (8510 <z_thread_abort+0x138>)
    8404:	4846      	ldr	r0, [pc, #280]	; (8520 <z_thread_abort+0x148>)
    8406:	f001 fd1a 	bl	9e3e <printk>
    840a:	4842      	ldr	r0, [pc, #264]	; (8514 <z_thread_abort+0x13c>)
    840c:	2181      	movs	r1, #129	; 0x81
    840e:	f001 fc13 	bl	9c38 <assert_post_action>
	z_spin_lock_set_owner(l);
    8412:	483f      	ldr	r0, [pc, #252]	; (8510 <z_thread_abort+0x138>)
    8414:	f000 fb46 	bl	8aa4 <z_spin_lock_set_owner>
	k_spinlock_key_t key = k_spin_lock(&sched_spinlock);

	if ((thread->base.thread_state & _THREAD_DEAD) != 0U) {
    8418:	7b63      	ldrb	r3, [r4, #13]
    841a:	071a      	lsls	r2, r3, #28
    841c:	d517      	bpl.n	844e <z_thread_abort+0x76>
	__ASSERT(z_spin_unlock_valid(l), "Not my spinlock %p", l);
    841e:	483c      	ldr	r0, [pc, #240]	; (8510 <z_thread_abort+0x138>)
    8420:	f000 fb30 	bl	8a84 <z_spin_unlock_valid>
    8424:	b968      	cbnz	r0, 8442 <z_thread_abort+0x6a>
    8426:	4a3b      	ldr	r2, [pc, #236]	; (8514 <z_thread_abort+0x13c>)
    8428:	493e      	ldr	r1, [pc, #248]	; (8524 <z_thread_abort+0x14c>)
    842a:	483c      	ldr	r0, [pc, #240]	; (851c <z_thread_abort+0x144>)
    842c:	23ac      	movs	r3, #172	; 0xac
    842e:	f001 fd06 	bl	9e3e <printk>
    8432:	4937      	ldr	r1, [pc, #220]	; (8510 <z_thread_abort+0x138>)
    8434:	483c      	ldr	r0, [pc, #240]	; (8528 <z_thread_abort+0x150>)
    8436:	f001 fd02 	bl	9e3e <printk>
    843a:	4836      	ldr	r0, [pc, #216]	; (8514 <z_thread_abort+0x13c>)
    843c:	21ac      	movs	r1, #172	; 0xac
    843e:	f001 fbfb 	bl	9c38 <assert_post_action>
	__asm__ volatile(
    8442:	f386 8811 	msr	BASEPRI, r6
    8446:	f3bf 8f6f 	isb	sy
	if (thread == _current && !arch_is_in_isr()) {
		z_swap(&sched_spinlock, key);
		__ASSERT(false, "aborted _current back from dead");
	}
	k_spin_unlock(&sched_spinlock, key);
}
    844a:	e8bd 81f0 	ldmia.w	sp!, {r4, r5, r6, r7, r8, pc}
		thread->base.thread_state &= ~_THREAD_ABORTING;
    844e:	f023 0220 	bic.w	r2, r3, #32
    8452:	f042 0108 	orr.w	r1, r2, #8
		if (z_is_thread_queued(thread)) {
    8456:	09d2      	lsrs	r2, r2, #7
    8458:	d142      	bne.n	84e0 <z_thread_abort+0x108>
		thread->base.thread_state &= ~_THREAD_ABORTING;
    845a:	7361      	strb	r1, [r4, #13]
		if (thread->base.pended_on != NULL) {
    845c:	68a3      	ldr	r3, [r4, #8]
    845e:	b113      	cbz	r3, 8466 <z_thread_abort+0x8e>
			unpend_thread_no_timeout(thread);
    8460:	4620      	mov	r0, r4
    8462:	f7ff f847 	bl	74f4 <unpend_thread_no_timeout>
	return z_abort_timeout(&thread->base.timeout);
    8466:	f104 0018 	add.w	r0, r4, #24
    846a:	f000 fc47 	bl	8cfc <z_abort_timeout>
	sys_dlist_init(&w->waitq);
}

static inline struct k_thread *z_waitq_head(_wait_q_t *w)
{
	return (struct k_thread *)sys_dlist_peek_head(&w->waitq);
    846e:	f104 0758 	add.w	r7, r4, #88	; 0x58
    8472:	f04f 0800 	mov.w	r8, #0
	return list->head == list;
    8476:	6da5      	ldr	r5, [r4, #88]	; 0x58
	return sys_dlist_is_empty(list) ? NULL : list->head;
    8478:	42bd      	cmp	r5, r7
    847a:	d001      	beq.n	8480 <z_thread_abort+0xa8>
	while ((thread = z_waitq_head(wait_q)) != NULL) {
    847c:	2d00      	cmp	r5, #0
    847e:	d139      	bne.n	84f4 <z_thread_abort+0x11c>
		update_cache(1);
    8480:	2001      	movs	r0, #1
    8482:	f7ff f8a5 	bl	75d0 <update_cache>
	if (thread == _current && !arch_is_in_isr()) {
    8486:	4b29      	ldr	r3, [pc, #164]	; (852c <z_thread_abort+0x154>)
    8488:	689b      	ldr	r3, [r3, #8]
    848a:	42a3      	cmp	r3, r4
    848c:	d1c7      	bne.n	841e <z_thread_abort+0x46>
    848e:	f3ef 8305 	mrs	r3, IPSR
    8492:	2b00      	cmp	r3, #0
    8494:	d1c3      	bne.n	841e <z_thread_abort+0x46>
	__ASSERT(z_spin_unlock_valid(l), "Not my spinlock %p", l);
    8496:	481e      	ldr	r0, [pc, #120]	; (8510 <z_thread_abort+0x138>)
    8498:	f000 faf4 	bl	8a84 <z_spin_unlock_valid>
    849c:	b968      	cbnz	r0, 84ba <z_thread_abort+0xe2>
    849e:	4a1d      	ldr	r2, [pc, #116]	; (8514 <z_thread_abort+0x13c>)
    84a0:	4920      	ldr	r1, [pc, #128]	; (8524 <z_thread_abort+0x14c>)
    84a2:	481e      	ldr	r0, [pc, #120]	; (851c <z_thread_abort+0x144>)
    84a4:	23c3      	movs	r3, #195	; 0xc3
    84a6:	f001 fcca 	bl	9e3e <printk>
    84aa:	4919      	ldr	r1, [pc, #100]	; (8510 <z_thread_abort+0x138>)
    84ac:	481e      	ldr	r0, [pc, #120]	; (8528 <z_thread_abort+0x150>)
    84ae:	f001 fcc6 	bl	9e3e <printk>
    84b2:	4818      	ldr	r0, [pc, #96]	; (8514 <z_thread_abort+0x13c>)
    84b4:	21c3      	movs	r1, #195	; 0xc3
    84b6:	f001 fbbf 	bl	9c38 <assert_post_action>
    84ba:	4630      	mov	r0, r6
    84bc:	f7fa ffc4 	bl	3448 <arch_swap>
		__ASSERT(false, "aborted _current back from dead");
    84c0:	4a1b      	ldr	r2, [pc, #108]	; (8530 <z_thread_abort+0x158>)
    84c2:	491c      	ldr	r1, [pc, #112]	; (8534 <z_thread_abort+0x15c>)
    84c4:	4815      	ldr	r0, [pc, #84]	; (851c <z_thread_abort+0x144>)
    84c6:	f240 634b 	movw	r3, #1611	; 0x64b
    84ca:	f001 fcb8 	bl	9e3e <printk>
    84ce:	481a      	ldr	r0, [pc, #104]	; (8538 <z_thread_abort+0x160>)
    84d0:	f001 fcb5 	bl	9e3e <printk>
    84d4:	4816      	ldr	r0, [pc, #88]	; (8530 <z_thread_abort+0x158>)
    84d6:	f240 614b 	movw	r1, #1611	; 0x64b
    84da:	f001 fbad 	bl	9c38 <assert_post_action>
    84de:	e79e      	b.n	841e <z_thread_abort+0x46>
	thread->base.thread_state &= ~_THREAD_QUEUED;
    84e0:	f003 035f 	and.w	r3, r3, #95	; 0x5f
    84e4:	f043 0308 	orr.w	r3, r3, #8
	_priq_run_remove(thread_runq(thread), thread);
    84e8:	4814      	ldr	r0, [pc, #80]	; (853c <z_thread_abort+0x164>)
	thread->base.thread_state &= ~_THREAD_QUEUED;
    84ea:	7363      	strb	r3, [r4, #13]
	_priq_run_remove(thread_runq(thread), thread);
    84ec:	4621      	mov	r1, r4
    84ee:	f7fe ffdf 	bl	74b0 <z_priq_dumb_remove>
}
    84f2:	e7b3      	b.n	845c <z_thread_abort+0x84>
		unpend_thread_no_timeout(thread);
    84f4:	4628      	mov	r0, r5
    84f6:	f7fe fffd 	bl	74f4 <unpend_thread_no_timeout>
    84fa:	f105 0018 	add.w	r0, r5, #24
    84fe:	f000 fbfd 	bl	8cfc <z_abort_timeout>
    8502:	f8c5 807c 	str.w	r8, [r5, #124]	; 0x7c
		ready_thread(thread);
    8506:	4628      	mov	r0, r5
    8508:	f7ff f968 	bl	77dc <ready_thread>
    850c:	e7b3      	b.n	8476 <z_thread_abort+0x9e>
    850e:	bf00      	nop
    8510:	20000e80 	.word	0x20000e80
    8514:	0000ba96 	.word	0x0000ba96
    8518:	0000bae8 	.word	0x0000bae8
    851c:	0000b2d3 	.word	0x0000b2d3
    8520:	0000bafd 	.word	0x0000bafd
    8524:	0000babc 	.word	0x0000babc
    8528:	0000bad3 	.word	0x0000bad3
    852c:	20000e4c 	.word	0x20000e4c
    8530:	0000c653 	.word	0x0000c653
    8534:	0000b2d1 	.word	0x0000b2d1
    8538:	0000c745 	.word	0x0000c745
    853c:	20000e6c 	.word	0x20000e6c

00008540 <z_sched_wake>:

/*
 * future scheduler.h API implementations
 */
bool z_sched_wake(_wait_q_t *wait_q, int swap_retval, void *swap_data)
{
    8540:	b5f8      	push	{r3, r4, r5, r6, r7, lr}
    8542:	4604      	mov	r4, r0
    8544:	460e      	mov	r6, r1
    8546:	4615      	mov	r5, r2
	__asm__ volatile(
    8548:	f04f 0320 	mov.w	r3, #32
    854c:	f3ef 8711 	mrs	r7, BASEPRI
    8550:	f383 8812 	msr	BASEPRI_MAX, r3
    8554:	f3bf 8f6f 	isb	sy
	__ASSERT(z_spin_lock_valid(l), "Recursive spinlock %p", l);
    8558:	481e      	ldr	r0, [pc, #120]	; (85d4 <z_sched_wake+0x94>)
    855a:	f000 fa85 	bl	8a68 <z_spin_lock_valid>
    855e:	b968      	cbnz	r0, 857c <z_sched_wake+0x3c>
    8560:	4a1d      	ldr	r2, [pc, #116]	; (85d8 <z_sched_wake+0x98>)
    8562:	491e      	ldr	r1, [pc, #120]	; (85dc <z_sched_wake+0x9c>)
    8564:	481e      	ldr	r0, [pc, #120]	; (85e0 <z_sched_wake+0xa0>)
    8566:	2381      	movs	r3, #129	; 0x81
    8568:	f001 fc69 	bl	9e3e <printk>
    856c:	4919      	ldr	r1, [pc, #100]	; (85d4 <z_sched_wake+0x94>)
    856e:	481d      	ldr	r0, [pc, #116]	; (85e4 <z_sched_wake+0xa4>)
    8570:	f001 fc65 	bl	9e3e <printk>
    8574:	4818      	ldr	r0, [pc, #96]	; (85d8 <z_sched_wake+0x98>)
    8576:	2181      	movs	r1, #129	; 0x81
    8578:	f001 fb5e 	bl	9c38 <assert_post_action>
	z_spin_lock_set_owner(l);
    857c:	4815      	ldr	r0, [pc, #84]	; (85d4 <z_sched_wake+0x94>)
    857e:	f000 fa91 	bl	8aa4 <z_spin_lock_set_owner>
	struct k_thread *thread;
	bool ret = false;

	LOCKED(&sched_spinlock) {
		thread = _priq_wait_best(&wait_q->waitq);
    8582:	4620      	mov	r0, r4
    8584:	f002 fb5a 	bl	ac3c <z_priq_dumb_best>

		if (thread != NULL) {
    8588:	4604      	mov	r4, r0
    858a:	b158      	cbz	r0, 85a4 <z_sched_wake+0x64>
    858c:	67c6      	str	r6, [r0, #124]	; 0x7c
    858e:	6145      	str	r5, [r0, #20]
			z_thread_return_value_set_with_data(thread,
							    swap_retval,
							    swap_data);
			unpend_thread_no_timeout(thread);
    8590:	f7fe ffb0 	bl	74f4 <unpend_thread_no_timeout>
    8594:	f104 0018 	add.w	r0, r4, #24
    8598:	f000 fbb0 	bl	8cfc <z_abort_timeout>
			(void)z_abort_thread_timeout(thread);
			ready_thread(thread);
    859c:	4620      	mov	r0, r4
    859e:	f7ff f91d 	bl	77dc <ready_thread>
			ret = true;
    85a2:	2401      	movs	r4, #1
	__ASSERT(z_spin_unlock_valid(l), "Not my spinlock %p", l);
    85a4:	480b      	ldr	r0, [pc, #44]	; (85d4 <z_sched_wake+0x94>)
    85a6:	f000 fa6d 	bl	8a84 <z_spin_unlock_valid>
    85aa:	b968      	cbnz	r0, 85c8 <z_sched_wake+0x88>
    85ac:	4a0a      	ldr	r2, [pc, #40]	; (85d8 <z_sched_wake+0x98>)
    85ae:	490e      	ldr	r1, [pc, #56]	; (85e8 <z_sched_wake+0xa8>)
    85b0:	480b      	ldr	r0, [pc, #44]	; (85e0 <z_sched_wake+0xa0>)
    85b2:	23ac      	movs	r3, #172	; 0xac
    85b4:	f001 fc43 	bl	9e3e <printk>
    85b8:	4906      	ldr	r1, [pc, #24]	; (85d4 <z_sched_wake+0x94>)
    85ba:	480c      	ldr	r0, [pc, #48]	; (85ec <z_sched_wake+0xac>)
    85bc:	f001 fc3f 	bl	9e3e <printk>
    85c0:	4805      	ldr	r0, [pc, #20]	; (85d8 <z_sched_wake+0x98>)
    85c2:	21ac      	movs	r1, #172	; 0xac
    85c4:	f001 fb38 	bl	9c38 <assert_post_action>
	__asm__ volatile(
    85c8:	f387 8811 	msr	BASEPRI, r7
    85cc:	f3bf 8f6f 	isb	sy
		}
	}

	return ret;
}
    85d0:	4620      	mov	r0, r4
    85d2:	bdf8      	pop	{r3, r4, r5, r6, r7, pc}
    85d4:	20000e80 	.word	0x20000e80
    85d8:	0000ba96 	.word	0x0000ba96
    85dc:	0000bae8 	.word	0x0000bae8
    85e0:	0000b2d3 	.word	0x0000b2d3
    85e4:	0000bafd 	.word	0x0000bafd
    85e8:	0000babc 	.word	0x0000babc
    85ec:	0000bad3 	.word	0x0000bad3

000085f0 <z_sched_wait>:

int z_sched_wait(struct k_spinlock *lock, k_spinlock_key_t key,
		 _wait_q_t *wait_q, k_timeout_t timeout, void **data)
{
    85f0:	b5d3      	push	{r0, r1, r4, r6, r7, lr}
	int ret = z_pend_curr(lock, key, wait_q, timeout);
    85f2:	e9dd 6706 	ldrd	r6, r7, [sp, #24]
{
    85f6:	9c08      	ldr	r4, [sp, #32]
	int ret = z_pend_curr(lock, key, wait_q, timeout);
    85f8:	e9cd 6700 	strd	r6, r7, [sp]
    85fc:	f7ff faf2 	bl	7be4 <z_pend_curr>

	if (data != NULL) {
    8600:	b11c      	cbz	r4, 860a <z_sched_wait+0x1a>
		*data = _current->base.swap_data;
    8602:	4b03      	ldr	r3, [pc, #12]	; (8610 <z_sched_wait+0x20>)
    8604:	689b      	ldr	r3, [r3, #8]
    8606:	695b      	ldr	r3, [r3, #20]
    8608:	6023      	str	r3, [r4, #0]
	}
	return ret;
}
    860a:	b002      	add	sp, #8
    860c:	bdd0      	pop	{r4, r6, r7, pc}
    860e:	bf00      	nop
    8610:	20000e4c 	.word	0x20000e4c

00008614 <z_impl_k_sem_give>:
	ARG_UNUSED(sem);
#endif
}

void z_impl_k_sem_give(struct k_sem *sem)
{
    8614:	b538      	push	{r3, r4, r5, lr}
    8616:	4604      	mov	r4, r0
	__asm__ volatile(
    8618:	f04f 0320 	mov.w	r3, #32
    861c:	f3ef 8511 	mrs	r5, BASEPRI
    8620:	f383 8812 	msr	BASEPRI_MAX, r3
    8624:	f3bf 8f6f 	isb	sy
	__ASSERT(z_spin_lock_valid(l), "Recursive spinlock %p", l);
    8628:	4817      	ldr	r0, [pc, #92]	; (8688 <z_impl_k_sem_give+0x74>)
    862a:	f000 fa1d 	bl	8a68 <z_spin_lock_valid>
    862e:	b968      	cbnz	r0, 864c <z_impl_k_sem_give+0x38>
    8630:	4a16      	ldr	r2, [pc, #88]	; (868c <z_impl_k_sem_give+0x78>)
    8632:	4917      	ldr	r1, [pc, #92]	; (8690 <z_impl_k_sem_give+0x7c>)
    8634:	4817      	ldr	r0, [pc, #92]	; (8694 <z_impl_k_sem_give+0x80>)
    8636:	2381      	movs	r3, #129	; 0x81
    8638:	f001 fc01 	bl	9e3e <printk>
    863c:	4912      	ldr	r1, [pc, #72]	; (8688 <z_impl_k_sem_give+0x74>)
    863e:	4816      	ldr	r0, [pc, #88]	; (8698 <z_impl_k_sem_give+0x84>)
    8640:	f001 fbfd 	bl	9e3e <printk>
    8644:	4811      	ldr	r0, [pc, #68]	; (868c <z_impl_k_sem_give+0x78>)
    8646:	2181      	movs	r1, #129	; 0x81
    8648:	f001 faf6 	bl	9c38 <assert_post_action>
	z_spin_lock_set_owner(l);
    864c:	480e      	ldr	r0, [pc, #56]	; (8688 <z_impl_k_sem_give+0x74>)
    864e:	f000 fa29 	bl	8aa4 <z_spin_lock_set_owner>
	k_spinlock_key_t key = k_spin_lock(&lock);
	struct k_thread *thread;

	SYS_PORT_TRACING_OBJ_FUNC_ENTER(k_sem, give, sem);

	thread = z_unpend_first_thread(&sem->wait_q);
    8652:	4620      	mov	r0, r4
    8654:	f7ff fcc4 	bl	7fe0 <z_unpend_first_thread>

	if (thread != NULL) {
    8658:	b148      	cbz	r0, 866e <z_impl_k_sem_give+0x5a>
    865a:	2200      	movs	r2, #0
    865c:	67c2      	str	r2, [r0, #124]	; 0x7c
		arch_thread_return_value_set(thread, 0);
		z_ready_thread(thread);
    865e:	f7ff f90f 	bl	7880 <z_ready_thread>
	} else {
		sem->count += (sem->count != sem->limit) ? 1U : 0U;
		handle_poll_events(sem);
	}

	z_reschedule(&lock, key);
    8662:	4629      	mov	r1, r5
    8664:	4808      	ldr	r0, [pc, #32]	; (8688 <z_impl_k_sem_give+0x74>)

	SYS_PORT_TRACING_OBJ_FUNC_EXIT(k_sem, give, sem);
}
    8666:	e8bd 4038 	ldmia.w	sp!, {r3, r4, r5, lr}
	z_reschedule(&lock, key);
    866a:	f7fe be69 	b.w	7340 <z_reschedule>
		sem->count += (sem->count != sem->limit) ? 1U : 0U;
    866e:	e9d4 3202 	ldrd	r3, r2, [r4, #8]
    8672:	429a      	cmp	r2, r3
    8674:	bf18      	it	ne
    8676:	3301      	addne	r3, #1
    8678:	60a3      	str	r3, [r4, #8]
	z_handle_obj_poll_events(&sem->poll_events, K_POLL_STATE_SEM_AVAILABLE);
    867a:	2102      	movs	r1, #2
    867c:	f104 0010 	add.w	r0, r4, #16
    8680:	f002 fab8 	bl	abf4 <z_handle_obj_poll_events>
}
    8684:	e7ed      	b.n	8662 <z_impl_k_sem_give+0x4e>
    8686:	bf00      	nop
    8688:	20000e8c 	.word	0x20000e8c
    868c:	0000ba96 	.word	0x0000ba96
    8690:	0000bae8 	.word	0x0000bae8
    8694:	0000b2d3 	.word	0x0000b2d3
    8698:	0000bafd 	.word	0x0000bafd

0000869c <z_impl_k_sem_take>:
}
#include <syscalls/k_sem_give_mrsh.c>
#endif

int z_impl_k_sem_take(struct k_sem *sem, k_timeout_t timeout)
{
    869c:	b5f7      	push	{r0, r1, r2, r4, r5, r6, r7, lr}
    869e:	4604      	mov	r4, r0
    86a0:	4616      	mov	r6, r2
    86a2:	461f      	mov	r7, r3
    86a4:	f3ef 8305 	mrs	r3, IPSR
	int ret = 0;

	__ASSERT(((arch_is_in_isr() == false) ||
    86a8:	b17b      	cbz	r3, 86ca <z_impl_k_sem_take+0x2e>
    86aa:	ea56 0307 	orrs.w	r3, r6, r7
    86ae:	d00c      	beq.n	86ca <z_impl_k_sem_take+0x2e>
    86b0:	4935      	ldr	r1, [pc, #212]	; (8788 <z_impl_k_sem_take+0xec>)
    86b2:	4a36      	ldr	r2, [pc, #216]	; (878c <z_impl_k_sem_take+0xf0>)
    86b4:	4836      	ldr	r0, [pc, #216]	; (8790 <z_impl_k_sem_take+0xf4>)
    86b6:	2379      	movs	r3, #121	; 0x79
    86b8:	f001 fbc1 	bl	9e3e <printk>
    86bc:	4835      	ldr	r0, [pc, #212]	; (8794 <z_impl_k_sem_take+0xf8>)
    86be:	f001 fbbe 	bl	9e3e <printk>
    86c2:	4832      	ldr	r0, [pc, #200]	; (878c <z_impl_k_sem_take+0xf0>)
    86c4:	2179      	movs	r1, #121	; 0x79
    86c6:	f001 fab7 	bl	9c38 <assert_post_action>
    86ca:	f04f 0320 	mov.w	r3, #32
    86ce:	f3ef 8511 	mrs	r5, BASEPRI
    86d2:	f383 8812 	msr	BASEPRI_MAX, r3
    86d6:	f3bf 8f6f 	isb	sy
	__ASSERT(z_spin_lock_valid(l), "Recursive spinlock %p", l);
    86da:	482f      	ldr	r0, [pc, #188]	; (8798 <z_impl_k_sem_take+0xfc>)
    86dc:	f000 f9c4 	bl	8a68 <z_spin_lock_valid>
    86e0:	b968      	cbnz	r0, 86fe <z_impl_k_sem_take+0x62>
    86e2:	4a2e      	ldr	r2, [pc, #184]	; (879c <z_impl_k_sem_take+0x100>)
    86e4:	492e      	ldr	r1, [pc, #184]	; (87a0 <z_impl_k_sem_take+0x104>)
    86e6:	482a      	ldr	r0, [pc, #168]	; (8790 <z_impl_k_sem_take+0xf4>)
    86e8:	2381      	movs	r3, #129	; 0x81
    86ea:	f001 fba8 	bl	9e3e <printk>
    86ee:	492a      	ldr	r1, [pc, #168]	; (8798 <z_impl_k_sem_take+0xfc>)
    86f0:	482c      	ldr	r0, [pc, #176]	; (87a4 <z_impl_k_sem_take+0x108>)
    86f2:	f001 fba4 	bl	9e3e <printk>
    86f6:	4829      	ldr	r0, [pc, #164]	; (879c <z_impl_k_sem_take+0x100>)
    86f8:	2181      	movs	r1, #129	; 0x81
    86fa:	f001 fa9d 	bl	9c38 <assert_post_action>
	z_spin_lock_set_owner(l);
    86fe:	4826      	ldr	r0, [pc, #152]	; (8798 <z_impl_k_sem_take+0xfc>)
    8700:	f000 f9d0 	bl	8aa4 <z_spin_lock_set_owner>

	k_spinlock_key_t key = k_spin_lock(&lock);

	SYS_PORT_TRACING_OBJ_FUNC_ENTER(k_sem, take, sem, timeout);

	if (likely(sem->count > 0U)) {
    8704:	68a3      	ldr	r3, [r4, #8]
    8706:	b1d3      	cbz	r3, 873e <z_impl_k_sem_take+0xa2>
		sem->count--;
    8708:	3b01      	subs	r3, #1
	__ASSERT(z_spin_unlock_valid(l), "Not my spinlock %p", l);
    870a:	4823      	ldr	r0, [pc, #140]	; (8798 <z_impl_k_sem_take+0xfc>)
    870c:	60a3      	str	r3, [r4, #8]
    870e:	f000 f9b9 	bl	8a84 <z_spin_unlock_valid>
    8712:	b968      	cbnz	r0, 8730 <z_impl_k_sem_take+0x94>
    8714:	4a21      	ldr	r2, [pc, #132]	; (879c <z_impl_k_sem_take+0x100>)
    8716:	4924      	ldr	r1, [pc, #144]	; (87a8 <z_impl_k_sem_take+0x10c>)
    8718:	481d      	ldr	r0, [pc, #116]	; (8790 <z_impl_k_sem_take+0xf4>)
    871a:	23ac      	movs	r3, #172	; 0xac
    871c:	f001 fb8f 	bl	9e3e <printk>
    8720:	491d      	ldr	r1, [pc, #116]	; (8798 <z_impl_k_sem_take+0xfc>)
    8722:	4822      	ldr	r0, [pc, #136]	; (87ac <z_impl_k_sem_take+0x110>)
    8724:	f001 fb8b 	bl	9e3e <printk>
    8728:	481c      	ldr	r0, [pc, #112]	; (879c <z_impl_k_sem_take+0x100>)
    872a:	21ac      	movs	r1, #172	; 0xac
    872c:	f001 fa84 	bl	9c38 <assert_post_action>
	__asm__ volatile(
    8730:	f385 8811 	msr	BASEPRI, r5
    8734:	f3bf 8f6f 	isb	sy
		k_spin_unlock(&lock, key);
		ret = 0;
    8738:	2000      	movs	r0, #0

out:
	SYS_PORT_TRACING_OBJ_FUNC_EXIT(k_sem, take, sem, timeout, ret);

	return ret;
}
    873a:	b003      	add	sp, #12
    873c:	bdf0      	pop	{r4, r5, r6, r7, pc}
	if (K_TIMEOUT_EQ(timeout, K_NO_WAIT)) {
    873e:	ea56 0307 	orrs.w	r3, r6, r7
    8742:	d118      	bne.n	8776 <z_impl_k_sem_take+0xda>
    8744:	4814      	ldr	r0, [pc, #80]	; (8798 <z_impl_k_sem_take+0xfc>)
    8746:	f000 f99d 	bl	8a84 <z_spin_unlock_valid>
    874a:	b968      	cbnz	r0, 8768 <z_impl_k_sem_take+0xcc>
    874c:	4a13      	ldr	r2, [pc, #76]	; (879c <z_impl_k_sem_take+0x100>)
    874e:	4916      	ldr	r1, [pc, #88]	; (87a8 <z_impl_k_sem_take+0x10c>)
    8750:	480f      	ldr	r0, [pc, #60]	; (8790 <z_impl_k_sem_take+0xf4>)
    8752:	23ac      	movs	r3, #172	; 0xac
    8754:	f001 fb73 	bl	9e3e <printk>
    8758:	490f      	ldr	r1, [pc, #60]	; (8798 <z_impl_k_sem_take+0xfc>)
    875a:	4814      	ldr	r0, [pc, #80]	; (87ac <z_impl_k_sem_take+0x110>)
    875c:	f001 fb6f 	bl	9e3e <printk>
    8760:	480e      	ldr	r0, [pc, #56]	; (879c <z_impl_k_sem_take+0x100>)
    8762:	21ac      	movs	r1, #172	; 0xac
    8764:	f001 fa68 	bl	9c38 <assert_post_action>
    8768:	f385 8811 	msr	BASEPRI, r5
    876c:	f3bf 8f6f 	isb	sy
		ret = -EBUSY;
    8770:	f06f 000f 	mvn.w	r0, #15
    8774:	e7e1      	b.n	873a <z_impl_k_sem_take+0x9e>
	ret = z_pend_curr(&lock, key, &sem->wait_q, timeout);
    8776:	e9cd 6700 	strd	r6, r7, [sp]
    877a:	4622      	mov	r2, r4
    877c:	4629      	mov	r1, r5
    877e:	4806      	ldr	r0, [pc, #24]	; (8798 <z_impl_k_sem_take+0xfc>)
    8780:	f7ff fa30 	bl	7be4 <z_pend_curr>
	return ret;
    8784:	e7d9      	b.n	873a <z_impl_k_sem_take+0x9e>
    8786:	bf00      	nop
    8788:	0000c787 	.word	0x0000c787
    878c:	0000c767 	.word	0x0000c767
    8790:	0000b2d3 	.word	0x0000b2d3
    8794:	0000c4ef 	.word	0x0000c4ef
    8798:	20000e8c 	.word	0x20000e8c
    879c:	0000ba96 	.word	0x0000ba96
    87a0:	0000bae8 	.word	0x0000bae8
    87a4:	0000bafd 	.word	0x0000bafd
    87a8:	0000babc 	.word	0x0000babc
    87ac:	0000bad3 	.word	0x0000bad3

000087b0 <k_sys_work_q_init>:
			     CONFIG_SYSTEM_WORKQUEUE_STACK_SIZE);

struct k_work_q k_sys_work_q;

static int k_sys_work_q_init(const struct device *dev)
{
    87b0:	b51f      	push	{r0, r1, r2, r3, r4, lr}
	ARG_UNUSED(dev);
	struct k_work_queue_config cfg = {
    87b2:	4b09      	ldr	r3, [pc, #36]	; (87d8 <k_sys_work_q_init+0x28>)
    87b4:	9302      	str	r3, [sp, #8]
		.name = "sysworkq",
		.no_yield = IS_ENABLED(CONFIG_SYSTEM_WORKQUEUE_NO_YIELD),
	};

	k_work_queue_start(&k_sys_work_q,
    87b6:	ab02      	add	r3, sp, #8
	struct k_work_queue_config cfg = {
    87b8:	2400      	movs	r4, #0
	k_work_queue_start(&k_sys_work_q,
    87ba:	9300      	str	r3, [sp, #0]
    87bc:	4907      	ldr	r1, [pc, #28]	; (87dc <k_sys_work_q_init+0x2c>)
    87be:	4808      	ldr	r0, [pc, #32]	; (87e0 <k_sys_work_q_init+0x30>)
	struct k_work_queue_config cfg = {
    87c0:	f88d 400c 	strb.w	r4, [sp, #12]
	k_work_queue_start(&k_sys_work_q,
    87c4:	f04f 33ff 	mov.w	r3, #4294967295
    87c8:	f44f 6280 	mov.w	r2, #1024	; 0x400
    87cc:	f000 ff88 	bl	96e0 <k_work_queue_start>
			    sys_work_q_stack,
			    K_KERNEL_STACK_SIZEOF(sys_work_q_stack),
			    CONFIG_SYSTEM_WORKQUEUE_PRIORITY, &cfg);
	return 0;
}
    87d0:	4620      	mov	r0, r4
    87d2:	b004      	add	sp, #16
    87d4:	bd10      	pop	{r4, pc}
    87d6:	bf00      	nop
    87d8:	0000c7d4 	.word	0x0000c7d4
    87dc:	20003560 	.word	0x20003560
    87e0:	20000640 	.word	0x20000640

000087e4 <z_setup_new_thread>:
char *z_setup_new_thread(struct k_thread *new_thread,
			 k_thread_stack_t *stack, size_t stack_size,
			 k_thread_entry_t entry,
			 void *p1, void *p2, void *p3,
			 int prio, uint32_t options, const char *name)
{
    87e4:	e92d 43f0 	stmdb	sp!, {r4, r5, r6, r7, r8, r9, lr}
    87e8:	b085      	sub	sp, #20
    87ea:	4604      	mov	r4, r0
    87ec:	f8dd 803c 	ldr.w	r8, [sp, #60]	; 0x3c
	char *stack_ptr;

	Z_ASSERT_VALID_PRIO(prio, entry);
    87f0:	f1b8 0f0f 	cmp.w	r8, #15
{
    87f4:	460f      	mov	r7, r1
    87f6:	4615      	mov	r5, r2
    87f8:	4699      	mov	r9, r3
	Z_ASSERT_VALID_PRIO(prio, entry);
    87fa:	d132      	bne.n	8862 <z_setup_new_thread+0x7e>
    87fc:	4b25      	ldr	r3, [pc, #148]	; (8894 <z_setup_new_thread+0xb0>)
    87fe:	4599      	cmp	r9, r3
    8800:	d133      	bne.n	886a <z_setup_new_thread+0x86>
	sys_dlist_init(&w->waitq);
    8802:	f104 0358 	add.w	r3, r4, #88	; 0x58
	list->tail = (sys_dnode_t *)list;
    8806:	e9c4 3316 	strd	r3, r3, [r4, #88]	; 0x58
void z_init_thread_base(struct _thread_base *thread_base, int priority,
		       uint32_t initial_state, unsigned int options)
{
	/* k_q_node is initialized upon first insertion in a list */
	thread_base->pended_on = NULL;
	thread_base->user_options = (uint8_t)options;
    880a:	9b10      	ldr	r3, [sp, #64]	; 0x40
    880c:	7323      	strb	r3, [r4, #12]
		stack_obj_size = Z_KERNEL_STACK_SIZE_ADJUST(stack_size);
    880e:	3507      	adds	r5, #7
	thread_base->thread_state = (uint8_t)initial_state;
    8810:	2304      	movs	r3, #4
    8812:	7363      	strb	r3, [r4, #13]
		stack_obj_size = Z_KERNEL_STACK_SIZE_ADJUST(stack_size);
    8814:	f025 0507 	bic.w	r5, r5, #7

/** @} */

static inline char *Z_KERNEL_STACK_BUFFER(k_thread_stack_t *sym)
{
	return (char *)sym + K_KERNEL_STACK_RESERVED;
    8818:	f107 0320 	add.w	r3, r7, #32
	new_thread->stack_info.size = stack_buf_size;
    881c:	e9c4 351a 	strd	r3, r5, [r4, #104]	; 0x68
	arch_new_thread(new_thread, stack, stack_ptr, entry, p1, p2, p3);
    8820:	9b0e      	ldr	r3, [sp, #56]	; 0x38

	thread_base->prio = priority;
    8822:	f884 800e 	strb.w	r8, [r4, #14]
	arch_new_thread(new_thread, stack, stack_ptr, entry, p1, p2, p3);
    8826:	9302      	str	r3, [sp, #8]
		stack_obj_size = Z_KERNEL_STACK_SIZE_ADJUST(stack_size);
    8828:	f105 0820 	add.w	r8, r5, #32
	arch_new_thread(new_thread, stack, stack_ptr, entry, p1, p2, p3);
    882c:	9b0d      	ldr	r3, [sp, #52]	; 0x34
    882e:	9301      	str	r3, [sp, #4]
	thread_base->pended_on = NULL;
    8830:	2600      	movs	r6, #0
	arch_new_thread(new_thread, stack, stack_ptr, entry, p1, p2, p3);
    8832:	9b0c      	ldr	r3, [sp, #48]	; 0x30
    8834:	9300      	str	r3, [sp, #0]
	stack_ptr = (char *)stack + stack_obj_size;
    8836:	44b8      	add	r8, r7
	arch_new_thread(new_thread, stack, stack_ptr, entry, p1, p2, p3);
    8838:	464b      	mov	r3, r9
	node->prev = NULL;
    883a:	e9c4 6606 	strd	r6, r6, [r4, #24]
	thread_base->pended_on = NULL;
    883e:	60a6      	str	r6, [r4, #8]

	thread_base->sched_locked = 0U;
    8840:	73e6      	strb	r6, [r4, #15]
	new_thread->stack_info.delta = delta;
    8842:	6726      	str	r6, [r4, #112]	; 0x70
	arch_new_thread(new_thread, stack, stack_ptr, entry, p1, p2, p3);
    8844:	4642      	mov	r2, r8
    8846:	4639      	mov	r1, r7
    8848:	4620      	mov	r0, r4
    884a:	f7fa fe17 	bl	347c <arch_new_thread>
	if (!_current) {
    884e:	4b12      	ldr	r3, [pc, #72]	; (8898 <z_setup_new_thread+0xb4>)
	new_thread->init_data = NULL;
    8850:	6566      	str	r6, [r4, #84]	; 0x54
	if (!_current) {
    8852:	689b      	ldr	r3, [r3, #8]
    8854:	b103      	cbz	r3, 8858 <z_setup_new_thread+0x74>
	new_thread->resource_pool = _current->resource_pool;
    8856:	6f5b      	ldr	r3, [r3, #116]	; 0x74
	return stack_ptr;
    8858:	6763      	str	r3, [r4, #116]	; 0x74
}
    885a:	4640      	mov	r0, r8
    885c:	b005      	add	sp, #20
    885e:	e8bd 83f0 	ldmia.w	sp!, {r4, r5, r6, r7, r8, r9, pc}
	Z_ASSERT_VALID_PRIO(prio, entry);
    8862:	f108 0310 	add.w	r3, r8, #16
    8866:	2b1e      	cmp	r3, #30
    8868:	d9cb      	bls.n	8802 <z_setup_new_thread+0x1e>
    886a:	4a0c      	ldr	r2, [pc, #48]	; (889c <z_setup_new_thread+0xb8>)
    886c:	490c      	ldr	r1, [pc, #48]	; (88a0 <z_setup_new_thread+0xbc>)
    886e:	480d      	ldr	r0, [pc, #52]	; (88a4 <z_setup_new_thread+0xc0>)
    8870:	f240 13ff 	movw	r3, #511	; 0x1ff
    8874:	f001 fae3 	bl	9e3e <printk>
    8878:	4641      	mov	r1, r8
    887a:	480b      	ldr	r0, [pc, #44]	; (88a8 <z_setup_new_thread+0xc4>)
    887c:	f06f 030f 	mvn.w	r3, #15
    8880:	220e      	movs	r2, #14
    8882:	f001 fadc 	bl	9e3e <printk>
    8886:	4805      	ldr	r0, [pc, #20]	; (889c <z_setup_new_thread+0xb8>)
    8888:	f240 11ff 	movw	r1, #511	; 0x1ff
    888c:	f001 f9d4 	bl	9c38 <assert_post_action>
    8890:	e7b7      	b.n	8802 <z_setup_new_thread+0x1e>
    8892:	bf00      	nop
    8894:	00006891 	.word	0x00006891
    8898:	20000e4c 	.word	0x20000e4c
    889c:	0000c7dd 	.word	0x0000c7dd
    88a0:	0000c800 	.word	0x0000c800
    88a4:	0000b2d3 	.word	0x0000b2d3
    88a8:	0000c880 	.word	0x0000c880

000088ac <z_impl_k_thread_create>:
{
    88ac:	e92d 43f0 	stmdb	sp!, {r4, r5, r6, r7, r8, r9, lr}
    88b0:	b087      	sub	sp, #28
    88b2:	e9dd 6714 	ldrd	r6, r7, [sp, #80]	; 0x50
    88b6:	4604      	mov	r4, r0
    88b8:	460d      	mov	r5, r1
    88ba:	4690      	mov	r8, r2
    88bc:	4699      	mov	r9, r3
    88be:	f3ef 8305 	mrs	r3, IPSR
	__ASSERT(!arch_is_in_isr(), "Threads may not be created in ISRs");
    88c2:	b173      	cbz	r3, 88e2 <z_impl_k_thread_create+0x36>
    88c4:	491b      	ldr	r1, [pc, #108]	; (8934 <z_impl_k_thread_create+0x88>)
    88c6:	4a1c      	ldr	r2, [pc, #112]	; (8938 <z_impl_k_thread_create+0x8c>)
    88c8:	481c      	ldr	r0, [pc, #112]	; (893c <z_impl_k_thread_create+0x90>)
    88ca:	f44f 731a 	mov.w	r3, #616	; 0x268
    88ce:	f001 fab6 	bl	9e3e <printk>
    88d2:	481b      	ldr	r0, [pc, #108]	; (8940 <z_impl_k_thread_create+0x94>)
    88d4:	f001 fab3 	bl	9e3e <printk>
    88d8:	4817      	ldr	r0, [pc, #92]	; (8938 <z_impl_k_thread_create+0x8c>)
    88da:	f44f 711a 	mov.w	r1, #616	; 0x268
    88de:	f001 f9ab 	bl	9c38 <assert_post_action>
	z_setup_new_thread(new_thread, stack, stack_size, entry, p1, p2, p3,
    88e2:	2300      	movs	r3, #0
    88e4:	9305      	str	r3, [sp, #20]
    88e6:	9b12      	ldr	r3, [sp, #72]	; 0x48
    88e8:	9304      	str	r3, [sp, #16]
    88ea:	9b11      	ldr	r3, [sp, #68]	; 0x44
    88ec:	9303      	str	r3, [sp, #12]
    88ee:	9b10      	ldr	r3, [sp, #64]	; 0x40
    88f0:	9302      	str	r3, [sp, #8]
    88f2:	9b0f      	ldr	r3, [sp, #60]	; 0x3c
    88f4:	9301      	str	r3, [sp, #4]
    88f6:	9b0e      	ldr	r3, [sp, #56]	; 0x38
    88f8:	9300      	str	r3, [sp, #0]
    88fa:	4642      	mov	r2, r8
    88fc:	464b      	mov	r3, r9
    88fe:	4629      	mov	r1, r5
    8900:	4620      	mov	r0, r4
    8902:	f7ff ff6f 	bl	87e4 <z_setup_new_thread>
	if (!K_TIMEOUT_EQ(delay, K_FOREVER)) {
    8906:	1c7b      	adds	r3, r7, #1
    8908:	bf08      	it	eq
    890a:	f1b6 3fff 	cmpeq.w	r6, #4294967295
    890e:	d005      	beq.n	891c <z_impl_k_thread_create+0x70>
	if (K_TIMEOUT_EQ(delay, K_NO_WAIT)) {
    8910:	ea56 0307 	orrs.w	r3, r6, r7
    8914:	d106      	bne.n	8924 <z_impl_k_thread_create+0x78>
	z_sched_start(thread);
    8916:	4620      	mov	r0, r4
    8918:	f7fe fffa 	bl	7910 <z_sched_start>
}
    891c:	4620      	mov	r0, r4
    891e:	b007      	add	sp, #28
    8920:	e8bd 83f0 	ldmia.w	sp!, {r4, r5, r6, r7, r8, r9, pc}
	z_add_timeout(&thread->base.timeout, z_thread_timeout, ticks);
    8924:	4907      	ldr	r1, [pc, #28]	; (8944 <z_impl_k_thread_create+0x98>)
    8926:	4632      	mov	r2, r6
    8928:	463b      	mov	r3, r7
    892a:	f104 0018 	add.w	r0, r4, #24
    892e:	f000 f911 	bl	8b54 <z_add_timeout>
    8932:	e7f3      	b.n	891c <z_impl_k_thread_create+0x70>
    8934:	0000c476 	.word	0x0000c476
    8938:	0000c7dd 	.word	0x0000c7dd
    893c:	0000b2d3 	.word	0x0000b2d3
    8940:	0000c8b1 	.word	0x0000c8b1
    8944:	000079b9 	.word	0x000079b9

00008948 <z_init_static_threads>:
{
    8948:	e92d 4bf0 	stmdb	sp!, {r4, r5, r6, r7, r8, r9, fp, lr}
	_FOREACH_STATIC_THREAD(thread_data) {
    894c:	4f3f      	ldr	r7, [pc, #252]	; (8a4c <z_init_static_threads+0x104>)
    894e:	4d40      	ldr	r5, [pc, #256]	; (8a50 <z_init_static_threads+0x108>)
    8950:	f8df 810c 	ldr.w	r8, [pc, #268]	; 8a60 <z_init_static_threads+0x118>
{
    8954:	b086      	sub	sp, #24
    8956:	463e      	mov	r6, r7
	_FOREACH_STATIC_THREAD(thread_data) {
    8958:	42bd      	cmp	r5, r7
    895a:	d90e      	bls.n	897a <z_init_static_threads+0x32>
    895c:	493d      	ldr	r1, [pc, #244]	; (8a54 <z_init_static_threads+0x10c>)
    895e:	483e      	ldr	r0, [pc, #248]	; (8a58 <z_init_static_threads+0x110>)
    8960:	f240 23cf 	movw	r3, #719	; 0x2cf
    8964:	4642      	mov	r2, r8
    8966:	f001 fa6a 	bl	9e3e <printk>
    896a:	483c      	ldr	r0, [pc, #240]	; (8a5c <z_init_static_threads+0x114>)
    896c:	f001 fa67 	bl	9e3e <printk>
    8970:	f240 21cf 	movw	r1, #719	; 0x2cf
    8974:	4640      	mov	r0, r8
    8976:	f001 f95f 	bl	9c38 <assert_post_action>
    897a:	42b5      	cmp	r5, r6
    897c:	f105 0430 	add.w	r4, r5, #48	; 0x30
    8980:	d31f      	bcc.n	89c2 <z_init_static_threads+0x7a>
	k_sched_lock();
    8982:	f7fe fd21 	bl	73c8 <k_sched_lock>
	_FOREACH_STATIC_THREAD(thread_data) {
    8986:	4c32      	ldr	r4, [pc, #200]	; (8a50 <z_init_static_threads+0x108>)
    8988:	4d35      	ldr	r5, [pc, #212]	; (8a60 <z_init_static_threads+0x118>)
    898a:	f8df 80c8 	ldr.w	r8, [pc, #200]	; 8a54 <z_init_static_threads+0x10c>
    898e:	f8df 90c8 	ldr.w	r9, [pc, #200]	; 8a58 <z_init_static_threads+0x110>
    8992:	42b4      	cmp	r4, r6
    8994:	d90e      	bls.n	89b4 <z_init_static_threads+0x6c>
    8996:	4641      	mov	r1, r8
    8998:	f240 23ee 	movw	r3, #750	; 0x2ee
    899c:	462a      	mov	r2, r5
    899e:	4648      	mov	r0, r9
    89a0:	f001 fa4d 	bl	9e3e <printk>
    89a4:	482d      	ldr	r0, [pc, #180]	; (8a5c <z_init_static_threads+0x114>)
    89a6:	f001 fa4a 	bl	9e3e <printk>
    89aa:	f240 21ee 	movw	r1, #750	; 0x2ee
    89ae:	4628      	mov	r0, r5
    89b0:	f001 f942 	bl	9c38 <assert_post_action>
    89b4:	42b4      	cmp	r4, r6
    89b6:	d321      	bcc.n	89fc <z_init_static_threads+0xb4>
}
    89b8:	b006      	add	sp, #24
    89ba:	e8bd 4bf0 	ldmia.w	sp!, {r4, r5, r6, r7, r8, r9, fp, lr}
	k_sched_unlock();
    89be:	f7ff ba47 	b.w	7e50 <k_sched_unlock>
		z_setup_new_thread(
    89c2:	f854 3c04 	ldr.w	r3, [r4, #-4]
    89c6:	9305      	str	r3, [sp, #20]
    89c8:	f854 3c10 	ldr.w	r3, [r4, #-16]
    89cc:	9304      	str	r3, [sp, #16]
    89ce:	f854 3c14 	ldr.w	r3, [r4, #-20]
    89d2:	9303      	str	r3, [sp, #12]
    89d4:	f854 3c18 	ldr.w	r3, [r4, #-24]
    89d8:	9302      	str	r3, [sp, #8]
    89da:	f854 3c1c 	ldr.w	r3, [r4, #-28]
    89de:	9301      	str	r3, [sp, #4]
    89e0:	f854 3c20 	ldr.w	r3, [r4, #-32]
    89e4:	9300      	str	r3, [sp, #0]
    89e6:	e954 230a 	ldrd	r2, r3, [r4, #-40]	; 0x28
    89ea:	e954 010c 	ldrd	r0, r1, [r4, #-48]	; 0x30
    89ee:	f7ff fef9 	bl	87e4 <z_setup_new_thread>
		thread_data->init_thread->init_data = thread_data;
    89f2:	f854 3c30 	ldr.w	r3, [r4, #-48]
    89f6:	655d      	str	r5, [r3, #84]	; 0x54
    89f8:	4625      	mov	r5, r4
    89fa:	e7ad      	b.n	8958 <z_init_static_threads+0x10>
		if (thread_data->init_delay != K_TICKS_FOREVER) {
    89fc:	6a61      	ldr	r1, [r4, #36]	; 0x24
    89fe:	1c4b      	adds	r3, r1, #1
    8a00:	d014      	beq.n	8a2c <z_init_static_threads+0xe4>
    8a02:	f240 32e7 	movw	r2, #999	; 0x3e7
    8a06:	2300      	movs	r3, #0
					    K_MSEC(thread_data->init_delay));
    8a08:	ea21 71e1 	bic.w	r1, r1, r1, asr #31
    8a0c:	f44f 4000 	mov.w	r0, #32768	; 0x8000
    8a10:	4693      	mov	fp, r2
    8a12:	469c      	mov	ip, r3
    8a14:	fbc0 bc01 	smlal	fp, ip, r0, r1
	if (K_TIMEOUT_EQ(delay, K_NO_WAIT)) {
    8a18:	459c      	cmp	ip, r3
    8a1a:	bf08      	it	eq
    8a1c:	4593      	cmpeq	fp, r2
			schedule_new_thread(thread_data->init_thread,
    8a1e:	6827      	ldr	r7, [r4, #0]
    8a20:	4658      	mov	r0, fp
    8a22:	4661      	mov	r1, ip
	if (K_TIMEOUT_EQ(delay, K_NO_WAIT)) {
    8a24:	d104      	bne.n	8a30 <z_init_static_threads+0xe8>
	z_sched_start(thread);
    8a26:	4638      	mov	r0, r7
    8a28:	f7fe ff72 	bl	7910 <z_sched_start>
	_FOREACH_STATIC_THREAD(thread_data) {
    8a2c:	3430      	adds	r4, #48	; 0x30
    8a2e:	e7b0      	b.n	8992 <z_init_static_threads+0x4a>
    8a30:	f44f 727a 	mov.w	r2, #1000	; 0x3e8
    8a34:	2300      	movs	r3, #0
    8a36:	f7f8 f9f7 	bl	e28 <__aeabi_uldivmod>
    8a3a:	4602      	mov	r2, r0
    8a3c:	460b      	mov	r3, r1
    8a3e:	f107 0018 	add.w	r0, r7, #24
    8a42:	4908      	ldr	r1, [pc, #32]	; (8a64 <z_init_static_threads+0x11c>)
    8a44:	f000 f886 	bl	8b54 <z_add_timeout>
    8a48:	e7f0      	b.n	8a2c <z_init_static_threads+0xe4>
    8a4a:	bf00      	nop
    8a4c:	2000024c 	.word	0x2000024c
    8a50:	2000024c 	.word	0x2000024c
    8a54:	0000c8d6 	.word	0x0000c8d6
    8a58:	0000b2d3 	.word	0x0000b2d3
    8a5c:	0000c435 	.word	0x0000c435
    8a60:	0000c7dd 	.word	0x0000c7dd
    8a64:	000079b9 	.word	0x000079b9

00008a68 <z_spin_lock_valid>:
 * them in spinlock.h is a giant header ordering headache.
 */
#ifdef CONFIG_SPIN_VALIDATE
bool z_spin_lock_valid(struct k_spinlock *l)
{
	uintptr_t thread_cpu = l->thread_cpu;
    8a68:	6800      	ldr	r0, [r0, #0]

	if (thread_cpu != 0U) {
    8a6a:	b138      	cbz	r0, 8a7c <z_spin_lock_valid+0x14>
		if ((thread_cpu & 3U) == _current_cpu->id) {
    8a6c:	4b04      	ldr	r3, [pc, #16]	; (8a80 <z_spin_lock_valid+0x18>)
    8a6e:	7d1b      	ldrb	r3, [r3, #20]
    8a70:	f000 0003 	and.w	r0, r0, #3
    8a74:	1ac0      	subs	r0, r0, r3
    8a76:	bf18      	it	ne
    8a78:	2001      	movne	r0, #1
    8a7a:	4770      	bx	lr
			return false;
		}
	}
	return true;
    8a7c:	2001      	movs	r0, #1
}
    8a7e:	4770      	bx	lr
    8a80:	20000e4c 	.word	0x20000e4c

00008a84 <z_spin_unlock_valid>:

bool z_spin_unlock_valid(struct k_spinlock *l)
{
	if (l->thread_cpu != (_current_cpu->id | (uintptr_t)_current)) {
    8a84:	4906      	ldr	r1, [pc, #24]	; (8aa0 <z_spin_unlock_valid+0x1c>)
{
    8a86:	4603      	mov	r3, r0
	if (l->thread_cpu != (_current_cpu->id | (uintptr_t)_current)) {
    8a88:	688a      	ldr	r2, [r1, #8]
    8a8a:	7d08      	ldrb	r0, [r1, #20]
    8a8c:	6819      	ldr	r1, [r3, #0]
    8a8e:	4302      	orrs	r2, r0
    8a90:	4291      	cmp	r1, r2
    8a92:	f04f 0000 	mov.w	r0, #0
		return false;
	}
	l->thread_cpu = 0;
    8a96:	bf04      	itt	eq
    8a98:	6018      	streq	r0, [r3, #0]
	return true;
    8a9a:	2001      	moveq	r0, #1
}
    8a9c:	4770      	bx	lr
    8a9e:	bf00      	nop
    8aa0:	20000e4c 	.word	0x20000e4c

00008aa4 <z_spin_lock_set_owner>:

void z_spin_lock_set_owner(struct k_spinlock *l)
{
	l->thread_cpu = _current_cpu->id | (uintptr_t)_current;
    8aa4:	4a02      	ldr	r2, [pc, #8]	; (8ab0 <z_spin_lock_set_owner+0xc>)
    8aa6:	7d11      	ldrb	r1, [r2, #20]
    8aa8:	6893      	ldr	r3, [r2, #8]
    8aaa:	430b      	orrs	r3, r1
    8aac:	6003      	str	r3, [r0, #0]
}
    8aae:	4770      	bx	lr
    8ab0:	20000e4c 	.word	0x20000e4c

00008ab4 <elapsed>:
	sys_dlist_remove(&t->node);
}

static int32_t elapsed(void)
{
	return announce_remaining == 0 ? sys_clock_elapsed() : 0U;
    8ab4:	4b03      	ldr	r3, [pc, #12]	; (8ac4 <elapsed+0x10>)
    8ab6:	681b      	ldr	r3, [r3, #0]
    8ab8:	b90b      	cbnz	r3, 8abe <elapsed+0xa>
    8aba:	f7fc bd65 	b.w	5588 <sys_clock_elapsed>
}
    8abe:	2000      	movs	r0, #0
    8ac0:	4770      	bx	lr
    8ac2:	bf00      	nop
    8ac4:	20000e90 	.word	0x20000e90

00008ac8 <next_timeout>:

static int32_t next_timeout(void)
{
    8ac8:	b538      	push	{r3, r4, r5, lr}
	return list->head == list;
    8aca:	4b13      	ldr	r3, [pc, #76]	; (8b18 <next_timeout+0x50>)
    8acc:	681c      	ldr	r4, [r3, #0]
	return sys_dlist_is_empty(list) ? NULL : list->head;
    8ace:	429c      	cmp	r4, r3
    8ad0:	bf08      	it	eq
    8ad2:	2400      	moveq	r4, #0
	struct _timeout *to = first();
	int32_t ticks_elapsed = elapsed();
    8ad4:	f7ff ffee 	bl	8ab4 <elapsed>
    8ad8:	4605      	mov	r5, r0
	int32_t ret = to == NULL ? MAX_WAIT
    8ada:	b1bc      	cbz	r4, 8b0c <next_timeout+0x44>
		: CLAMP(to->dticks - ticks_elapsed, 0, MAX_WAIT);
    8adc:	e9d4 0104 	ldrd	r0, r1, [r4, #16]
    8ae0:	1b40      	subs	r0, r0, r5
    8ae2:	eb61 71e5 	sbc.w	r1, r1, r5, asr #31
	int32_t ret = to == NULL ? MAX_WAIT
    8ae6:	2801      	cmp	r0, #1
    8ae8:	f171 0300 	sbcs.w	r3, r1, #0
    8aec:	db11      	blt.n	8b12 <next_timeout+0x4a>
		: CLAMP(to->dticks - ticks_elapsed, 0, MAX_WAIT);
    8aee:	f06f 4200 	mvn.w	r2, #2147483648	; 0x80000000
    8af2:	2300      	movs	r3, #0
    8af4:	4282      	cmp	r2, r0
    8af6:	eb73 0401 	sbcs.w	r4, r3, r1
    8afa:	da00      	bge.n	8afe <next_timeout+0x36>
    8afc:	4610      	mov	r0, r2

#ifdef CONFIG_TIMESLICING
	if (_current_cpu->slice_ticks && _current_cpu->slice_ticks < ret) {
    8afe:	4b07      	ldr	r3, [pc, #28]	; (8b1c <next_timeout+0x54>)
    8b00:	691b      	ldr	r3, [r3, #16]
    8b02:	b113      	cbz	r3, 8b0a <next_timeout+0x42>
    8b04:	4298      	cmp	r0, r3
    8b06:	bfa8      	it	ge
    8b08:	4618      	movge	r0, r3
		ret = _current_cpu->slice_ticks;
	}
#endif
	return ret;
}
    8b0a:	bd38      	pop	{r3, r4, r5, pc}
	int32_t ret = to == NULL ? MAX_WAIT
    8b0c:	f06f 4000 	mvn.w	r0, #2147483648	; 0x80000000
    8b10:	e7f5      	b.n	8afe <next_timeout+0x36>
    8b12:	2000      	movs	r0, #0
    8b14:	e7f3      	b.n	8afe <next_timeout+0x36>
    8b16:	bf00      	nop
    8b18:	200001c8 	.word	0x200001c8
    8b1c:	20000e4c 	.word	0x20000e4c

00008b20 <remove_timeout>:
{
    8b20:	b530      	push	{r4, r5, lr}
    8b22:	6803      	ldr	r3, [r0, #0]
	return (node != NULL) ? sys_dlist_peek_next_no_check(list, node) : NULL;
    8b24:	b168      	cbz	r0, 8b42 <remove_timeout+0x22>
    8b26:	4a0a      	ldr	r2, [pc, #40]	; (8b50 <remove_timeout+0x30>)
	return (node == list->tail) ? NULL : node->next;
    8b28:	6852      	ldr	r2, [r2, #4]
    8b2a:	4290      	cmp	r0, r2
    8b2c:	d009      	beq.n	8b42 <remove_timeout+0x22>
	if (next(t) != NULL) {
    8b2e:	b143      	cbz	r3, 8b42 <remove_timeout+0x22>
		next(t)->dticks += t->dticks;
    8b30:	e9d3 2104 	ldrd	r2, r1, [r3, #16]
    8b34:	e9d0 4504 	ldrd	r4, r5, [r0, #16]
    8b38:	1912      	adds	r2, r2, r4
    8b3a:	eb45 0101 	adc.w	r1, r5, r1
    8b3e:	e9c3 2104 	strd	r2, r1, [r3, #16]
	sys_dnode_t *const prev = node->prev;
    8b42:	6842      	ldr	r2, [r0, #4]
	prev->next = next;
    8b44:	6013      	str	r3, [r2, #0]
	next->prev = prev;
    8b46:	605a      	str	r2, [r3, #4]
	node->next = NULL;
    8b48:	2300      	movs	r3, #0
	node->prev = NULL;
    8b4a:	e9c0 3300 	strd	r3, r3, [r0]
}
    8b4e:	bd30      	pop	{r4, r5, pc}
    8b50:	200001c8 	.word	0x200001c8

00008b54 <z_add_timeout>:

void z_add_timeout(struct _timeout *to, _timeout_func_t fn,
		   k_timeout_t timeout)
{
    8b54:	e92d 4ff7 	stmdb	sp!, {r0, r1, r2, r4, r5, r6, r7, r8, r9, sl, fp, lr}
    8b58:	461d      	mov	r5, r3
	if (K_TIMEOUT_EQ(timeout, K_FOREVER)) {
    8b5a:	1c6b      	adds	r3, r5, #1
    8b5c:	bf08      	it	eq
    8b5e:	f1b2 3fff 	cmpeq.w	r2, #4294967295
{
    8b62:	4682      	mov	sl, r0
    8b64:	468b      	mov	fp, r1
    8b66:	4614      	mov	r4, r2
	if (K_TIMEOUT_EQ(timeout, K_FOREVER)) {
    8b68:	f000 80aa 	beq.w	8cc0 <z_add_timeout+0x16c>

#ifdef CONFIG_KERNEL_COHERENCE
	__ASSERT_NO_MSG(arch_mem_coherent(to));
#endif

	__ASSERT(!sys_dnode_is_linked(&to->node), "");
    8b6c:	6803      	ldr	r3, [r0, #0]
    8b6e:	b163      	cbz	r3, 8b8a <z_add_timeout+0x36>
    8b70:	4955      	ldr	r1, [pc, #340]	; (8cc8 <z_add_timeout+0x174>)
    8b72:	4a56      	ldr	r2, [pc, #344]	; (8ccc <z_add_timeout+0x178>)
    8b74:	4856      	ldr	r0, [pc, #344]	; (8cd0 <z_add_timeout+0x17c>)
    8b76:	235d      	movs	r3, #93	; 0x5d
    8b78:	f001 f961 	bl	9e3e <printk>
    8b7c:	4855      	ldr	r0, [pc, #340]	; (8cd4 <z_add_timeout+0x180>)
    8b7e:	f001 f95e 	bl	9e3e <printk>
    8b82:	4852      	ldr	r0, [pc, #328]	; (8ccc <z_add_timeout+0x178>)
    8b84:	215d      	movs	r1, #93	; 0x5d
    8b86:	f001 f857 	bl	9c38 <assert_post_action>
	to->fn = fn;
    8b8a:	f8ca b008 	str.w	fp, [sl, #8]
	__asm__ volatile(
    8b8e:	f04f 0320 	mov.w	r3, #32
    8b92:	f3ef 8b11 	mrs	fp, BASEPRI
    8b96:	f383 8812 	msr	BASEPRI_MAX, r3
    8b9a:	f3bf 8f6f 	isb	sy
	__ASSERT(z_spin_lock_valid(l), "Recursive spinlock %p", l);
    8b9e:	484e      	ldr	r0, [pc, #312]	; (8cd8 <z_add_timeout+0x184>)
    8ba0:	f7ff ff62 	bl	8a68 <z_spin_lock_valid>
    8ba4:	b968      	cbnz	r0, 8bc2 <z_add_timeout+0x6e>
    8ba6:	4a4d      	ldr	r2, [pc, #308]	; (8cdc <z_add_timeout+0x188>)
    8ba8:	494d      	ldr	r1, [pc, #308]	; (8ce0 <z_add_timeout+0x18c>)
    8baa:	4849      	ldr	r0, [pc, #292]	; (8cd0 <z_add_timeout+0x17c>)
    8bac:	2381      	movs	r3, #129	; 0x81
    8bae:	f001 f946 	bl	9e3e <printk>
    8bb2:	4949      	ldr	r1, [pc, #292]	; (8cd8 <z_add_timeout+0x184>)
    8bb4:	484b      	ldr	r0, [pc, #300]	; (8ce4 <z_add_timeout+0x190>)
    8bb6:	f001 f942 	bl	9e3e <printk>
    8bba:	4848      	ldr	r0, [pc, #288]	; (8cdc <z_add_timeout+0x188>)
    8bbc:	2181      	movs	r1, #129	; 0x81
    8bbe:	f001 f83b 	bl	9c38 <assert_post_action>
	z_spin_lock_set_owner(l);
    8bc2:	4845      	ldr	r0, [pc, #276]	; (8cd8 <z_add_timeout+0x184>)
    8bc4:	f7ff ff6e 	bl	8aa4 <z_spin_lock_set_owner>

	LOCKED(&timeout_lock) {
		struct _timeout *t;

		if (IS_ENABLED(CONFIG_TIMEOUT_64BIT) &&
		    Z_TICK_ABS(timeout.ticks) >= 0) {
    8bc8:	f06f 0301 	mvn.w	r3, #1
    8bcc:	ebb3 0804 	subs.w	r8, r3, r4
    8bd0:	f04f 32ff 	mov.w	r2, #4294967295
    8bd4:	eb62 0905 	sbc.w	r9, r2, r5
		if (IS_ENABLED(CONFIG_TIMEOUT_64BIT) &&
    8bd8:	f1b8 0f00 	cmp.w	r8, #0
    8bdc:	f179 0100 	sbcs.w	r1, r9, #0
    8be0:	db1c      	blt.n	8c1c <z_add_timeout+0xc8>
			k_ticks_t ticks = Z_TICK_ABS(timeout.ticks) - curr_tick;
    8be2:	4841      	ldr	r0, [pc, #260]	; (8ce8 <z_add_timeout+0x194>)
    8be4:	e9d0 1000 	ldrd	r1, r0, [r0]
    8be8:	1a5b      	subs	r3, r3, r1
    8bea:	eb62 0200 	sbc.w	r2, r2, r0

			to->dticks = MAX(1, ticks);
    8bee:	1b1e      	subs	r6, r3, r4
    8bf0:	eb62 0705 	sbc.w	r7, r2, r5
    8bf4:	2e01      	cmp	r6, #1
    8bf6:	f177 0300 	sbcs.w	r3, r7, #0
    8bfa:	bfbc      	itt	lt
    8bfc:	2601      	movlt	r6, #1
    8bfe:	2700      	movlt	r7, #0
    8c00:	e9ca 6704 	strd	r6, r7, [sl, #16]
	return list->head == list;
    8c04:	4a39      	ldr	r2, [pc, #228]	; (8cec <z_add_timeout+0x198>)
    8c06:	e9d2 3600 	ldrd	r3, r6, [r2]
	return sys_dlist_is_empty(list) ? NULL : list->head;
    8c0a:	4293      	cmp	r3, r2
    8c0c:	d11d      	bne.n	8c4a <z_add_timeout+0xf6>
	node->prev = tail;
    8c0e:	e9ca 2600 	strd	r2, r6, [sl]
	tail->next = node;
    8c12:	f8c6 a000 	str.w	sl, [r6]
	list->tail = node;
    8c16:	f8c2 a004 	str.w	sl, [r2, #4]
}
    8c1a:	e02c      	b.n	8c76 <z_add_timeout+0x122>
		} else {
			to->dticks = timeout.ticks + 1 + elapsed();
    8c1c:	f7ff ff4a 	bl	8ab4 <elapsed>
    8c20:	1c63      	adds	r3, r4, #1
    8c22:	9300      	str	r3, [sp, #0]
    8c24:	f145 0300 	adc.w	r3, r5, #0
    8c28:	9301      	str	r3, [sp, #4]
    8c2a:	e9dd 2300 	ldrd	r2, r3, [sp]
    8c2e:	1812      	adds	r2, r2, r0
    8c30:	eb43 73e0 	adc.w	r3, r3, r0, asr #31
    8c34:	e9ca 2304 	strd	r2, r3, [sl, #16]
    8c38:	e7e4      	b.n	8c04 <z_add_timeout+0xb0>
			if (t->dticks > to->dticks) {
				t->dticks -= to->dticks;
				sys_dlist_insert(&t->node, &to->node);
				break;
			}
			to->dticks -= t->dticks;
    8c3a:	1be0      	subs	r0, r4, r7
    8c3c:	eb65 0108 	sbc.w	r1, r5, r8
	return (node == list->tail) ? NULL : node->next;
    8c40:	42b3      	cmp	r3, r6
    8c42:	e9ca 0104 	strd	r0, r1, [sl, #16]
    8c46:	d0e2      	beq.n	8c0e <z_add_timeout+0xba>
    8c48:	681b      	ldr	r3, [r3, #0]
		for (t = first(); t != NULL; t = next(t)) {
    8c4a:	2b00      	cmp	r3, #0
    8c4c:	d0df      	beq.n	8c0e <z_add_timeout+0xba>
			if (t->dticks > to->dticks) {
    8c4e:	e9d3 7804 	ldrd	r7, r8, [r3, #16]
    8c52:	e9da 4504 	ldrd	r4, r5, [sl, #16]
    8c56:	42bc      	cmp	r4, r7
    8c58:	eb75 0108 	sbcs.w	r1, r5, r8
    8c5c:	daed      	bge.n	8c3a <z_add_timeout+0xe6>
				t->dticks -= to->dticks;
    8c5e:	1b38      	subs	r0, r7, r4
    8c60:	eb68 0105 	sbc.w	r1, r8, r5
    8c64:	e9c3 0104 	strd	r0, r1, [r3, #16]
	sys_dnode_t *const prev = successor->prev;
    8c68:	6859      	ldr	r1, [r3, #4]
	node->next = successor;
    8c6a:	e9ca 3100 	strd	r3, r1, [sl]
	prev->next = node;
    8c6e:	f8c1 a000 	str.w	sl, [r1]
	successor->prev = node;
    8c72:	f8c3 a004 	str.w	sl, [r3, #4]
	return list->head == list;
    8c76:	6813      	ldr	r3, [r2, #0]
	return sys_dlist_is_empty(list) ? NULL : list->head;
    8c78:	4293      	cmp	r3, r2
    8c7a:	d00b      	beq.n	8c94 <z_add_timeout+0x140>

		if (t == NULL) {
			sys_dlist_append(&timeout_list, &to->node);
		}

		if (to == first()) {
    8c7c:	459a      	cmp	sl, r3
    8c7e:	d109      	bne.n	8c94 <z_add_timeout+0x140>
			 * last announcement, and slice_ticks is based
			 * on that. It means that the time remaining for
			 * the next announcement can be less than
			 * slice_ticks.
			 */
			int32_t next_time = next_timeout();
    8c80:	f7ff ff22 	bl	8ac8 <next_timeout>

			if (next_time == 0 ||
    8c84:	b118      	cbz	r0, 8c8e <z_add_timeout+0x13a>
			    _current_cpu->slice_ticks != next_time) {
    8c86:	4b1a      	ldr	r3, [pc, #104]	; (8cf0 <z_add_timeout+0x19c>)
			if (next_time == 0 ||
    8c88:	691b      	ldr	r3, [r3, #16]
    8c8a:	4283      	cmp	r3, r0
    8c8c:	d002      	beq.n	8c94 <z_add_timeout+0x140>
				sys_clock_set_timeout(next_time, false);
    8c8e:	2100      	movs	r1, #0
    8c90:	f7fc fc4a 	bl	5528 <sys_clock_set_timeout>
	__ASSERT(z_spin_unlock_valid(l), "Not my spinlock %p", l);
    8c94:	4810      	ldr	r0, [pc, #64]	; (8cd8 <z_add_timeout+0x184>)
    8c96:	f7ff fef5 	bl	8a84 <z_spin_unlock_valid>
    8c9a:	b968      	cbnz	r0, 8cb8 <z_add_timeout+0x164>
    8c9c:	4a0f      	ldr	r2, [pc, #60]	; (8cdc <z_add_timeout+0x188>)
    8c9e:	4915      	ldr	r1, [pc, #84]	; (8cf4 <z_add_timeout+0x1a0>)
    8ca0:	480b      	ldr	r0, [pc, #44]	; (8cd0 <z_add_timeout+0x17c>)
    8ca2:	23ac      	movs	r3, #172	; 0xac
    8ca4:	f001 f8cb 	bl	9e3e <printk>
    8ca8:	490b      	ldr	r1, [pc, #44]	; (8cd8 <z_add_timeout+0x184>)
    8caa:	4813      	ldr	r0, [pc, #76]	; (8cf8 <z_add_timeout+0x1a4>)
    8cac:	f001 f8c7 	bl	9e3e <printk>
    8cb0:	480a      	ldr	r0, [pc, #40]	; (8cdc <z_add_timeout+0x188>)
    8cb2:	21ac      	movs	r1, #172	; 0xac
    8cb4:	f000 ffc0 	bl	9c38 <assert_post_action>
	__asm__ volatile(
    8cb8:	f38b 8811 	msr	BASEPRI, fp
    8cbc:	f3bf 8f6f 	isb	sy
#else
			sys_clock_set_timeout(next_timeout(), false);
#endif	/* CONFIG_TIMESLICING */
		}
	}
}
    8cc0:	b003      	add	sp, #12
    8cc2:	e8bd 8ff0 	ldmia.w	sp!, {r4, r5, r6, r7, r8, r9, sl, fp, pc}
    8cc6:	bf00      	nop
    8cc8:	0000c927 	.word	0x0000c927
    8ccc:	0000c903 	.word	0x0000c903
    8cd0:	0000b2d3 	.word	0x0000b2d3
    8cd4:	0000c4ef 	.word	0x0000c4ef
    8cd8:	20000e94 	.word	0x20000e94
    8cdc:	0000ba96 	.word	0x0000ba96
    8ce0:	0000bae8 	.word	0x0000bae8
    8ce4:	0000bafd 	.word	0x0000bafd
    8ce8:	200006e0 	.word	0x200006e0
    8cec:	200001c8 	.word	0x200001c8
    8cf0:	20000e4c 	.word	0x20000e4c
    8cf4:	0000babc 	.word	0x0000babc
    8cf8:	0000bad3 	.word	0x0000bad3

00008cfc <z_abort_timeout>:

int z_abort_timeout(struct _timeout *to)
{
    8cfc:	b538      	push	{r3, r4, r5, lr}
    8cfe:	4604      	mov	r4, r0
	__asm__ volatile(
    8d00:	f04f 0320 	mov.w	r3, #32
    8d04:	f3ef 8511 	mrs	r5, BASEPRI
    8d08:	f383 8812 	msr	BASEPRI_MAX, r3
    8d0c:	f3bf 8f6f 	isb	sy
	__ASSERT(z_spin_lock_valid(l), "Recursive spinlock %p", l);
    8d10:	481a      	ldr	r0, [pc, #104]	; (8d7c <z_abort_timeout+0x80>)
    8d12:	f7ff fea9 	bl	8a68 <z_spin_lock_valid>
    8d16:	b968      	cbnz	r0, 8d34 <z_abort_timeout+0x38>
    8d18:	4a19      	ldr	r2, [pc, #100]	; (8d80 <z_abort_timeout+0x84>)
    8d1a:	491a      	ldr	r1, [pc, #104]	; (8d84 <z_abort_timeout+0x88>)
    8d1c:	481a      	ldr	r0, [pc, #104]	; (8d88 <z_abort_timeout+0x8c>)
    8d1e:	2381      	movs	r3, #129	; 0x81
    8d20:	f001 f88d 	bl	9e3e <printk>
    8d24:	4915      	ldr	r1, [pc, #84]	; (8d7c <z_abort_timeout+0x80>)
    8d26:	4819      	ldr	r0, [pc, #100]	; (8d8c <z_abort_timeout+0x90>)
    8d28:	f001 f889 	bl	9e3e <printk>
    8d2c:	4814      	ldr	r0, [pc, #80]	; (8d80 <z_abort_timeout+0x84>)
    8d2e:	2181      	movs	r1, #129	; 0x81
    8d30:	f000 ff82 	bl	9c38 <assert_post_action>
	z_spin_lock_set_owner(l);
    8d34:	4811      	ldr	r0, [pc, #68]	; (8d7c <z_abort_timeout+0x80>)
    8d36:	f7ff feb5 	bl	8aa4 <z_spin_lock_set_owner>
	int ret = -EINVAL;

	LOCKED(&timeout_lock) {
		if (sys_dnode_is_linked(&to->node)) {
    8d3a:	6823      	ldr	r3, [r4, #0]
    8d3c:	b1db      	cbz	r3, 8d76 <z_abort_timeout+0x7a>
			remove_timeout(to);
    8d3e:	4620      	mov	r0, r4
    8d40:	f7ff feee 	bl	8b20 <remove_timeout>
			ret = 0;
    8d44:	2400      	movs	r4, #0
	__ASSERT(z_spin_unlock_valid(l), "Not my spinlock %p", l);
    8d46:	480d      	ldr	r0, [pc, #52]	; (8d7c <z_abort_timeout+0x80>)
    8d48:	f7ff fe9c 	bl	8a84 <z_spin_unlock_valid>
    8d4c:	b968      	cbnz	r0, 8d6a <z_abort_timeout+0x6e>
    8d4e:	4a0c      	ldr	r2, [pc, #48]	; (8d80 <z_abort_timeout+0x84>)
    8d50:	490f      	ldr	r1, [pc, #60]	; (8d90 <z_abort_timeout+0x94>)
    8d52:	480d      	ldr	r0, [pc, #52]	; (8d88 <z_abort_timeout+0x8c>)
    8d54:	23ac      	movs	r3, #172	; 0xac
    8d56:	f001 f872 	bl	9e3e <printk>
    8d5a:	4908      	ldr	r1, [pc, #32]	; (8d7c <z_abort_timeout+0x80>)
    8d5c:	480d      	ldr	r0, [pc, #52]	; (8d94 <z_abort_timeout+0x98>)
    8d5e:	f001 f86e 	bl	9e3e <printk>
    8d62:	4807      	ldr	r0, [pc, #28]	; (8d80 <z_abort_timeout+0x84>)
    8d64:	21ac      	movs	r1, #172	; 0xac
    8d66:	f000 ff67 	bl	9c38 <assert_post_action>
	__asm__ volatile(
    8d6a:	f385 8811 	msr	BASEPRI, r5
    8d6e:	f3bf 8f6f 	isb	sy
		}
	}

	return ret;
}
    8d72:	4620      	mov	r0, r4
    8d74:	bd38      	pop	{r3, r4, r5, pc}
	int ret = -EINVAL;
    8d76:	f06f 0415 	mvn.w	r4, #21
    8d7a:	e7e4      	b.n	8d46 <z_abort_timeout+0x4a>
    8d7c:	20000e94 	.word	0x20000e94
    8d80:	0000ba96 	.word	0x0000ba96
    8d84:	0000bae8 	.word	0x0000bae8
    8d88:	0000b2d3 	.word	0x0000b2d3
    8d8c:	0000bafd 	.word	0x0000bafd
    8d90:	0000babc 	.word	0x0000babc
    8d94:	0000bad3 	.word	0x0000bad3

00008d98 <z_get_next_timeout_expiry>:

	return ticks;
}

int32_t z_get_next_timeout_expiry(void)
{
    8d98:	b538      	push	{r3, r4, r5, lr}
	__asm__ volatile(
    8d9a:	f04f 0320 	mov.w	r3, #32
    8d9e:	f3ef 8511 	mrs	r5, BASEPRI
    8da2:	f383 8812 	msr	BASEPRI_MAX, r3
    8da6:	f3bf 8f6f 	isb	sy
	__ASSERT(z_spin_lock_valid(l), "Recursive spinlock %p", l);
    8daa:	4818      	ldr	r0, [pc, #96]	; (8e0c <z_get_next_timeout_expiry+0x74>)
    8dac:	f7ff fe5c 	bl	8a68 <z_spin_lock_valid>
    8db0:	b968      	cbnz	r0, 8dce <z_get_next_timeout_expiry+0x36>
    8db2:	4a17      	ldr	r2, [pc, #92]	; (8e10 <z_get_next_timeout_expiry+0x78>)
    8db4:	4917      	ldr	r1, [pc, #92]	; (8e14 <z_get_next_timeout_expiry+0x7c>)
    8db6:	4818      	ldr	r0, [pc, #96]	; (8e18 <z_get_next_timeout_expiry+0x80>)
    8db8:	2381      	movs	r3, #129	; 0x81
    8dba:	f001 f840 	bl	9e3e <printk>
    8dbe:	4913      	ldr	r1, [pc, #76]	; (8e0c <z_get_next_timeout_expiry+0x74>)
    8dc0:	4816      	ldr	r0, [pc, #88]	; (8e1c <z_get_next_timeout_expiry+0x84>)
    8dc2:	f001 f83c 	bl	9e3e <printk>
    8dc6:	4812      	ldr	r0, [pc, #72]	; (8e10 <z_get_next_timeout_expiry+0x78>)
    8dc8:	2181      	movs	r1, #129	; 0x81
    8dca:	f000 ff35 	bl	9c38 <assert_post_action>
	z_spin_lock_set_owner(l);
    8dce:	480f      	ldr	r0, [pc, #60]	; (8e0c <z_get_next_timeout_expiry+0x74>)
    8dd0:	f7ff fe68 	bl	8aa4 <z_spin_lock_set_owner>
	int32_t ret = (int32_t) K_TICKS_FOREVER;

	LOCKED(&timeout_lock) {
		ret = next_timeout();
    8dd4:	f7ff fe78 	bl	8ac8 <next_timeout>
    8dd8:	4604      	mov	r4, r0
	__ASSERT(z_spin_unlock_valid(l), "Not my spinlock %p", l);
    8dda:	480c      	ldr	r0, [pc, #48]	; (8e0c <z_get_next_timeout_expiry+0x74>)
    8ddc:	f7ff fe52 	bl	8a84 <z_spin_unlock_valid>
    8de0:	b968      	cbnz	r0, 8dfe <z_get_next_timeout_expiry+0x66>
    8de2:	4a0b      	ldr	r2, [pc, #44]	; (8e10 <z_get_next_timeout_expiry+0x78>)
    8de4:	490e      	ldr	r1, [pc, #56]	; (8e20 <z_get_next_timeout_expiry+0x88>)
    8de6:	480c      	ldr	r0, [pc, #48]	; (8e18 <z_get_next_timeout_expiry+0x80>)
    8de8:	23ac      	movs	r3, #172	; 0xac
    8dea:	f001 f828 	bl	9e3e <printk>
    8dee:	4907      	ldr	r1, [pc, #28]	; (8e0c <z_get_next_timeout_expiry+0x74>)
    8df0:	480c      	ldr	r0, [pc, #48]	; (8e24 <z_get_next_timeout_expiry+0x8c>)
    8df2:	f001 f824 	bl	9e3e <printk>
    8df6:	4806      	ldr	r0, [pc, #24]	; (8e10 <z_get_next_timeout_expiry+0x78>)
    8df8:	21ac      	movs	r1, #172	; 0xac
    8dfa:	f000 ff1d 	bl	9c38 <assert_post_action>
	__asm__ volatile(
    8dfe:	f385 8811 	msr	BASEPRI, r5
    8e02:	f3bf 8f6f 	isb	sy
	}
	return ret;
}
    8e06:	4620      	mov	r0, r4
    8e08:	bd38      	pop	{r3, r4, r5, pc}
    8e0a:	bf00      	nop
    8e0c:	20000e94 	.word	0x20000e94
    8e10:	0000ba96 	.word	0x0000ba96
    8e14:	0000bae8 	.word	0x0000bae8
    8e18:	0000b2d3 	.word	0x0000b2d3
    8e1c:	0000bafd 	.word	0x0000bafd
    8e20:	0000babc 	.word	0x0000babc
    8e24:	0000bad3 	.word	0x0000bad3

00008e28 <z_set_timeout_expiry>:

void z_set_timeout_expiry(int32_t ticks, bool is_idle)
{
    8e28:	b570      	push	{r4, r5, r6, lr}
    8e2a:	4604      	mov	r4, r0
    8e2c:	460d      	mov	r5, r1
	__asm__ volatile(
    8e2e:	f04f 0320 	mov.w	r3, #32
    8e32:	f3ef 8611 	mrs	r6, BASEPRI
    8e36:	f383 8812 	msr	BASEPRI_MAX, r3
    8e3a:	f3bf 8f6f 	isb	sy
	__ASSERT(z_spin_lock_valid(l), "Recursive spinlock %p", l);
    8e3e:	481b      	ldr	r0, [pc, #108]	; (8eac <z_set_timeout_expiry+0x84>)
    8e40:	f7ff fe12 	bl	8a68 <z_spin_lock_valid>
    8e44:	b968      	cbnz	r0, 8e62 <z_set_timeout_expiry+0x3a>
    8e46:	4a1a      	ldr	r2, [pc, #104]	; (8eb0 <z_set_timeout_expiry+0x88>)
    8e48:	491a      	ldr	r1, [pc, #104]	; (8eb4 <z_set_timeout_expiry+0x8c>)
    8e4a:	481b      	ldr	r0, [pc, #108]	; (8eb8 <z_set_timeout_expiry+0x90>)
    8e4c:	2381      	movs	r3, #129	; 0x81
    8e4e:	f000 fff6 	bl	9e3e <printk>
    8e52:	4916      	ldr	r1, [pc, #88]	; (8eac <z_set_timeout_expiry+0x84>)
    8e54:	4819      	ldr	r0, [pc, #100]	; (8ebc <z_set_timeout_expiry+0x94>)
    8e56:	f000 fff2 	bl	9e3e <printk>
    8e5a:	4815      	ldr	r0, [pc, #84]	; (8eb0 <z_set_timeout_expiry+0x88>)
    8e5c:	2181      	movs	r1, #129	; 0x81
    8e5e:	f000 feeb 	bl	9c38 <assert_post_action>
	z_spin_lock_set_owner(l);
    8e62:	4812      	ldr	r0, [pc, #72]	; (8eac <z_set_timeout_expiry+0x84>)
    8e64:	f7ff fe1e 	bl	8aa4 <z_spin_lock_set_owner>
	LOCKED(&timeout_lock) {
		int next_to = next_timeout();
    8e68:	f7ff fe2e 	bl	8ac8 <next_timeout>
		 * SMP can't use this optimization though: we don't
		 * know when context switches happen until interrupt
		 * exit and so can't get the timeslicing clamp folded
		 * in.
		 */
		if (!imminent && (sooner || IS_ENABLED(CONFIG_SMP))) {
    8e6c:	2801      	cmp	r0, #1
    8e6e:	dd05      	ble.n	8e7c <z_set_timeout_expiry+0x54>
    8e70:	42a0      	cmp	r0, r4
    8e72:	db03      	blt.n	8e7c <z_set_timeout_expiry+0x54>
			sys_clock_set_timeout(MIN(ticks, next_to), is_idle);
    8e74:	4629      	mov	r1, r5
    8e76:	4620      	mov	r0, r4
    8e78:	f7fc fb56 	bl	5528 <sys_clock_set_timeout>
	__ASSERT(z_spin_unlock_valid(l), "Not my spinlock %p", l);
    8e7c:	480b      	ldr	r0, [pc, #44]	; (8eac <z_set_timeout_expiry+0x84>)
    8e7e:	f7ff fe01 	bl	8a84 <z_spin_unlock_valid>
    8e82:	b968      	cbnz	r0, 8ea0 <z_set_timeout_expiry+0x78>
    8e84:	4a0a      	ldr	r2, [pc, #40]	; (8eb0 <z_set_timeout_expiry+0x88>)
    8e86:	490e      	ldr	r1, [pc, #56]	; (8ec0 <z_set_timeout_expiry+0x98>)
    8e88:	480b      	ldr	r0, [pc, #44]	; (8eb8 <z_set_timeout_expiry+0x90>)
    8e8a:	23ac      	movs	r3, #172	; 0xac
    8e8c:	f000 ffd7 	bl	9e3e <printk>
    8e90:	4906      	ldr	r1, [pc, #24]	; (8eac <z_set_timeout_expiry+0x84>)
    8e92:	480c      	ldr	r0, [pc, #48]	; (8ec4 <z_set_timeout_expiry+0x9c>)
    8e94:	f000 ffd3 	bl	9e3e <printk>
    8e98:	4805      	ldr	r0, [pc, #20]	; (8eb0 <z_set_timeout_expiry+0x88>)
    8e9a:	21ac      	movs	r1, #172	; 0xac
    8e9c:	f000 fecc 	bl	9c38 <assert_post_action>
	__asm__ volatile(
    8ea0:	f386 8811 	msr	BASEPRI, r6
    8ea4:	f3bf 8f6f 	isb	sy
		}
	}
}
    8ea8:	bd70      	pop	{r4, r5, r6, pc}
    8eaa:	bf00      	nop
    8eac:	20000e94 	.word	0x20000e94
    8eb0:	0000ba96 	.word	0x0000ba96
    8eb4:	0000bae8 	.word	0x0000bae8
    8eb8:	0000b2d3 	.word	0x0000b2d3
    8ebc:	0000bafd 	.word	0x0000bafd
    8ec0:	0000babc 	.word	0x0000babc
    8ec4:	0000bad3 	.word	0x0000bad3

00008ec8 <sys_clock_announce>:

void sys_clock_announce(int32_t ticks)
{
    8ec8:	e92d 4ff7 	stmdb	sp!, {r0, r1, r2, r4, r5, r6, r7, r8, r9, sl, fp, lr}
    8ecc:	4604      	mov	r4, r0
#ifdef CONFIG_TIMESLICING
	z_time_slice(ticks);
    8ece:	f7fe fc0d 	bl	76ec <z_time_slice>
	__asm__ volatile(
    8ed2:	f04f 0320 	mov.w	r3, #32
    8ed6:	f3ef 8711 	mrs	r7, BASEPRI
    8eda:	f383 8812 	msr	BASEPRI_MAX, r3
    8ede:	f3bf 8f6f 	isb	sy
	__ASSERT(z_spin_lock_valid(l), "Recursive spinlock %p", l);
    8ee2:	4855      	ldr	r0, [pc, #340]	; (9038 <sys_clock_announce+0x170>)
    8ee4:	f7ff fdc0 	bl	8a68 <z_spin_lock_valid>
    8ee8:	b968      	cbnz	r0, 8f06 <sys_clock_announce+0x3e>
    8eea:	4a54      	ldr	r2, [pc, #336]	; (903c <sys_clock_announce+0x174>)
    8eec:	4954      	ldr	r1, [pc, #336]	; (9040 <sys_clock_announce+0x178>)
    8eee:	4855      	ldr	r0, [pc, #340]	; (9044 <sys_clock_announce+0x17c>)
    8ef0:	2381      	movs	r3, #129	; 0x81
    8ef2:	f000 ffa4 	bl	9e3e <printk>
    8ef6:	4950      	ldr	r1, [pc, #320]	; (9038 <sys_clock_announce+0x170>)
    8ef8:	4853      	ldr	r0, [pc, #332]	; (9048 <sys_clock_announce+0x180>)
    8efa:	f000 ffa0 	bl	9e3e <printk>
    8efe:	484f      	ldr	r0, [pc, #316]	; (903c <sys_clock_announce+0x174>)
    8f00:	2181      	movs	r1, #129	; 0x81
    8f02:	f000 fe99 	bl	9c38 <assert_post_action>
#endif

	k_spinlock_key_t key = k_spin_lock(&timeout_lock);

	announce_remaining = ticks;
    8f06:	4d51      	ldr	r5, [pc, #324]	; (904c <sys_clock_announce+0x184>)
    8f08:	4e51      	ldr	r6, [pc, #324]	; (9050 <sys_clock_announce+0x188>)
	z_spin_lock_set_owner(l);
    8f0a:	484b      	ldr	r0, [pc, #300]	; (9038 <sys_clock_announce+0x170>)
	return list->head == list;
    8f0c:	f8df a14c 	ldr.w	sl, [pc, #332]	; 905c <sys_clock_announce+0x194>
    8f10:	f7ff fdc8 	bl	8aa4 <z_spin_lock_set_owner>
    8f14:	46b3      	mov	fp, r6
    8f16:	602c      	str	r4, [r5, #0]
    8f18:	e9d6 2300 	ldrd	r2, r3, [r6]
    8f1c:	f8d5 c000 	ldr.w	ip, [r5]
    8f20:	f8da 4000 	ldr.w	r4, [sl]
    8f24:	e9cd 2300 	strd	r2, r3, [sp]
    8f28:	4662      	mov	r2, ip
    8f2a:	17d3      	asrs	r3, r2, #31
	return sys_dlist_is_empty(list) ? NULL : list->head;
    8f2c:	4554      	cmp	r4, sl
    8f2e:	46e0      	mov	r8, ip
    8f30:	4699      	mov	r9, r3
    8f32:	d00c      	beq.n	8f4e <sys_clock_announce+0x86>

	while (first() != NULL && first()->dticks <= announce_remaining) {
    8f34:	b15c      	cbz	r4, 8f4e <sys_clock_announce+0x86>
    8f36:	e9d4 1204 	ldrd	r1, r2, [r4, #16]
    8f3a:	458c      	cmp	ip, r1
    8f3c:	eb79 0302 	sbcs.w	r3, r9, r2
    8f40:	da2e      	bge.n	8fa0 <sys_clock_announce+0xd8>
		t->fn(t);
		key = k_spin_lock(&timeout_lock);
	}

	if (first() != NULL) {
		first()->dticks -= announce_remaining;
    8f42:	ebb1 000c 	subs.w	r0, r1, ip
    8f46:	eb62 0109 	sbc.w	r1, r2, r9
    8f4a:	e9c4 0104 	strd	r0, r1, [r4, #16]
	}

	curr_tick += announce_remaining;
    8f4e:	9a00      	ldr	r2, [sp, #0]
    8f50:	9901      	ldr	r1, [sp, #4]
    8f52:	eb18 0202 	adds.w	r2, r8, r2
    8f56:	464b      	mov	r3, r9
    8f58:	eb43 0101 	adc.w	r1, r3, r1
	announce_remaining = 0;
    8f5c:	2400      	movs	r4, #0
	curr_tick += announce_remaining;
    8f5e:	e9cb 2100 	strd	r2, r1, [fp]
	announce_remaining = 0;
    8f62:	602c      	str	r4, [r5, #0]

	sys_clock_set_timeout(next_timeout(), false);
    8f64:	f7ff fdb0 	bl	8ac8 <next_timeout>
    8f68:	4621      	mov	r1, r4
    8f6a:	f7fc fadd 	bl	5528 <sys_clock_set_timeout>
	__ASSERT(z_spin_unlock_valid(l), "Not my spinlock %p", l);
    8f6e:	4832      	ldr	r0, [pc, #200]	; (9038 <sys_clock_announce+0x170>)
    8f70:	f7ff fd88 	bl	8a84 <z_spin_unlock_valid>
    8f74:	b968      	cbnz	r0, 8f92 <sys_clock_announce+0xca>
    8f76:	4a31      	ldr	r2, [pc, #196]	; (903c <sys_clock_announce+0x174>)
    8f78:	4936      	ldr	r1, [pc, #216]	; (9054 <sys_clock_announce+0x18c>)
    8f7a:	4832      	ldr	r0, [pc, #200]	; (9044 <sys_clock_announce+0x17c>)
    8f7c:	23ac      	movs	r3, #172	; 0xac
    8f7e:	f000 ff5e 	bl	9e3e <printk>
    8f82:	492d      	ldr	r1, [pc, #180]	; (9038 <sys_clock_announce+0x170>)
    8f84:	4834      	ldr	r0, [pc, #208]	; (9058 <sys_clock_announce+0x190>)
    8f86:	f000 ff5a 	bl	9e3e <printk>
    8f8a:	482c      	ldr	r0, [pc, #176]	; (903c <sys_clock_announce+0x174>)
    8f8c:	21ac      	movs	r1, #172	; 0xac
    8f8e:	f000 fe53 	bl	9c38 <assert_post_action>
	__asm__ volatile(
    8f92:	f387 8811 	msr	BASEPRI, r7
    8f96:	f3bf 8f6f 	isb	sy

	k_spin_unlock(&timeout_lock, key);
}
    8f9a:	b003      	add	sp, #12
    8f9c:	e8bd 8ff0 	ldmia.w	sp!, {r4, r5, r6, r7, r8, r9, sl, fp, pc}
		curr_tick += dt;
    8fa0:	e9dd 8900 	ldrd	r8, r9, [sp]
		announce_remaining -= dt;
    8fa4:	ebac 0001 	sub.w	r0, ip, r1
		curr_tick += dt;
    8fa8:	eb18 0801 	adds.w	r8, r8, r1
		t->dticks = 0;
    8fac:	f04f 0200 	mov.w	r2, #0
    8fb0:	f04f 0300 	mov.w	r3, #0
		curr_tick += dt;
    8fb4:	eb49 79e1 	adc.w	r9, r9, r1, asr #31
		announce_remaining -= dt;
    8fb8:	6028      	str	r0, [r5, #0]
		t->dticks = 0;
    8fba:	e9c4 2304 	strd	r2, r3, [r4, #16]
		remove_timeout(t);
    8fbe:	4620      	mov	r0, r4
		curr_tick += dt;
    8fc0:	e9c6 8900 	strd	r8, r9, [r6]
		remove_timeout(t);
    8fc4:	f7ff fdac 	bl	8b20 <remove_timeout>
    8fc8:	481b      	ldr	r0, [pc, #108]	; (9038 <sys_clock_announce+0x170>)
    8fca:	f7ff fd5b 	bl	8a84 <z_spin_unlock_valid>
    8fce:	b968      	cbnz	r0, 8fec <sys_clock_announce+0x124>
    8fd0:	4a1a      	ldr	r2, [pc, #104]	; (903c <sys_clock_announce+0x174>)
    8fd2:	4920      	ldr	r1, [pc, #128]	; (9054 <sys_clock_announce+0x18c>)
    8fd4:	481b      	ldr	r0, [pc, #108]	; (9044 <sys_clock_announce+0x17c>)
    8fd6:	23ac      	movs	r3, #172	; 0xac
    8fd8:	f000 ff31 	bl	9e3e <printk>
    8fdc:	4916      	ldr	r1, [pc, #88]	; (9038 <sys_clock_announce+0x170>)
    8fde:	481e      	ldr	r0, [pc, #120]	; (9058 <sys_clock_announce+0x190>)
    8fe0:	f000 ff2d 	bl	9e3e <printk>
    8fe4:	4815      	ldr	r0, [pc, #84]	; (903c <sys_clock_announce+0x174>)
    8fe6:	21ac      	movs	r1, #172	; 0xac
    8fe8:	f000 fe26 	bl	9c38 <assert_post_action>
    8fec:	f387 8811 	msr	BASEPRI, r7
    8ff0:	f3bf 8f6f 	isb	sy
		t->fn(t);
    8ff4:	68a3      	ldr	r3, [r4, #8]
    8ff6:	4620      	mov	r0, r4
    8ff8:	4798      	blx	r3
	__asm__ volatile(
    8ffa:	f04f 0320 	mov.w	r3, #32
    8ffe:	f3ef 8711 	mrs	r7, BASEPRI
    9002:	f383 8812 	msr	BASEPRI_MAX, r3
    9006:	f3bf 8f6f 	isb	sy
	__ASSERT(z_spin_lock_valid(l), "Recursive spinlock %p", l);
    900a:	480b      	ldr	r0, [pc, #44]	; (9038 <sys_clock_announce+0x170>)
    900c:	f7ff fd2c 	bl	8a68 <z_spin_lock_valid>
    9010:	b968      	cbnz	r0, 902e <sys_clock_announce+0x166>
    9012:	4a0a      	ldr	r2, [pc, #40]	; (903c <sys_clock_announce+0x174>)
    9014:	490a      	ldr	r1, [pc, #40]	; (9040 <sys_clock_announce+0x178>)
    9016:	480b      	ldr	r0, [pc, #44]	; (9044 <sys_clock_announce+0x17c>)
    9018:	2381      	movs	r3, #129	; 0x81
    901a:	f000 ff10 	bl	9e3e <printk>
    901e:	4906      	ldr	r1, [pc, #24]	; (9038 <sys_clock_announce+0x170>)
    9020:	4809      	ldr	r0, [pc, #36]	; (9048 <sys_clock_announce+0x180>)
    9022:	f000 ff0c 	bl	9e3e <printk>
    9026:	4805      	ldr	r0, [pc, #20]	; (903c <sys_clock_announce+0x174>)
    9028:	2181      	movs	r1, #129	; 0x81
    902a:	f000 fe05 	bl	9c38 <assert_post_action>
	z_spin_lock_set_owner(l);
    902e:	4802      	ldr	r0, [pc, #8]	; (9038 <sys_clock_announce+0x170>)
    9030:	f7ff fd38 	bl	8aa4 <z_spin_lock_set_owner>
	return k;
    9034:	e770      	b.n	8f18 <sys_clock_announce+0x50>
    9036:	bf00      	nop
    9038:	20000e94 	.word	0x20000e94
    903c:	0000ba96 	.word	0x0000ba96
    9040:	0000bae8 	.word	0x0000bae8
    9044:	0000b2d3 	.word	0x0000b2d3
    9048:	0000bafd 	.word	0x0000bafd
    904c:	20000e90 	.word	0x20000e90
    9050:	200006e0 	.word	0x200006e0
    9054:	0000babc 	.word	0x0000babc
    9058:	0000bad3 	.word	0x0000bad3
    905c:	200001c8 	.word	0x200001c8

00009060 <sys_clock_tick_get>:

int64_t sys_clock_tick_get(void)
{
    9060:	b570      	push	{r4, r5, r6, lr}
    9062:	f04f 0320 	mov.w	r3, #32
    9066:	f3ef 8611 	mrs	r6, BASEPRI
    906a:	f383 8812 	msr	BASEPRI_MAX, r3
    906e:	f3bf 8f6f 	isb	sy
	__ASSERT(z_spin_lock_valid(l), "Recursive spinlock %p", l);
    9072:	481b      	ldr	r0, [pc, #108]	; (90e0 <sys_clock_tick_get+0x80>)
    9074:	f7ff fcf8 	bl	8a68 <z_spin_lock_valid>
    9078:	b968      	cbnz	r0, 9096 <sys_clock_tick_get+0x36>
    907a:	4a1a      	ldr	r2, [pc, #104]	; (90e4 <sys_clock_tick_get+0x84>)
    907c:	491a      	ldr	r1, [pc, #104]	; (90e8 <sys_clock_tick_get+0x88>)
    907e:	481b      	ldr	r0, [pc, #108]	; (90ec <sys_clock_tick_get+0x8c>)
    9080:	2381      	movs	r3, #129	; 0x81
    9082:	f000 fedc 	bl	9e3e <printk>
    9086:	4916      	ldr	r1, [pc, #88]	; (90e0 <sys_clock_tick_get+0x80>)
    9088:	4819      	ldr	r0, [pc, #100]	; (90f0 <sys_clock_tick_get+0x90>)
    908a:	f000 fed8 	bl	9e3e <printk>
    908e:	4815      	ldr	r0, [pc, #84]	; (90e4 <sys_clock_tick_get+0x84>)
    9090:	2181      	movs	r1, #129	; 0x81
    9092:	f000 fdd1 	bl	9c38 <assert_post_action>
	z_spin_lock_set_owner(l);
    9096:	4812      	ldr	r0, [pc, #72]	; (90e0 <sys_clock_tick_get+0x80>)
    9098:	f7ff fd04 	bl	8aa4 <z_spin_lock_set_owner>
	uint64_t t = 0U;

	LOCKED(&timeout_lock) {
		t = curr_tick + sys_clock_elapsed();
    909c:	f7fc fa74 	bl	5588 <sys_clock_elapsed>
    90a0:	4b14      	ldr	r3, [pc, #80]	; (90f4 <sys_clock_tick_get+0x94>)
    90a2:	e9d3 4500 	ldrd	r4, r5, [r3]
    90a6:	1824      	adds	r4, r4, r0
	__ASSERT(z_spin_unlock_valid(l), "Not my spinlock %p", l);
    90a8:	480d      	ldr	r0, [pc, #52]	; (90e0 <sys_clock_tick_get+0x80>)
    90aa:	f145 0500 	adc.w	r5, r5, #0
    90ae:	f7ff fce9 	bl	8a84 <z_spin_unlock_valid>
    90b2:	b968      	cbnz	r0, 90d0 <sys_clock_tick_get+0x70>
    90b4:	4a0b      	ldr	r2, [pc, #44]	; (90e4 <sys_clock_tick_get+0x84>)
    90b6:	4910      	ldr	r1, [pc, #64]	; (90f8 <sys_clock_tick_get+0x98>)
    90b8:	480c      	ldr	r0, [pc, #48]	; (90ec <sys_clock_tick_get+0x8c>)
    90ba:	23ac      	movs	r3, #172	; 0xac
    90bc:	f000 febf 	bl	9e3e <printk>
    90c0:	4907      	ldr	r1, [pc, #28]	; (90e0 <sys_clock_tick_get+0x80>)
    90c2:	480e      	ldr	r0, [pc, #56]	; (90fc <sys_clock_tick_get+0x9c>)
    90c4:	f000 febb 	bl	9e3e <printk>
    90c8:	4806      	ldr	r0, [pc, #24]	; (90e4 <sys_clock_tick_get+0x84>)
    90ca:	21ac      	movs	r1, #172	; 0xac
    90cc:	f000 fdb4 	bl	9c38 <assert_post_action>
	__asm__ volatile(
    90d0:	f386 8811 	msr	BASEPRI, r6
    90d4:	f3bf 8f6f 	isb	sy
	}
	return t;
}
    90d8:	4620      	mov	r0, r4
    90da:	4629      	mov	r1, r5
    90dc:	bd70      	pop	{r4, r5, r6, pc}
    90de:	bf00      	nop
    90e0:	20000e94 	.word	0x20000e94
    90e4:	0000ba96 	.word	0x0000ba96
    90e8:	0000bae8 	.word	0x0000bae8
    90ec:	0000b2d3 	.word	0x0000b2d3
    90f0:	0000bafd 	.word	0x0000bafd
    90f4:	200006e0 	.word	0x200006e0
    90f8:	0000babc 	.word	0x0000babc
    90fc:	0000bad3 	.word	0x0000bad3

00009100 <z_timer_expiration_handler>:
 * @param t  Timeout used by the timer.
 *
 * @return N/A
 */
void z_timer_expiration_handler(struct _timeout *t)
{
    9100:	b5f8      	push	{r3, r4, r5, r6, r7, lr}
    9102:	4604      	mov	r4, r0
	__asm__ volatile(
    9104:	f04f 0320 	mov.w	r3, #32
    9108:	f3ef 8511 	mrs	r5, BASEPRI
    910c:	f383 8812 	msr	BASEPRI_MAX, r3
    9110:	f3bf 8f6f 	isb	sy
	__ASSERT(z_spin_lock_valid(l), "Recursive spinlock %p", l);
    9114:	484c      	ldr	r0, [pc, #304]	; (9248 <z_timer_expiration_handler+0x148>)
    9116:	f7ff fca7 	bl	8a68 <z_spin_lock_valid>
    911a:	b968      	cbnz	r0, 9138 <z_timer_expiration_handler+0x38>
    911c:	4a4b      	ldr	r2, [pc, #300]	; (924c <z_timer_expiration_handler+0x14c>)
    911e:	494c      	ldr	r1, [pc, #304]	; (9250 <z_timer_expiration_handler+0x150>)
    9120:	484c      	ldr	r0, [pc, #304]	; (9254 <z_timer_expiration_handler+0x154>)
    9122:	2381      	movs	r3, #129	; 0x81
    9124:	f000 fe8b 	bl	9e3e <printk>
    9128:	4947      	ldr	r1, [pc, #284]	; (9248 <z_timer_expiration_handler+0x148>)
    912a:	484b      	ldr	r0, [pc, #300]	; (9258 <z_timer_expiration_handler+0x158>)
    912c:	f000 fe87 	bl	9e3e <printk>
    9130:	4846      	ldr	r0, [pc, #280]	; (924c <z_timer_expiration_handler+0x14c>)
    9132:	2181      	movs	r1, #129	; 0x81
    9134:	f000 fd80 	bl	9c38 <assert_post_action>
	z_spin_lock_set_owner(l);
    9138:	4843      	ldr	r0, [pc, #268]	; (9248 <z_timer_expiration_handler+0x148>)
    913a:	f7ff fcb3 	bl	8aa4 <z_spin_lock_set_owner>

	/*
	 * if the timer is periodic, start it again; don't add _TICK_ALIGN
	 * since we're already aligned to a tick boundary
	 */
	if (!K_TIMEOUT_EQ(timer->period, K_NO_WAIT) &&
    913e:	e9d4 230a 	ldrd	r2, r3, [r4, #40]	; 0x28
    9142:	1c56      	adds	r6, r2, #1
    9144:	f143 0700 	adc.w	r7, r3, #0
    9148:	2f00      	cmp	r7, #0
    914a:	bf08      	it	eq
    914c:	2e02      	cmpeq	r6, #2
    914e:	d303      	bcc.n	9158 <z_timer_expiration_handler+0x58>
	    !K_TIMEOUT_EQ(timer->period, K_FOREVER)) {
		z_add_timeout(&timer->timeout, z_timer_expiration_handler,
    9150:	4942      	ldr	r1, [pc, #264]	; (925c <z_timer_expiration_handler+0x15c>)
    9152:	4620      	mov	r0, r4
    9154:	f7ff fcfe 	bl	8b54 <z_add_timeout>
			     timer->period);
	}

	/* update timer's status */
	timer->status += 1U;
    9158:	6b23      	ldr	r3, [r4, #48]	; 0x30
    915a:	3301      	adds	r3, #1
    915c:	6323      	str	r3, [r4, #48]	; 0x30

	/* invoke timer expiry function */
	if (timer->expiry_fn != NULL) {
    915e:	6a23      	ldr	r3, [r4, #32]
    9160:	2b00      	cmp	r3, #0
    9162:	d035      	beq.n	91d0 <z_timer_expiration_handler+0xd0>
	__ASSERT(z_spin_unlock_valid(l), "Not my spinlock %p", l);
    9164:	4838      	ldr	r0, [pc, #224]	; (9248 <z_timer_expiration_handler+0x148>)
    9166:	f7ff fc8d 	bl	8a84 <z_spin_unlock_valid>
    916a:	b968      	cbnz	r0, 9188 <z_timer_expiration_handler+0x88>
    916c:	4a37      	ldr	r2, [pc, #220]	; (924c <z_timer_expiration_handler+0x14c>)
    916e:	493c      	ldr	r1, [pc, #240]	; (9260 <z_timer_expiration_handler+0x160>)
    9170:	4838      	ldr	r0, [pc, #224]	; (9254 <z_timer_expiration_handler+0x154>)
    9172:	23ac      	movs	r3, #172	; 0xac
    9174:	f000 fe63 	bl	9e3e <printk>
    9178:	4933      	ldr	r1, [pc, #204]	; (9248 <z_timer_expiration_handler+0x148>)
    917a:	483a      	ldr	r0, [pc, #232]	; (9264 <z_timer_expiration_handler+0x164>)
    917c:	f000 fe5f 	bl	9e3e <printk>
    9180:	4832      	ldr	r0, [pc, #200]	; (924c <z_timer_expiration_handler+0x14c>)
    9182:	21ac      	movs	r1, #172	; 0xac
    9184:	f000 fd58 	bl	9c38 <assert_post_action>
	__asm__ volatile(
    9188:	f385 8811 	msr	BASEPRI, r5
    918c:	f3bf 8f6f 	isb	sy
		/* Unlock for user handler. */
		k_spin_unlock(&lock, key);
		timer->expiry_fn(timer);
    9190:	6a23      	ldr	r3, [r4, #32]
    9192:	4620      	mov	r0, r4
    9194:	4798      	blx	r3
	__asm__ volatile(
    9196:	f04f 0320 	mov.w	r3, #32
    919a:	f3ef 8511 	mrs	r5, BASEPRI
    919e:	f383 8812 	msr	BASEPRI_MAX, r3
    91a2:	f3bf 8f6f 	isb	sy
	__ASSERT(z_spin_lock_valid(l), "Recursive spinlock %p", l);
    91a6:	4828      	ldr	r0, [pc, #160]	; (9248 <z_timer_expiration_handler+0x148>)
    91a8:	f7ff fc5e 	bl	8a68 <z_spin_lock_valid>
    91ac:	b968      	cbnz	r0, 91ca <z_timer_expiration_handler+0xca>
    91ae:	4a27      	ldr	r2, [pc, #156]	; (924c <z_timer_expiration_handler+0x14c>)
    91b0:	4927      	ldr	r1, [pc, #156]	; (9250 <z_timer_expiration_handler+0x150>)
    91b2:	4828      	ldr	r0, [pc, #160]	; (9254 <z_timer_expiration_handler+0x154>)
    91b4:	2381      	movs	r3, #129	; 0x81
    91b6:	f000 fe42 	bl	9e3e <printk>
    91ba:	4923      	ldr	r1, [pc, #140]	; (9248 <z_timer_expiration_handler+0x148>)
    91bc:	4826      	ldr	r0, [pc, #152]	; (9258 <z_timer_expiration_handler+0x158>)
    91be:	f000 fe3e 	bl	9e3e <printk>
    91c2:	4822      	ldr	r0, [pc, #136]	; (924c <z_timer_expiration_handler+0x14c>)
    91c4:	2181      	movs	r1, #129	; 0x81
    91c6:	f000 fd37 	bl	9c38 <assert_post_action>
	z_spin_lock_set_owner(l);
    91ca:	481f      	ldr	r0, [pc, #124]	; (9248 <z_timer_expiration_handler+0x148>)
    91cc:	f7ff fc6a 	bl	8aa4 <z_spin_lock_set_owner>
	return list->head == list;
    91d0:	f854 6f18 	ldr.w	r6, [r4, #24]!
	return sys_dlist_is_empty(list) ? NULL : list->head;
    91d4:	42a6      	cmp	r6, r4
    91d6:	d000      	beq.n	91da <z_timer_expiration_handler+0xda>
		return;
	}

	thread = z_waitq_head(&timer->wait_q);

	if (thread == NULL) {
    91d8:	b9b6      	cbnz	r6, 9208 <z_timer_expiration_handler+0x108>
	__ASSERT(z_spin_unlock_valid(l), "Not my spinlock %p", l);
    91da:	481b      	ldr	r0, [pc, #108]	; (9248 <z_timer_expiration_handler+0x148>)
    91dc:	f7ff fc52 	bl	8a84 <z_spin_unlock_valid>
    91e0:	b968      	cbnz	r0, 91fe <z_timer_expiration_handler+0xfe>
    91e2:	4a1a      	ldr	r2, [pc, #104]	; (924c <z_timer_expiration_handler+0x14c>)
    91e4:	491e      	ldr	r1, [pc, #120]	; (9260 <z_timer_expiration_handler+0x160>)
    91e6:	481b      	ldr	r0, [pc, #108]	; (9254 <z_timer_expiration_handler+0x154>)
    91e8:	23ac      	movs	r3, #172	; 0xac
    91ea:	f000 fe28 	bl	9e3e <printk>
    91ee:	4916      	ldr	r1, [pc, #88]	; (9248 <z_timer_expiration_handler+0x148>)
    91f0:	481c      	ldr	r0, [pc, #112]	; (9264 <z_timer_expiration_handler+0x164>)
    91f2:	f000 fe24 	bl	9e3e <printk>
    91f6:	4815      	ldr	r0, [pc, #84]	; (924c <z_timer_expiration_handler+0x14c>)
    91f8:	21ac      	movs	r1, #172	; 0xac
    91fa:	f000 fd1d 	bl	9c38 <assert_post_action>
	__asm__ volatile(
    91fe:	f385 8811 	msr	BASEPRI, r5
    9202:	f3bf 8f6f 	isb	sy
	arch_thread_return_value_set(thread, 0);

	k_spin_unlock(&lock, key);

	z_ready_thread(thread);
}
    9206:	bdf8      	pop	{r3, r4, r5, r6, r7, pc}
	z_unpend_thread_no_timeout(thread);
    9208:	4630      	mov	r0, r6
    920a:	f7fe f851 	bl	72b0 <z_unpend_thread_no_timeout>
    920e:	2300      	movs	r3, #0
    9210:	480d      	ldr	r0, [pc, #52]	; (9248 <z_timer_expiration_handler+0x148>)
    9212:	67f3      	str	r3, [r6, #124]	; 0x7c
    9214:	f7ff fc36 	bl	8a84 <z_spin_unlock_valid>
    9218:	b968      	cbnz	r0, 9236 <z_timer_expiration_handler+0x136>
    921a:	4a0c      	ldr	r2, [pc, #48]	; (924c <z_timer_expiration_handler+0x14c>)
    921c:	4910      	ldr	r1, [pc, #64]	; (9260 <z_timer_expiration_handler+0x160>)
    921e:	480d      	ldr	r0, [pc, #52]	; (9254 <z_timer_expiration_handler+0x154>)
    9220:	23ac      	movs	r3, #172	; 0xac
    9222:	f000 fe0c 	bl	9e3e <printk>
    9226:	4908      	ldr	r1, [pc, #32]	; (9248 <z_timer_expiration_handler+0x148>)
    9228:	480e      	ldr	r0, [pc, #56]	; (9264 <z_timer_expiration_handler+0x164>)
    922a:	f000 fe08 	bl	9e3e <printk>
    922e:	4807      	ldr	r0, [pc, #28]	; (924c <z_timer_expiration_handler+0x14c>)
    9230:	21ac      	movs	r1, #172	; 0xac
    9232:	f000 fd01 	bl	9c38 <assert_post_action>
    9236:	f385 8811 	msr	BASEPRI, r5
    923a:	f3bf 8f6f 	isb	sy
	z_ready_thread(thread);
    923e:	4630      	mov	r0, r6
}
    9240:	e8bd 40f8 	ldmia.w	sp!, {r3, r4, r5, r6, r7, lr}
	z_ready_thread(thread);
    9244:	f7fe bb1c 	b.w	7880 <z_ready_thread>
    9248:	20000e98 	.word	0x20000e98
    924c:	0000ba96 	.word	0x0000ba96
    9250:	0000bae8 	.word	0x0000bae8
    9254:	0000b2d3 	.word	0x0000b2d3
    9258:	0000bafd 	.word	0x0000bafd
    925c:	00009101 	.word	0x00009101
    9260:	0000babc 	.word	0x0000babc
    9264:	0000bad3 	.word	0x0000bad3

00009268 <z_impl_k_timer_start>:
}


void z_impl_k_timer_start(struct k_timer *timer, k_timeout_t duration,
			  k_timeout_t period)
{
    9268:	e92d 4f73 	stmdb	sp!, {r0, r1, r4, r5, r6, r8, r9, sl, fp, lr}
    926c:	4619      	mov	r1, r3
    926e:	4606      	mov	r6, r0
	SYS_PORT_TRACING_OBJ_FUNC(k_timer, start, timer);

	if (K_TIMEOUT_EQ(duration, K_FOREVER)) {
    9270:	1c4c      	adds	r4, r1, #1
{
    9272:	4610      	mov	r0, r2
	if (K_TIMEOUT_EQ(duration, K_FOREVER)) {
    9274:	bf08      	it	eq
    9276:	f1b0 3fff 	cmpeq.w	r0, #4294967295
{
    927a:	e9dd 230a 	ldrd	r2, r3, [sp, #40]	; 0x28
    927e:	4680      	mov	r8, r0
    9280:	4689      	mov	r9, r1
	if (K_TIMEOUT_EQ(duration, K_FOREVER)) {
    9282:	d04c      	beq.n	931e <z_impl_k_timer_start+0xb6>
    9284:	461d      	mov	r5, r3
	 * for backwards compatibility.  This is unfortunate
	 * (i.e. k_timer_start() doesn't treat its initial sleep
	 * argument the same way k_sleep() does), but historical.  The
	 * timer_api test relies on this behavior.
	 */
	if (!K_TIMEOUT_EQ(period, K_FOREVER) && period.ticks != 0 &&
    9286:	1c6b      	adds	r3, r5, #1
    9288:	bf08      	it	eq
    928a:	f1b2 3fff 	cmpeq.w	r2, #4294967295
    928e:	4614      	mov	r4, r2
    9290:	d019      	beq.n	92c6 <z_impl_k_timer_start+0x5e>
    9292:	ea54 0305 	orrs.w	r3, r4, r5
    9296:	d016      	beq.n	92c6 <z_impl_k_timer_start+0x5e>
	    Z_TICK_ABS(period.ticks) < 0) {
    9298:	f06f 0301 	mvn.w	r3, #1
    929c:	ebb3 0a02 	subs.w	sl, r3, r2
    92a0:	f04f 33ff 	mov.w	r3, #4294967295
    92a4:	eb63 0b05 	sbc.w	fp, r3, r5
	if (!K_TIMEOUT_EQ(period, K_FOREVER) && period.ticks != 0 &&
    92a8:	f1ba 0f00 	cmp.w	sl, #0
    92ac:	f17b 0300 	sbcs.w	r3, fp, #0
    92b0:	da09      	bge.n	92c6 <z_impl_k_timer_start+0x5e>
		period.ticks = MAX(period.ticks - 1, 1);
    92b2:	f112 34ff 	adds.w	r4, r2, #4294967295
    92b6:	f145 35ff 	adc.w	r5, r5, #4294967295
    92ba:	2c01      	cmp	r4, #1
    92bc:	f175 0300 	sbcs.w	r3, r5, #0
    92c0:	bfbc      	itt	lt
    92c2:	2401      	movlt	r4, #1
    92c4:	2500      	movlt	r5, #0
	}
	if (Z_TICK_ABS(duration.ticks) < 0) {
    92c6:	f06f 0301 	mvn.w	r3, #1
    92ca:	1a1b      	subs	r3, r3, r0
    92cc:	9300      	str	r3, [sp, #0]
    92ce:	f04f 33ff 	mov.w	r3, #4294967295
    92d2:	eb63 0301 	sbc.w	r3, r3, r1
    92d6:	9301      	str	r3, [sp, #4]
    92d8:	e9dd 2300 	ldrd	r2, r3, [sp]
    92dc:	2a00      	cmp	r2, #0
    92de:	f173 0300 	sbcs.w	r3, r3, #0
    92e2:	da0c      	bge.n	92fe <z_impl_k_timer_start+0x96>
		duration.ticks = MAX(duration.ticks - 1, 0);
    92e4:	f110 38ff 	adds.w	r8, r0, #4294967295
    92e8:	f141 39ff 	adc.w	r9, r1, #4294967295
    92ec:	f1b8 0f00 	cmp.w	r8, #0
    92f0:	f179 0300 	sbcs.w	r3, r9, #0
    92f4:	bfbc      	itt	lt
    92f6:	f04f 0800 	movlt.w	r8, #0
    92fa:	f04f 0900 	movlt.w	r9, #0
	}

	(void)z_abort_timeout(&timer->timeout);
    92fe:	4630      	mov	r0, r6
    9300:	f7ff fcfc 	bl	8cfc <z_abort_timeout>
	timer->period = period;
	timer->status = 0U;
    9304:	2300      	movs	r3, #0

	z_add_timeout(&timer->timeout, z_timer_expiration_handler,
    9306:	4907      	ldr	r1, [pc, #28]	; (9324 <z_impl_k_timer_start+0xbc>)
	timer->status = 0U;
    9308:	6333      	str	r3, [r6, #48]	; 0x30
	z_add_timeout(&timer->timeout, z_timer_expiration_handler,
    930a:	4642      	mov	r2, r8
    930c:	464b      	mov	r3, r9
    930e:	4630      	mov	r0, r6
	timer->period = period;
    9310:	e9c6 450a 	strd	r4, r5, [r6, #40]	; 0x28
		     duration);
}
    9314:	b002      	add	sp, #8
    9316:	e8bd 4f70 	ldmia.w	sp!, {r4, r5, r6, r8, r9, sl, fp, lr}
	z_add_timeout(&timer->timeout, z_timer_expiration_handler,
    931a:	f7ff bc1b 	b.w	8b54 <z_add_timeout>
}
    931e:	b002      	add	sp, #8
    9320:	e8bd 8f70 	ldmia.w	sp!, {r4, r5, r6, r8, r9, sl, fp, pc}
    9324:	00009101 	.word	0x00009101

00009328 <work_queue_main>:
/* Loop executed by a work queue thread.
 *
 * @param workq_ptr pointer to the work queue structure
 */
static void work_queue_main(void *workq_ptr, void *p2, void *p3)
{
    9328:	e92d 4ff0 	stmdb	sp!, {r4, r5, r6, r7, r8, r9, sl, fp, lr}
	__ASSERT(z_spin_lock_valid(l), "Recursive spinlock %p", l);
    932c:	4e7e      	ldr	r6, [pc, #504]	; (9528 <work_queue_main+0x200>)
	SYS_SLIST_FOR_EACH_CONTAINER_SAFE(&pending_cancels, wc, tmp, node) {
    932e:	4f7f      	ldr	r7, [pc, #508]	; (952c <work_queue_main+0x204>)
{
    9330:	b085      	sub	sp, #20
    9332:	4604      	mov	r4, r0
	__asm__ volatile(
    9334:	f04f 0320 	mov.w	r3, #32
    9338:	f3ef 8811 	mrs	r8, BASEPRI
    933c:	f383 8812 	msr	BASEPRI_MAX, r3
    9340:	f3bf 8f6f 	isb	sy
    9344:	4630      	mov	r0, r6
    9346:	f7ff fb8f 	bl	8a68 <z_spin_lock_valid>
    934a:	b968      	cbnz	r0, 9368 <work_queue_main+0x40>
    934c:	4a78      	ldr	r2, [pc, #480]	; (9530 <work_queue_main+0x208>)
    934e:	4979      	ldr	r1, [pc, #484]	; (9534 <work_queue_main+0x20c>)
    9350:	4879      	ldr	r0, [pc, #484]	; (9538 <work_queue_main+0x210>)
    9352:	2381      	movs	r3, #129	; 0x81
    9354:	f000 fd73 	bl	9e3e <printk>
    9358:	4878      	ldr	r0, [pc, #480]	; (953c <work_queue_main+0x214>)
    935a:	4631      	mov	r1, r6
    935c:	f000 fd6f 	bl	9e3e <printk>
    9360:	4873      	ldr	r0, [pc, #460]	; (9530 <work_queue_main+0x208>)
    9362:	2181      	movs	r1, #129	; 0x81
    9364:	f000 fc68 	bl	9c38 <assert_post_action>
	z_spin_lock_set_owner(l);
    9368:	4630      	mov	r0, r6
    936a:	f7ff fb9b 	bl	8aa4 <z_spin_lock_set_owner>
Z_GENLIST_IS_EMPTY(slist)
    936e:	f8d4 5080 	ldr.w	r5, [r4, #128]	; 0x80
	return list->head;
    9372:	f8d4 3098 	ldr.w	r3, [r4, #152]	; 0x98
Z_GENLIST_GET(slist, snode)
    9376:	b9ad      	cbnz	r5, 93a4 <work_queue_main+0x7c>
	*flagp &= ~BIT(bit);
    9378:	f023 0204 	bic.w	r2, r3, #4
			 * which should never happen, even line 'if (work != NULL)'
			 * ensures that.
			 * This means that if node is not NULL, then work will not be NULL.
			 */
			handler = work->handler;
		} else if (flag_test_and_clear(&queue->flags,
    937c:	0758      	lsls	r0, r3, #29
	*flagp &= ~BIT(bit);
    937e:	f8c4 2098 	str.w	r2, [r4, #152]	; 0x98
		} else if (flag_test_and_clear(&queue->flags,
    9382:	f100 8092 	bmi.w	94aa <work_queue_main+0x182>
			 * the lock, and we didn't find work nor got asked to
			 * stop.  Just go to sleep: when something happens the
			 * work thread will be woken and we can check again.
			 */

			(void)z_sched_wait(&lock, key, &queue->notifyq,
    9386:	2300      	movs	r3, #0
    9388:	9302      	str	r3, [sp, #8]
    938a:	f04f 32ff 	mov.w	r2, #4294967295
    938e:	f04f 33ff 	mov.w	r3, #4294967295
    9392:	e9cd 2300 	strd	r2, r3, [sp]
    9396:	4641      	mov	r1, r8
    9398:	f104 0288 	add.w	r2, r4, #136	; 0x88
    939c:	4630      	mov	r0, r6
    939e:	f7ff f927 	bl	85f0 <z_sched_wait>
					   K_FOREVER, NULL);
			continue;
    93a2:	e7c7      	b.n	9334 <work_queue_main+0xc>
Z_GENLIST_GET_NOT_EMPTY(slist, snode)
    93a4:	f8d4 1084 	ldr.w	r1, [r4, #132]	; 0x84
    93a8:	682a      	ldr	r2, [r5, #0]
	list->head = node;
    93aa:	f8c4 2080 	str.w	r2, [r4, #128]	; 0x80
Z_GENLIST_GET_NOT_EMPTY(slist, snode)
    93ae:	428d      	cmp	r5, r1
    93b0:	d101      	bne.n	93b6 <work_queue_main+0x8e>
	list->tail = node;
    93b2:	f8c4 2084 	str.w	r2, [r4, #132]	; 0x84
	*flagp |= BIT(bit);
    93b6:	f043 0302 	orr.w	r3, r3, #2
    93ba:	f8c4 3098 	str.w	r3, [r4, #152]	; 0x98
	*flagp &= ~BIT(bit);
    93be:	68eb      	ldr	r3, [r5, #12]
			handler = work->handler;
    93c0:	f8d5 9004 	ldr.w	r9, [r5, #4]
	*flagp &= ~BIT(bit);
    93c4:	f023 0304 	bic.w	r3, r3, #4
    93c8:	f043 0301 	orr.w	r3, r3, #1
    93cc:	60eb      	str	r3, [r5, #12]
	__ASSERT(z_spin_unlock_valid(l), "Not my spinlock %p", l);
    93ce:	4630      	mov	r0, r6
    93d0:	f7ff fb58 	bl	8a84 <z_spin_unlock_valid>
    93d4:	b968      	cbnz	r0, 93f2 <work_queue_main+0xca>
    93d6:	4a56      	ldr	r2, [pc, #344]	; (9530 <work_queue_main+0x208>)
    93d8:	4959      	ldr	r1, [pc, #356]	; (9540 <work_queue_main+0x218>)
    93da:	4857      	ldr	r0, [pc, #348]	; (9538 <work_queue_main+0x210>)
    93dc:	23ac      	movs	r3, #172	; 0xac
    93de:	f000 fd2e 	bl	9e3e <printk>
    93e2:	4858      	ldr	r0, [pc, #352]	; (9544 <work_queue_main+0x21c>)
    93e4:	4631      	mov	r1, r6
    93e6:	f000 fd2a 	bl	9e3e <printk>
    93ea:	4851      	ldr	r0, [pc, #324]	; (9530 <work_queue_main+0x208>)
    93ec:	21ac      	movs	r1, #172	; 0xac
    93ee:	f000 fc23 	bl	9c38 <assert_post_action>
	__asm__ volatile(
    93f2:	f388 8811 	msr	BASEPRI, r8
    93f6:	f3bf 8f6f 	isb	sy
		}

		k_spin_unlock(&lock, key);

		__ASSERT_NO_MSG(handler != NULL);
    93fa:	f1b9 0f00 	cmp.w	r9, #0
    93fe:	d10b      	bne.n	9418 <work_queue_main+0xf0>
    9400:	4951      	ldr	r1, [pc, #324]	; (9548 <work_queue_main+0x220>)
    9402:	484d      	ldr	r0, [pc, #308]	; (9538 <work_queue_main+0x210>)
    9404:	4a51      	ldr	r2, [pc, #324]	; (954c <work_queue_main+0x224>)
    9406:	f44f 7322 	mov.w	r3, #648	; 0x288
    940a:	f000 fd18 	bl	9e3e <printk>
    940e:	484f      	ldr	r0, [pc, #316]	; (954c <work_queue_main+0x224>)
    9410:	f44f 7122 	mov.w	r1, #648	; 0x288
    9414:	f000 fc10 	bl	9c38 <assert_post_action>
		handler(work);
    9418:	4628      	mov	r0, r5
    941a:	47c8      	blx	r9
	__asm__ volatile(
    941c:	f04f 0320 	mov.w	r3, #32
    9420:	f3ef 8a11 	mrs	sl, BASEPRI
    9424:	f383 8812 	msr	BASEPRI_MAX, r3
    9428:	f3bf 8f6f 	isb	sy
	__ASSERT(z_spin_lock_valid(l), "Recursive spinlock %p", l);
    942c:	4630      	mov	r0, r6
    942e:	f7ff fb1b 	bl	8a68 <z_spin_lock_valid>
    9432:	b968      	cbnz	r0, 9450 <work_queue_main+0x128>
    9434:	4a3e      	ldr	r2, [pc, #248]	; (9530 <work_queue_main+0x208>)
    9436:	493f      	ldr	r1, [pc, #252]	; (9534 <work_queue_main+0x20c>)
    9438:	483f      	ldr	r0, [pc, #252]	; (9538 <work_queue_main+0x210>)
    943a:	2381      	movs	r3, #129	; 0x81
    943c:	f000 fcff 	bl	9e3e <printk>
    9440:	483e      	ldr	r0, [pc, #248]	; (953c <work_queue_main+0x214>)
    9442:	4631      	mov	r1, r6
    9444:	f000 fcfb 	bl	9e3e <printk>
    9448:	4839      	ldr	r0, [pc, #228]	; (9530 <work_queue_main+0x208>)
    944a:	2181      	movs	r1, #129	; 0x81
    944c:	f000 fbf4 	bl	9c38 <assert_post_action>
	z_spin_lock_set_owner(l);
    9450:	4630      	mov	r0, r6
    9452:	f7ff fb27 	bl	8aa4 <z_spin_lock_set_owner>
	*flagp &= ~BIT(bit);
    9456:	68eb      	ldr	r3, [r5, #12]
		 * starving other threads.
		 */
		key = k_spin_lock(&lock);

		flag_clear(&work->flags, K_WORK_RUNNING_BIT);
		if (flag_test(&work->flags, K_WORK_CANCELING_BIT)) {
    9458:	0799      	lsls	r1, r3, #30
	*flagp &= ~BIT(bit);
    945a:	f023 0201 	bic.w	r2, r3, #1
		if (flag_test(&work->flags, K_WORK_CANCELING_BIT)) {
    945e:	d42e      	bmi.n	94be <work_queue_main+0x196>
	*flagp &= ~BIT(bit);
    9460:	60ea      	str	r2, [r5, #12]
    9462:	f8d4 3098 	ldr.w	r3, [r4, #152]	; 0x98
    9466:	f023 0302 	bic.w	r3, r3, #2
    946a:	f8c4 3098 	str.w	r3, [r4, #152]	; 0x98
	__ASSERT(z_spin_unlock_valid(l), "Not my spinlock %p", l);
    946e:	4630      	mov	r0, r6
	return (*flagp & BIT(bit)) != 0U;
    9470:	f3c3 2500 	ubfx	r5, r3, #8, #1
    9474:	f7ff fb06 	bl	8a84 <z_spin_unlock_valid>
    9478:	b968      	cbnz	r0, 9496 <work_queue_main+0x16e>
    947a:	4a2d      	ldr	r2, [pc, #180]	; (9530 <work_queue_main+0x208>)
    947c:	4930      	ldr	r1, [pc, #192]	; (9540 <work_queue_main+0x218>)
    947e:	482e      	ldr	r0, [pc, #184]	; (9538 <work_queue_main+0x210>)
    9480:	23ac      	movs	r3, #172	; 0xac
    9482:	f000 fcdc 	bl	9e3e <printk>
    9486:	482f      	ldr	r0, [pc, #188]	; (9544 <work_queue_main+0x21c>)
    9488:	4631      	mov	r1, r6
    948a:	f000 fcd8 	bl	9e3e <printk>
    948e:	4828      	ldr	r0, [pc, #160]	; (9530 <work_queue_main+0x208>)
    9490:	21ac      	movs	r1, #172	; 0xac
    9492:	f000 fbd1 	bl	9c38 <assert_post_action>
	__asm__ volatile(
    9496:	f38a 8811 	msr	BASEPRI, sl
    949a:	f3bf 8f6f 	isb	sy
		k_spin_unlock(&lock, key);

		/* Optionally yield to prevent the work queue from
		 * starving other threads.
		 */
		if (yield) {
    949e:	2d00      	cmp	r5, #0
    94a0:	f47f af48 	bne.w	9334 <work_queue_main+0xc>
	z_impl_k_yield();
    94a4:	f7fe fdf8 	bl	8098 <z_impl_k_yield>
}
    94a8:	e744      	b.n	9334 <work_queue_main+0xc>
			(void)z_sched_wake_all(&queue->drainq, 1, NULL);
    94aa:	f104 0590 	add.w	r5, r4, #144	; 0x90
static inline bool z_sched_wake_all(_wait_q_t *wait_q, int swap_retval,
				    void *swap_data)
{
	bool woken = false;

	while (z_sched_wake(wait_q, swap_retval, swap_data)) {
    94ae:	2200      	movs	r2, #0
    94b0:	2101      	movs	r1, #1
    94b2:	4628      	mov	r0, r5
    94b4:	f7ff f844 	bl	8540 <z_sched_wake>
    94b8:	2800      	cmp	r0, #0
    94ba:	d1f8      	bne.n	94ae <work_queue_main+0x186>
    94bc:	e763      	b.n	9386 <work_queue_main+0x5e>
	SYS_SLIST_FOR_EACH_CONTAINER_SAFE(&pending_cancels, wc, tmp, node) {
    94be:	6838      	ldr	r0, [r7, #0]
	*flagp &= ~BIT(bit);
    94c0:	f023 0303 	bic.w	r3, r3, #3
    94c4:	60eb      	str	r3, [r5, #12]
	SYS_SLIST_FOR_EACH_CONTAINER_SAFE(&pending_cancels, wc, tmp, node) {
    94c6:	2800      	cmp	r0, #0
    94c8:	d0cb      	beq.n	9462 <work_queue_main+0x13a>
	return node->next;
    94ca:	6803      	ldr	r3, [r0, #0]
    94cc:	2b00      	cmp	r3, #0
    94ce:	bf38      	it	cc
    94d0:	2300      	movcc	r3, #0
Z_GENLIST_PEEK_NEXT_NO_CHECK(slist, snode)
    94d2:	f04f 0900 	mov.w	r9, #0
    94d6:	4698      	mov	r8, r3
	parent->next = child;
    94d8:	46cb      	mov	fp, r9
		if (wc->work == work) {
    94da:	6843      	ldr	r3, [r0, #4]
    94dc:	429d      	cmp	r5, r3
    94de:	4602      	mov	r2, r0
    94e0:	d10d      	bne.n	94fe <work_queue_main+0x1d6>
Z_GENLIST_REMOVE(slist, snode)
    94e2:	6802      	ldr	r2, [r0, #0]
    94e4:	f1b9 0f00 	cmp.w	r9, #0
    94e8:	d115      	bne.n	9516 <work_queue_main+0x1ee>
    94ea:	687b      	ldr	r3, [r7, #4]
	list->head = node;
    94ec:	603a      	str	r2, [r7, #0]
Z_GENLIST_REMOVE(slist, snode)
    94ee:	4283      	cmp	r3, r0
    94f0:	d100      	bne.n	94f4 <work_queue_main+0x1cc>
	list->tail = node;
    94f2:	607a      	str	r2, [r7, #4]
	parent->next = child;
    94f4:	f840 bb08 	str.w	fp, [r0], #8
	z_impl_k_sem_give(sem);
    94f8:	f7ff f88c 	bl	8614 <z_impl_k_sem_give>
}
    94fc:	464a      	mov	r2, r9
	SYS_SLIST_FOR_EACH_CONTAINER_SAFE(&pending_cancels, wc, tmp, node) {
    94fe:	f1b8 0f00 	cmp.w	r8, #0
    9502:	d0ae      	beq.n	9462 <work_queue_main+0x13a>
	return node->next;
    9504:	f8d8 3000 	ldr.w	r3, [r8]
    9508:	2b00      	cmp	r3, #0
    950a:	bf38      	it	cc
    950c:	2300      	movcc	r3, #0
Z_GENLIST_PEEK_NEXT_NO_CHECK(slist, snode)
    950e:	4640      	mov	r0, r8
    9510:	4691      	mov	r9, r2
    9512:	4698      	mov	r8, r3
    9514:	e7e1      	b.n	94da <work_queue_main+0x1b2>
	parent->next = child;
    9516:	f8c9 2000 	str.w	r2, [r9]
Z_GENLIST_REMOVE(slist, snode)
    951a:	687b      	ldr	r3, [r7, #4]
    951c:	4283      	cmp	r3, r0
	list->tail = node;
    951e:	bf08      	it	eq
    9520:	f8c7 9004 	streq.w	r9, [r7, #4]
}
    9524:	e7e6      	b.n	94f4 <work_queue_main+0x1cc>
    9526:	bf00      	nop
    9528:	20000e9c 	.word	0x20000e9c
    952c:	20000ea0 	.word	0x20000ea0
    9530:	0000ba96 	.word	0x0000ba96
    9534:	0000bae8 	.word	0x0000bae8
    9538:	0000b2d3 	.word	0x0000b2d3
    953c:	0000bafd 	.word	0x0000bafd
    9540:	0000babc 	.word	0x0000babc
    9544:	0000bad3 	.word	0x0000bad3
    9548:	0000c968 	.word	0x0000c968
    954c:	0000c947 	.word	0x0000c947

00009550 <submit_to_queue_locked>:
{
    9550:	b5f8      	push	{r3, r4, r5, r6, r7, lr}
	if (flag_test(&work->flags, K_WORK_CANCELING_BIT)) {
    9552:	68c3      	ldr	r3, [r0, #12]
    9554:	079a      	lsls	r2, r3, #30
{
    9556:	4604      	mov	r4, r0
    9558:	460e      	mov	r6, r1
	if (flag_test(&work->flags, K_WORK_CANCELING_BIT)) {
    955a:	f3c3 0540 	ubfx	r5, r3, #1, #1
    955e:	d42b      	bmi.n	95b8 <submit_to_queue_locked+0x68>
	} else if (!flag_test(&work->flags, K_WORK_QUEUED_BIT)) {
    9560:	075f      	lsls	r7, r3, #29
    9562:	d42b      	bmi.n	95bc <submit_to_queue_locked+0x6c>
		if (*queuep == NULL) {
    9564:	680a      	ldr	r2, [r1, #0]
    9566:	b90a      	cbnz	r2, 956c <submit_to_queue_locked+0x1c>
			*queuep = work->queue;
    9568:	6882      	ldr	r2, [r0, #8]
    956a:	600a      	str	r2, [r1, #0]
		if (flag_test(&work->flags, K_WORK_RUNNING_BIT)) {
    956c:	07d8      	lsls	r0, r3, #31
    956e:	d528      	bpl.n	95c2 <submit_to_queue_locked+0x72>
			__ASSERT_NO_MSG(work->queue != NULL);
    9570:	68a3      	ldr	r3, [r4, #8]
    9572:	b95b      	cbnz	r3, 958c <submit_to_queue_locked+0x3c>
    9574:	4924      	ldr	r1, [pc, #144]	; (9608 <submit_to_queue_locked+0xb8>)
    9576:	4825      	ldr	r0, [pc, #148]	; (960c <submit_to_queue_locked+0xbc>)
    9578:	4a25      	ldr	r2, [pc, #148]	; (9610 <submit_to_queue_locked+0xc0>)
    957a:	f44f 73a7 	mov.w	r3, #334	; 0x14e
    957e:	f000 fc5e 	bl	9e3e <printk>
    9582:	4823      	ldr	r0, [pc, #140]	; (9610 <submit_to_queue_locked+0xc0>)
    9584:	f44f 71a7 	mov.w	r1, #334	; 0x14e
    9588:	f000 fb56 	bl	9c38 <assert_post_action>
			*queuep = work->queue;
    958c:	68a3      	ldr	r3, [r4, #8]
    958e:	6033      	str	r3, [r6, #0]
			ret = 2;
    9590:	2502      	movs	r5, #2
		int rc = queue_submit_locked(*queuep, work);
    9592:	6837      	ldr	r7, [r6, #0]
	if (queue == NULL) {
    9594:	b38f      	cbz	r7, 95fa <submit_to_queue_locked+0xaa>
	bool chained = (_current == &queue->thread) && !k_is_in_isr();
    9596:	4b1f      	ldr	r3, [pc, #124]	; (9614 <submit_to_queue_locked+0xc4>)
    9598:	689b      	ldr	r3, [r3, #8]
    959a:	42bb      	cmp	r3, r7
    959c:	d113      	bne.n	95c6 <submit_to_queue_locked+0x76>
    959e:	f001 fb67 	bl	ac70 <k_is_in_isr>
    95a2:	f080 0001 	eor.w	r0, r0, #1
    95a6:	b2c0      	uxtb	r0, r0
	bool draining = flag_test(&queue->flags, K_WORK_QUEUE_DRAIN_BIT);
    95a8:	f8d7 3098 	ldr.w	r3, [r7, #152]	; 0x98
	if (!flag_test(&queue->flags, K_WORK_QUEUE_STARTED_BIT)) {
    95ac:	07d9      	lsls	r1, r3, #31
	return (*flagp & BIT(bit)) != 0U;
    95ae:	f3c3 0280 	ubfx	r2, r3, #2, #1
	if (!flag_test(&queue->flags, K_WORK_QUEUE_STARTED_BIT)) {
    95b2:	d525      	bpl.n	9600 <submit_to_queue_locked+0xb0>
	} else if (draining && !chained) {
    95b4:	b14a      	cbz	r2, 95ca <submit_to_queue_locked+0x7a>
    95b6:	b950      	cbnz	r0, 95ce <submit_to_queue_locked+0x7e>
		ret = -EBUSY;
    95b8:	f06f 050f 	mvn.w	r5, #15
		*queuep = NULL;
    95bc:	2300      	movs	r3, #0
    95be:	6033      	str	r3, [r6, #0]
	return ret;
    95c0:	e015      	b.n	95ee <submit_to_queue_locked+0x9e>
		ret = 1;
    95c2:	2501      	movs	r5, #1
    95c4:	e7e5      	b.n	9592 <submit_to_queue_locked+0x42>
	bool chained = (_current == &queue->thread) && !k_is_in_isr();
    95c6:	2000      	movs	r0, #0
    95c8:	e7ee      	b.n	95a8 <submit_to_queue_locked+0x58>
	} else if (plugged && !draining) {
    95ca:	071b      	lsls	r3, r3, #28
    95cc:	d4f4      	bmi.n	95b8 <submit_to_queue_locked+0x68>
	parent->next = child;
    95ce:	2300      	movs	r3, #0
    95d0:	6023      	str	r3, [r4, #0]
Z_GENLIST_APPEND(slist, snode)
    95d2:	f8d7 3084 	ldr.w	r3, [r7, #132]	; 0x84
    95d6:	b963      	cbnz	r3, 95f2 <submit_to_queue_locked+0xa2>
	list->head = node;
    95d8:	e9c7 4420 	strd	r4, r4, [r7, #128]	; 0x80
		(void)notify_queue_locked(queue);
    95dc:	4638      	mov	r0, r7
    95de:	f001 fb85 	bl	acec <notify_queue_locked>
	*flagp |= BIT(bit);
    95e2:	68e3      	ldr	r3, [r4, #12]
    95e4:	f043 0304 	orr.w	r3, r3, #4
    95e8:	60e3      	str	r3, [r4, #12]
			work->queue = *queuep;
    95ea:	6833      	ldr	r3, [r6, #0]
    95ec:	60a3      	str	r3, [r4, #8]
}
    95ee:	4628      	mov	r0, r5
    95f0:	bdf8      	pop	{r3, r4, r5, r6, r7, pc}
	parent->next = child;
    95f2:	601c      	str	r4, [r3, #0]
	list->tail = node;
    95f4:	f8c7 4084 	str.w	r4, [r7, #132]	; 0x84
}
    95f8:	e7f0      	b.n	95dc <submit_to_queue_locked+0x8c>
		return -EINVAL;
    95fa:	f06f 0515 	mvn.w	r5, #21
    95fe:	e7dd      	b.n	95bc <submit_to_queue_locked+0x6c>
		ret = -ENODEV;
    9600:	f06f 0512 	mvn.w	r5, #18
    9604:	e7da      	b.n	95bc <submit_to_queue_locked+0x6c>
    9606:	bf00      	nop
    9608:	0000c97f 	.word	0x0000c97f
    960c:	0000b2d3 	.word	0x0000b2d3
    9610:	0000c947 	.word	0x0000c947
    9614:	20000e4c 	.word	0x20000e4c

00009618 <k_work_submit_to_queue>:
{
    9618:	b537      	push	{r0, r1, r2, r4, r5, lr}
	__ASSERT_NO_MSG(work != NULL);
    961a:	460c      	mov	r4, r1
{
    961c:	9001      	str	r0, [sp, #4]
	__ASSERT_NO_MSG(work != NULL);
    961e:	b959      	cbnz	r1, 9638 <k_work_submit_to_queue+0x20>
    9620:	4926      	ldr	r1, [pc, #152]	; (96bc <k_work_submit_to_queue+0xa4>)
    9622:	4827      	ldr	r0, [pc, #156]	; (96c0 <k_work_submit_to_queue+0xa8>)
    9624:	4a27      	ldr	r2, [pc, #156]	; (96c4 <k_work_submit_to_queue+0xac>)
    9626:	f240 1369 	movw	r3, #361	; 0x169
    962a:	f000 fc08 	bl	9e3e <printk>
    962e:	4825      	ldr	r0, [pc, #148]	; (96c4 <k_work_submit_to_queue+0xac>)
    9630:	f240 1169 	movw	r1, #361	; 0x169
    9634:	f000 fb00 	bl	9c38 <assert_post_action>
	__asm__ volatile(
    9638:	f04f 0320 	mov.w	r3, #32
    963c:	f3ef 8511 	mrs	r5, BASEPRI
    9640:	f383 8812 	msr	BASEPRI_MAX, r3
    9644:	f3bf 8f6f 	isb	sy
	__ASSERT(z_spin_lock_valid(l), "Recursive spinlock %p", l);
    9648:	481f      	ldr	r0, [pc, #124]	; (96c8 <k_work_submit_to_queue+0xb0>)
    964a:	f7ff fa0d 	bl	8a68 <z_spin_lock_valid>
    964e:	b968      	cbnz	r0, 966c <k_work_submit_to_queue+0x54>
    9650:	4a1e      	ldr	r2, [pc, #120]	; (96cc <k_work_submit_to_queue+0xb4>)
    9652:	491f      	ldr	r1, [pc, #124]	; (96d0 <k_work_submit_to_queue+0xb8>)
    9654:	481a      	ldr	r0, [pc, #104]	; (96c0 <k_work_submit_to_queue+0xa8>)
    9656:	2381      	movs	r3, #129	; 0x81
    9658:	f000 fbf1 	bl	9e3e <printk>
    965c:	491a      	ldr	r1, [pc, #104]	; (96c8 <k_work_submit_to_queue+0xb0>)
    965e:	481d      	ldr	r0, [pc, #116]	; (96d4 <k_work_submit_to_queue+0xbc>)
    9660:	f000 fbed 	bl	9e3e <printk>
    9664:	4819      	ldr	r0, [pc, #100]	; (96cc <k_work_submit_to_queue+0xb4>)
    9666:	2181      	movs	r1, #129	; 0x81
    9668:	f000 fae6 	bl	9c38 <assert_post_action>
	z_spin_lock_set_owner(l);
    966c:	4816      	ldr	r0, [pc, #88]	; (96c8 <k_work_submit_to_queue+0xb0>)
    966e:	f7ff fa19 	bl	8aa4 <z_spin_lock_set_owner>
	int ret = submit_to_queue_locked(work, &queue);
    9672:	4620      	mov	r0, r4
    9674:	a901      	add	r1, sp, #4
    9676:	f7ff ff6b 	bl	9550 <submit_to_queue_locked>
    967a:	4604      	mov	r4, r0
	__ASSERT(z_spin_unlock_valid(l), "Not my spinlock %p", l);
    967c:	4812      	ldr	r0, [pc, #72]	; (96c8 <k_work_submit_to_queue+0xb0>)
    967e:	f7ff fa01 	bl	8a84 <z_spin_unlock_valid>
    9682:	b968      	cbnz	r0, 96a0 <k_work_submit_to_queue+0x88>
    9684:	4a11      	ldr	r2, [pc, #68]	; (96cc <k_work_submit_to_queue+0xb4>)
    9686:	4914      	ldr	r1, [pc, #80]	; (96d8 <k_work_submit_to_queue+0xc0>)
    9688:	480d      	ldr	r0, [pc, #52]	; (96c0 <k_work_submit_to_queue+0xa8>)
    968a:	23ac      	movs	r3, #172	; 0xac
    968c:	f000 fbd7 	bl	9e3e <printk>
    9690:	490d      	ldr	r1, [pc, #52]	; (96c8 <k_work_submit_to_queue+0xb0>)
    9692:	4812      	ldr	r0, [pc, #72]	; (96dc <k_work_submit_to_queue+0xc4>)
    9694:	f000 fbd3 	bl	9e3e <printk>
    9698:	480c      	ldr	r0, [pc, #48]	; (96cc <k_work_submit_to_queue+0xb4>)
    969a:	21ac      	movs	r1, #172	; 0xac
    969c:	f000 facc 	bl	9c38 <assert_post_action>
	__asm__ volatile(
    96a0:	f385 8811 	msr	BASEPRI, r5
    96a4:	f3bf 8f6f 	isb	sy
	if ((ret > 0) && (k_is_preempt_thread() != 0)) {
    96a8:	2c00      	cmp	r4, #0
    96aa:	dd04      	ble.n	96b6 <k_work_submit_to_queue+0x9e>
	return z_impl_k_is_preempt_thread();
    96ac:	f7fe fe84 	bl	83b8 <z_impl_k_is_preempt_thread>
    96b0:	b108      	cbz	r0, 96b6 <k_work_submit_to_queue+0x9e>
	z_impl_k_yield();
    96b2:	f7fe fcf1 	bl	8098 <z_impl_k_yield>
}
    96b6:	4620      	mov	r0, r4
    96b8:	b003      	add	sp, #12
    96ba:	bd30      	pop	{r4, r5, pc}
    96bc:	0000c99a 	.word	0x0000c99a
    96c0:	0000b2d3 	.word	0x0000b2d3
    96c4:	0000c947 	.word	0x0000c947
    96c8:	20000e9c 	.word	0x20000e9c
    96cc:	0000ba96 	.word	0x0000ba96
    96d0:	0000bae8 	.word	0x0000bae8
    96d4:	0000bafd 	.word	0x0000bafd
    96d8:	0000babc 	.word	0x0000babc
    96dc:	0000bad3 	.word	0x0000bad3

000096e0 <k_work_queue_start>:
void k_work_queue_start(struct k_work_q *queue,
			k_thread_stack_t *stack,
			size_t stack_size,
			int prio,
			const struct k_work_queue_config *cfg)
{
    96e0:	e92d 41f0 	stmdb	sp!, {r4, r5, r6, r7, r8, lr}
    96e4:	b088      	sub	sp, #32
    96e6:	460e      	mov	r6, r1
    96e8:	9d0e      	ldr	r5, [sp, #56]	; 0x38
    96ea:	4617      	mov	r7, r2
    96ec:	4698      	mov	r8, r3
	__ASSERT_NO_MSG(queue);
    96ee:	4604      	mov	r4, r0
    96f0:	b958      	cbnz	r0, 970a <k_work_queue_start+0x2a>
    96f2:	492e      	ldr	r1, [pc, #184]	; (97ac <k_work_queue_start+0xcc>)
    96f4:	482e      	ldr	r0, [pc, #184]	; (97b0 <k_work_queue_start+0xd0>)
    96f6:	4a2f      	ldr	r2, [pc, #188]	; (97b4 <k_work_queue_start+0xd4>)
    96f8:	f240 23b5 	movw	r3, #693	; 0x2b5
    96fc:	f000 fb9f 	bl	9e3e <printk>
    9700:	482c      	ldr	r0, [pc, #176]	; (97b4 <k_work_queue_start+0xd4>)
    9702:	f240 21b5 	movw	r1, #693	; 0x2b5
    9706:	f000 fa97 	bl	9c38 <assert_post_action>
	__ASSERT_NO_MSG(stack);
    970a:	b95e      	cbnz	r6, 9724 <k_work_queue_start+0x44>
    970c:	492a      	ldr	r1, [pc, #168]	; (97b8 <k_work_queue_start+0xd8>)
    970e:	4828      	ldr	r0, [pc, #160]	; (97b0 <k_work_queue_start+0xd0>)
    9710:	4a28      	ldr	r2, [pc, #160]	; (97b4 <k_work_queue_start+0xd4>)
    9712:	f240 23b6 	movw	r3, #694	; 0x2b6
    9716:	f000 fb92 	bl	9e3e <printk>
    971a:	4826      	ldr	r0, [pc, #152]	; (97b4 <k_work_queue_start+0xd4>)
    971c:	f240 21b6 	movw	r1, #694	; 0x2b6
    9720:	f000 fa8a 	bl	9c38 <assert_post_action>
	return (*flagp & BIT(bit)) != 0U;
    9724:	f8d4 3098 	ldr.w	r3, [r4, #152]	; 0x98
	__ASSERT_NO_MSG(!flag_test(&queue->flags, K_WORK_QUEUE_STARTED_BIT));
    9728:	07db      	lsls	r3, r3, #31
    972a:	d50b      	bpl.n	9744 <k_work_queue_start+0x64>
    972c:	4923      	ldr	r1, [pc, #140]	; (97bc <k_work_queue_start+0xdc>)
    972e:	4820      	ldr	r0, [pc, #128]	; (97b0 <k_work_queue_start+0xd0>)
    9730:	4a20      	ldr	r2, [pc, #128]	; (97b4 <k_work_queue_start+0xd4>)
    9732:	f240 23b7 	movw	r3, #695	; 0x2b7
    9736:	f000 fb82 	bl	9e3e <printk>
    973a:	481e      	ldr	r0, [pc, #120]	; (97b4 <k_work_queue_start+0xd4>)
    973c:	f240 21b7 	movw	r1, #695	; 0x2b7
    9740:	f000 fa7a 	bl	9c38 <assert_post_action>
	list->head = NULL;
    9744:	2300      	movs	r3, #0
	list->tail = NULL;
    9746:	e9c4 3320 	strd	r3, r3, [r4, #128]	; 0x80
    974a:	f104 0388 	add.w	r3, r4, #136	; 0x88
	list->tail = (sys_dnode_t *)list;
    974e:	e9c4 3322 	strd	r3, r3, [r4, #136]	; 0x88
    9752:	f104 0390 	add.w	r3, r4, #144	; 0x90
    9756:	e9c4 3324 	strd	r3, r3, [r4, #144]	; 0x90

	sys_slist_init(&queue->pending);
	z_waitq_init(&queue->notifyq);
	z_waitq_init(&queue->drainq);

	if ((cfg != NULL) && cfg->no_yield) {
    975a:	b32d      	cbz	r5, 97a8 <k_work_queue_start+0xc8>
    975c:	792b      	ldrb	r3, [r5, #4]
		flags |= K_WORK_QUEUE_NO_YIELD;
    975e:	2b00      	cmp	r3, #0
    9760:	f240 1101 	movw	r1, #257	; 0x101
    9764:	bf08      	it	eq
    9766:	2101      	moveq	r1, #1
	*flagp = flags;
    9768:	f8c4 1098 	str.w	r1, [r4, #152]	; 0x98
	return z_impl_k_thread_create(new_thread, stack, stack_size, entry, p1, p2, p3, prio, options, delay);
    976c:	f04f 32ff 	mov.w	r2, #4294967295
    9770:	f04f 33ff 	mov.w	r3, #4294967295
    9774:	e9cd 2306 	strd	r2, r3, [sp, #24]
    9778:	2200      	movs	r2, #0
    977a:	e9cd 8203 	strd	r8, r2, [sp, #12]
    977e:	e9cd 2201 	strd	r2, r2, [sp, #4]
    9782:	4b0f      	ldr	r3, [pc, #60]	; (97c0 <k_work_queue_start+0xe0>)
    9784:	9400      	str	r4, [sp, #0]
    9786:	463a      	mov	r2, r7
    9788:	4631      	mov	r1, r6
    978a:	4620      	mov	r0, r4
    978c:	f7ff f88e 	bl	88ac <z_impl_k_thread_create>

	(void)k_thread_create(&queue->thread, stack, stack_size,
			      work_queue_main, queue, NULL, NULL,
			      prio, 0, K_FOREVER);

	if ((cfg != NULL) && (cfg->name != NULL)) {
    9790:	b125      	cbz	r5, 979c <k_work_queue_start+0xbc>
    9792:	6829      	ldr	r1, [r5, #0]
    9794:	b111      	cbz	r1, 979c <k_work_queue_start+0xbc>
	return z_impl_k_thread_name_set(thread, str);
    9796:	4620      	mov	r0, r4
    9798:	f001 fa70 	bl	ac7c <z_impl_k_thread_name_set>
	z_impl_k_thread_start(thread);
    979c:	4620      	mov	r0, r4
	}

	k_thread_start(&queue->thread);

	SYS_PORT_TRACING_OBJ_FUNC_EXIT(k_work_queue, start, queue);
}
    979e:	b008      	add	sp, #32
    97a0:	e8bd 41f0 	ldmia.w	sp!, {r4, r5, r6, r7, r8, lr}
    97a4:	f001 ba6d 	b.w	ac82 <z_impl_k_thread_start>
	uint32_t flags = K_WORK_QUEUE_STARTED;
    97a8:	2101      	movs	r1, #1
    97aa:	e7dd      	b.n	9768 <k_work_queue_start+0x88>
    97ac:	0000c9ae 	.word	0x0000c9ae
    97b0:	0000b2d3 	.word	0x0000b2d3
    97b4:	0000c947 	.word	0x0000c947
    97b8:	0000c9b4 	.word	0x0000c9b4
    97bc:	0000c9ba 	.word	0x0000c9ba
    97c0:	00009329 	.word	0x00009329

000097c4 <z_data_copy>:
 * This routine copies the data section from ROM to RAM.
 *
 * @return N/A
 */
void z_data_copy(void)
{
    97c4:	b508      	push	{r3, lr}
	(void)memcpy(&__data_region_start, &__data_region_load_start,
		 __data_region_end - __data_region_start);
    97c6:	4806      	ldr	r0, [pc, #24]	; (97e0 <z_data_copy+0x1c>)
	(void)memcpy(&__data_region_start, &__data_region_load_start,
    97c8:	4a06      	ldr	r2, [pc, #24]	; (97e4 <z_data_copy+0x20>)
    97ca:	4907      	ldr	r1, [pc, #28]	; (97e8 <z_data_copy+0x24>)
    97cc:	1a12      	subs	r2, r2, r0
    97ce:	f000 fd1f 	bl	a210 <memcpy>
#else
	(void)memcpy(&_app_smem_start, &_app_smem_rom_start,
		 _app_smem_end - _app_smem_start);
#endif /* CONFIG_STACK_CANARIES */
#endif /* CONFIG_USERSPACE */
}
    97d2:	e8bd 4008 	ldmia.w	sp!, {r3, lr}
	(void)memcpy(&__ramfunc_start, &__ramfunc_load_start,
    97d6:	4a05      	ldr	r2, [pc, #20]	; (97ec <z_data_copy+0x28>)
    97d8:	4905      	ldr	r1, [pc, #20]	; (97f0 <z_data_copy+0x2c>)
    97da:	4806      	ldr	r0, [pc, #24]	; (97f4 <z_data_copy+0x30>)
    97dc:	f000 bd18 	b.w	a210 <memcpy>
    97e0:	20000000 	.word	0x20000000
    97e4:	2000029c 	.word	0x2000029c
    97e8:	0000ca5c 	.word	0x0000ca5c
    97ec:	00000000 	.word	0x00000000
    97f0:	0000ca5c 	.word	0x0000ca5c
    97f4:	20000000 	.word	0x20000000

000097f8 <boot_banner>:
		k_busy_wait(CONFIG_BOOT_DELAY * USEC_PER_MSEC);
	}

#if defined(CONFIG_BOOT_BANNER)
#ifdef BUILD_VERSION
	printk("*** Booting Zephyr OS build %s %s ***\n",
    97f8:	4a02      	ldr	r2, [pc, #8]	; (9804 <boot_banner+0xc>)
    97fa:	4903      	ldr	r1, [pc, #12]	; (9808 <boot_banner+0x10>)
    97fc:	4803      	ldr	r0, [pc, #12]	; (980c <boot_banner+0x14>)
    97fe:	f000 bb1e 	b.w	9e3e <printk>
    9802:	bf00      	nop
    9804:	0000c4f1 	.word	0x0000c4f1
    9808:	0000c9ee 	.word	0x0000c9ee
    980c:	0000c9fd 	.word	0x0000c9fd

00009810 <statics_init>:

	SYS_PORT_TRACING_OBJ_INIT(k_heap, h);
}

static int statics_init(const struct device *unused)
{
    9810:	b5f8      	push	{r3, r4, r5, r6, r7, lr}
	ARG_UNUSED(unused);
	STRUCT_SECTION_FOREACH(k_heap, h) {
    9812:	4d0f      	ldr	r5, [pc, #60]	; (9850 <statics_init+0x40>)
    9814:	4c0f      	ldr	r4, [pc, #60]	; (9854 <statics_init+0x44>)
    9816:	4e10      	ldr	r6, [pc, #64]	; (9858 <statics_init+0x48>)
    9818:	462f      	mov	r7, r5
    981a:	42ac      	cmp	r4, r5
    981c:	d90c      	bls.n	9838 <statics_init+0x28>
    981e:	490f      	ldr	r1, [pc, #60]	; (985c <statics_init+0x4c>)
    9820:	480f      	ldr	r0, [pc, #60]	; (9860 <statics_init+0x50>)
    9822:	2318      	movs	r3, #24
    9824:	4632      	mov	r2, r6
    9826:	f000 fb0a 	bl	9e3e <printk>
    982a:	480e      	ldr	r0, [pc, #56]	; (9864 <statics_init+0x54>)
    982c:	f000 fb07 	bl	9e3e <printk>
    9830:	2118      	movs	r1, #24
    9832:	4630      	mov	r0, r6
    9834:	f000 fa00 	bl	9c38 <assert_post_action>
    9838:	42bc      	cmp	r4, r7
    983a:	d301      	bcc.n	9840 <statics_init+0x30>
		{
			k_heap_init(h, h->heap.init_mem, h->heap.init_bytes);
		}
	}
	return 0;
}
    983c:	2000      	movs	r0, #0
    983e:	bdf8      	pop	{r3, r4, r5, r6, r7, pc}
			k_heap_init(h, h->heap.init_mem, h->heap.init_bytes);
    9840:	e9d4 1201 	ldrd	r1, r2, [r4, #4]
    9844:	4620      	mov	r0, r4
    9846:	f001 fa58 	bl	acfa <k_heap_init>
	STRUCT_SECTION_FOREACH(k_heap, h) {
    984a:	3418      	adds	r4, #24
    984c:	e7e5      	b.n	981a <statics_init+0xa>
    984e:	bf00      	nop
    9850:	2000024c 	.word	0x2000024c
    9854:	2000024c 	.word	0x2000024c
    9858:	0000ca24 	.word	0x0000ca24
    985c:	0000ca46 	.word	0x0000ca46
    9860:	0000b2d3 	.word	0x0000b2d3
    9864:	0000c435 	.word	0x0000c435

00009868 <nrf_cc3xx_platform_init_no_rng>:
    9868:	b510      	push	{r4, lr}
    986a:	4c0a      	ldr	r4, [pc, #40]	; (9894 <nrf_cc3xx_platform_init_no_rng+0x2c>)
    986c:	6823      	ldr	r3, [r4, #0]
    986e:	b11b      	cbz	r3, 9878 <nrf_cc3xx_platform_init_no_rng+0x10>
    9870:	2301      	movs	r3, #1
    9872:	6023      	str	r3, [r4, #0]
    9874:	2000      	movs	r0, #0
    9876:	bd10      	pop	{r4, pc}
    9878:	f000 f8d6 	bl	9a28 <CC_LibInitNoRng>
    987c:	2800      	cmp	r0, #0
    987e:	d0f7      	beq.n	9870 <nrf_cc3xx_platform_init_no_rng+0x8>
    9880:	3801      	subs	r0, #1
    9882:	2806      	cmp	r0, #6
    9884:	d803      	bhi.n	988e <nrf_cc3xx_platform_init_no_rng+0x26>
    9886:	4b04      	ldr	r3, [pc, #16]	; (9898 <nrf_cc3xx_platform_init_no_rng+0x30>)
    9888:	f853 0020 	ldr.w	r0, [r3, r0, lsl #2]
    988c:	bd10      	pop	{r4, pc}
    988e:	4803      	ldr	r0, [pc, #12]	; (989c <nrf_cc3xx_platform_init_no_rng+0x34>)
    9890:	bd10      	pop	{r4, pc}
    9892:	bf00      	nop
    9894:	20000ea8 	.word	0x20000ea8
    9898:	0000b1d4 	.word	0x0000b1d4
    989c:	ffff8ffe 	.word	0xffff8ffe

000098a0 <nrf_cc3xx_platform_abort>:
    98a0:	f3bf 8f4f 	dsb	sy
    98a4:	4905      	ldr	r1, [pc, #20]	; (98bc <nrf_cc3xx_platform_abort+0x1c>)
    98a6:	4b06      	ldr	r3, [pc, #24]	; (98c0 <nrf_cc3xx_platform_abort+0x20>)
    98a8:	68ca      	ldr	r2, [r1, #12]
    98aa:	f402 62e0 	and.w	r2, r2, #1792	; 0x700
    98ae:	4313      	orrs	r3, r2
    98b0:	60cb      	str	r3, [r1, #12]
    98b2:	f3bf 8f4f 	dsb	sy
    98b6:	bf00      	nop
    98b8:	e7fd      	b.n	98b6 <nrf_cc3xx_platform_abort+0x16>
    98ba:	bf00      	nop
    98bc:	e000ed00 	.word	0xe000ed00
    98c0:	05fa0004 	.word	0x05fa0004

000098c4 <CC_PalAbort>:
    98c4:	b4f0      	push	{r4, r5, r6, r7}
    98c6:	4f09      	ldr	r7, [pc, #36]	; (98ec <CC_PalAbort+0x28>)
    98c8:	4e09      	ldr	r6, [pc, #36]	; (98f0 <CC_PalAbort+0x2c>)
    98ca:	4c0a      	ldr	r4, [pc, #40]	; (98f4 <CC_PalAbort+0x30>)
    98cc:	4a0a      	ldr	r2, [pc, #40]	; (98f8 <CC_PalAbort+0x34>)
    98ce:	4d0b      	ldr	r5, [pc, #44]	; (98fc <CC_PalAbort+0x38>)
    98d0:	490b      	ldr	r1, [pc, #44]	; (9900 <CC_PalAbort+0x3c>)
    98d2:	f04f 33fe 	mov.w	r3, #4278124286	; 0xfefefefe
    98d6:	603b      	str	r3, [r7, #0]
    98d8:	6852      	ldr	r2, [r2, #4]
    98da:	6033      	str	r3, [r6, #0]
    98dc:	6023      	str	r3, [r4, #0]
    98de:	2400      	movs	r4, #0
    98e0:	602b      	str	r3, [r5, #0]
    98e2:	f8c1 4500 	str.w	r4, [r1, #1280]	; 0x500
    98e6:	bcf0      	pop	{r4, r5, r6, r7}
    98e8:	4710      	bx	r2
    98ea:	bf00      	nop
    98ec:	5002b400 	.word	0x5002b400
    98f0:	5002b404 	.word	0x5002b404
    98f4:	5002b408 	.word	0x5002b408
    98f8:	200001d0 	.word	0x200001d0
    98fc:	5002b40c 	.word	0x5002b40c
    9900:	5002a000 	.word	0x5002a000

00009904 <nrf_cc3xx_platform_set_abort>:
    9904:	e9d0 1200 	ldrd	r1, r2, [r0]
    9908:	4b01      	ldr	r3, [pc, #4]	; (9910 <nrf_cc3xx_platform_set_abort+0xc>)
    990a:	e9c3 1200 	strd	r1, r2, [r3]
    990e:	4770      	bx	lr
    9910:	200001d0 	.word	0x200001d0

00009914 <mutex_free>:
    9914:	b510      	push	{r4, lr}
    9916:	4604      	mov	r4, r0
    9918:	b130      	cbz	r0, 9928 <mutex_free+0x14>
    991a:	6863      	ldr	r3, [r4, #4]
    991c:	06db      	lsls	r3, r3, #27
    991e:	d502      	bpl.n	9926 <mutex_free+0x12>
    9920:	2300      	movs	r3, #0
    9922:	6023      	str	r3, [r4, #0]
    9924:	6063      	str	r3, [r4, #4]
    9926:	bd10      	pop	{r4, pc}
    9928:	4b02      	ldr	r3, [pc, #8]	; (9934 <mutex_free+0x20>)
    992a:	4803      	ldr	r0, [pc, #12]	; (9938 <mutex_free+0x24>)
    992c:	685b      	ldr	r3, [r3, #4]
    992e:	4798      	blx	r3
    9930:	e7f3      	b.n	991a <mutex_free+0x6>
    9932:	bf00      	nop
    9934:	200001d0 	.word	0x200001d0
    9938:	0000b1f0 	.word	0x0000b1f0

0000993c <mutex_unlock>:
    993c:	b168      	cbz	r0, 995a <mutex_unlock+0x1e>
    993e:	6843      	ldr	r3, [r0, #4]
    9940:	b13b      	cbz	r3, 9952 <mutex_unlock+0x16>
    9942:	06db      	lsls	r3, r3, #27
    9944:	d507      	bpl.n	9956 <mutex_unlock+0x1a>
    9946:	f3bf 8f5f 	dmb	sy
    994a:	2300      	movs	r3, #0
    994c:	6003      	str	r3, [r0, #0]
    994e:	4618      	mov	r0, r3
    9950:	4770      	bx	lr
    9952:	4803      	ldr	r0, [pc, #12]	; (9960 <mutex_unlock+0x24>)
    9954:	4770      	bx	lr
    9956:	4803      	ldr	r0, [pc, #12]	; (9964 <mutex_unlock+0x28>)
    9958:	4770      	bx	lr
    995a:	f46f 40e0 	mvn.w	r0, #28672	; 0x7000
    995e:	4770      	bx	lr
    9960:	ffff8fea 	.word	0xffff8fea
    9964:	ffff8fe9 	.word	0xffff8fe9

00009968 <mutex_init>:
    9968:	b510      	push	{r4, lr}
    996a:	4604      	mov	r4, r0
    996c:	b120      	cbz	r0, 9978 <mutex_init+0x10>
    996e:	2200      	movs	r2, #0
    9970:	2311      	movs	r3, #17
    9972:	6022      	str	r2, [r4, #0]
    9974:	6063      	str	r3, [r4, #4]
    9976:	bd10      	pop	{r4, pc}
    9978:	4801      	ldr	r0, [pc, #4]	; (9980 <mutex_init+0x18>)
    997a:	f7ff ffa3 	bl	98c4 <CC_PalAbort>
    997e:	e7f6      	b.n	996e <mutex_init+0x6>
    9980:	0000b218 	.word	0x0000b218

00009984 <mutex_lock>:
    9984:	b1c0      	cbz	r0, 99b8 <mutex_lock+0x34>
    9986:	6843      	ldr	r3, [r0, #4]
    9988:	b1a3      	cbz	r3, 99b4 <mutex_lock+0x30>
    998a:	06db      	lsls	r3, r3, #27
    998c:	d510      	bpl.n	99b0 <mutex_lock+0x2c>
    998e:	2201      	movs	r2, #1
    9990:	f3bf 8f5b 	dmb	ish
    9994:	e850 3f00 	ldrex	r3, [r0]
    9998:	e840 2100 	strex	r1, r2, [r0]
    999c:	2900      	cmp	r1, #0
    999e:	d1f9      	bne.n	9994 <mutex_lock+0x10>
    99a0:	f3bf 8f5b 	dmb	ish
    99a4:	2b01      	cmp	r3, #1
    99a6:	d0f3      	beq.n	9990 <mutex_lock+0xc>
    99a8:	f3bf 8f5f 	dmb	sy
    99ac:	2000      	movs	r0, #0
    99ae:	4770      	bx	lr
    99b0:	4803      	ldr	r0, [pc, #12]	; (99c0 <mutex_lock+0x3c>)
    99b2:	4770      	bx	lr
    99b4:	4803      	ldr	r0, [pc, #12]	; (99c4 <mutex_lock+0x40>)
    99b6:	4770      	bx	lr
    99b8:	f46f 40e0 	mvn.w	r0, #28672	; 0x7000
    99bc:	4770      	bx	lr
    99be:	bf00      	nop
    99c0:	ffff8fe9 	.word	0xffff8fe9
    99c4:	ffff8fea 	.word	0xffff8fea

000099c8 <nrf_cc3xx_platform_set_mutexes>:
    99c8:	b570      	push	{r4, r5, r6, lr}
    99ca:	e9d0 2300 	ldrd	r2, r3, [r0]
    99ce:	4c13      	ldr	r4, [pc, #76]	; (9a1c <nrf_cc3xx_platform_set_mutexes+0x54>)
    99d0:	4d13      	ldr	r5, [pc, #76]	; (9a20 <nrf_cc3xx_platform_set_mutexes+0x58>)
    99d2:	e9c4 2300 	strd	r2, r3, [r4]
    99d6:	e9d0 6302 	ldrd	r6, r3, [r0, #8]
    99da:	e9c4 6302 	strd	r6, r3, [r4, #8]
    99de:	4b11      	ldr	r3, [pc, #68]	; (9a24 <nrf_cc3xx_platform_set_mutexes+0x5c>)
    99e0:	6808      	ldr	r0, [r1, #0]
    99e2:	6018      	str	r0, [r3, #0]
    99e4:	6848      	ldr	r0, [r1, #4]
    99e6:	6058      	str	r0, [r3, #4]
    99e8:	6888      	ldr	r0, [r1, #8]
    99ea:	6098      	str	r0, [r3, #8]
    99ec:	e9d1 6003 	ldrd	r6, r0, [r1, #12]
    99f0:	f8d5 1114 	ldr.w	r1, [r5, #276]	; 0x114
    99f4:	60de      	str	r6, [r3, #12]
    99f6:	6118      	str	r0, [r3, #16]
    99f8:	06cb      	lsls	r3, r1, #27
    99fa:	d50d      	bpl.n	9a18 <nrf_cc3xx_platform_set_mutexes+0x50>
    99fc:	2300      	movs	r3, #0
    99fe:	e9c5 3344 	strd	r3, r3, [r5, #272]	; 0x110
    9a02:	e9c5 336d 	strd	r3, r3, [r5, #436]	; 0x1b4
    9a06:	f505 7088 	add.w	r0, r5, #272	; 0x110
    9a0a:	4790      	blx	r2
    9a0c:	6823      	ldr	r3, [r4, #0]
    9a0e:	f505 70da 	add.w	r0, r5, #436	; 0x1b4
    9a12:	e8bd 4070 	ldmia.w	sp!, {r4, r5, r6, lr}
    9a16:	4718      	bx	r3
    9a18:	bd70      	pop	{r4, r5, r6, pc}
    9a1a:	bf00      	nop
    9a1c:	200001e0 	.word	0x200001e0
    9a20:	20001160 	.word	0x20001160
    9a24:	200001f0 	.word	0x200001f0

00009a28 <CC_LibInitNoRng>:
    9a28:	b510      	push	{r4, lr}
    9a2a:	f000 f833 	bl	9a94 <CC_HalInit>
    9a2e:	b120      	cbz	r0, 9a3a <CC_LibInitNoRng+0x12>
    9a30:	2403      	movs	r4, #3
    9a32:	f000 f867 	bl	9b04 <CC_PalTerminate>
    9a36:	4620      	mov	r0, r4
    9a38:	bd10      	pop	{r4, pc}
    9a3a:	f000 f835 	bl	9aa8 <CC_PalInit>
    9a3e:	b990      	cbnz	r0, 9a66 <CC_LibInitNoRng+0x3e>
    9a40:	f000 f8b0 	bl	9ba4 <CC_PalPowerSaveModeSelect>
    9a44:	b990      	cbnz	r0, 9a6c <CC_LibInitNoRng+0x44>
    9a46:	4b0f      	ldr	r3, [pc, #60]	; (9a84 <CC_LibInitNoRng+0x5c>)
    9a48:	681b      	ldr	r3, [r3, #0]
    9a4a:	0e1b      	lsrs	r3, r3, #24
    9a4c:	2bf0      	cmp	r3, #240	; 0xf0
    9a4e:	d108      	bne.n	9a62 <CC_LibInitNoRng+0x3a>
    9a50:	4a0d      	ldr	r2, [pc, #52]	; (9a88 <CC_LibInitNoRng+0x60>)
    9a52:	4b0e      	ldr	r3, [pc, #56]	; (9a8c <CC_LibInitNoRng+0x64>)
    9a54:	6812      	ldr	r2, [r2, #0]
    9a56:	429a      	cmp	r2, r3
    9a58:	d00a      	beq.n	9a70 <CC_LibInitNoRng+0x48>
    9a5a:	2407      	movs	r4, #7
    9a5c:	f000 f81c 	bl	9a98 <CC_HalTerminate>
    9a60:	e7e7      	b.n	9a32 <CC_LibInitNoRng+0xa>
    9a62:	2406      	movs	r4, #6
    9a64:	e7fa      	b.n	9a5c <CC_LibInitNoRng+0x34>
    9a66:	2404      	movs	r4, #4
    9a68:	4620      	mov	r0, r4
    9a6a:	bd10      	pop	{r4, pc}
    9a6c:	2400      	movs	r4, #0
    9a6e:	e7f5      	b.n	9a5c <CC_LibInitNoRng+0x34>
    9a70:	2001      	movs	r0, #1
    9a72:	f000 f897 	bl	9ba4 <CC_PalPowerSaveModeSelect>
    9a76:	4604      	mov	r4, r0
    9a78:	2800      	cmp	r0, #0
    9a7a:	d1f7      	bne.n	9a6c <CC_LibInitNoRng+0x44>
    9a7c:	4b04      	ldr	r3, [pc, #16]	; (9a90 <CC_LibInitNoRng+0x68>)
    9a7e:	6018      	str	r0, [r3, #0]
    9a80:	e7d9      	b.n	9a36 <CC_LibInitNoRng+0xe>
    9a82:	bf00      	nop
    9a84:	5002b928 	.word	0x5002b928
    9a88:	5002ba24 	.word	0x5002ba24
    9a8c:	20e00000 	.word	0x20e00000
    9a90:	5002ba0c 	.word	0x5002ba0c

00009a94 <CC_HalInit>:
    9a94:	2000      	movs	r0, #0
    9a96:	4770      	bx	lr

00009a98 <CC_HalTerminate>:
    9a98:	2000      	movs	r0, #0
    9a9a:	4770      	bx	lr

00009a9c <CC_HalMaskInterrupt>:
    9a9c:	4b01      	ldr	r3, [pc, #4]	; (9aa4 <CC_HalMaskInterrupt+0x8>)
    9a9e:	6018      	str	r0, [r3, #0]
    9aa0:	4770      	bx	lr
    9aa2:	bf00      	nop
    9aa4:	5002ba04 	.word	0x5002ba04

00009aa8 <CC_PalInit>:
    9aa8:	b510      	push	{r4, lr}
    9aaa:	4811      	ldr	r0, [pc, #68]	; (9af0 <CC_PalInit+0x48>)
    9aac:	f000 f848 	bl	9b40 <CC_PalMutexCreate>
    9ab0:	b100      	cbz	r0, 9ab4 <CC_PalInit+0xc>
    9ab2:	bd10      	pop	{r4, pc}
    9ab4:	480f      	ldr	r0, [pc, #60]	; (9af4 <CC_PalInit+0x4c>)
    9ab6:	f000 f843 	bl	9b40 <CC_PalMutexCreate>
    9aba:	2800      	cmp	r0, #0
    9abc:	d1f9      	bne.n	9ab2 <CC_PalInit+0xa>
    9abe:	4c0e      	ldr	r4, [pc, #56]	; (9af8 <CC_PalInit+0x50>)
    9ac0:	4620      	mov	r0, r4
    9ac2:	f000 f83d 	bl	9b40 <CC_PalMutexCreate>
    9ac6:	2800      	cmp	r0, #0
    9ac8:	d1f3      	bne.n	9ab2 <CC_PalInit+0xa>
    9aca:	4b0c      	ldr	r3, [pc, #48]	; (9afc <CC_PalInit+0x54>)
    9acc:	480c      	ldr	r0, [pc, #48]	; (9b00 <CC_PalInit+0x58>)
    9ace:	601c      	str	r4, [r3, #0]
    9ad0:	f000 f836 	bl	9b40 <CC_PalMutexCreate>
    9ad4:	4601      	mov	r1, r0
    9ad6:	2800      	cmp	r0, #0
    9ad8:	d1eb      	bne.n	9ab2 <CC_PalInit+0xa>
    9ada:	f000 f82d 	bl	9b38 <CC_PalDmaInit>
    9ade:	4604      	mov	r4, r0
    9ae0:	b108      	cbz	r0, 9ae6 <CC_PalInit+0x3e>
    9ae2:	4620      	mov	r0, r4
    9ae4:	bd10      	pop	{r4, pc}
    9ae6:	f000 f83f 	bl	9b68 <CC_PalPowerSaveModeInit>
    9aea:	4620      	mov	r0, r4
    9aec:	e7fa      	b.n	9ae4 <CC_PalInit+0x3c>
    9aee:	bf00      	nop
    9af0:	20000228 	.word	0x20000228
    9af4:	2000021c 	.word	0x2000021c
    9af8:	20000224 	.word	0x20000224
    9afc:	2000022c 	.word	0x2000022c
    9b00:	20000220 	.word	0x20000220

00009b04 <CC_PalTerminate>:
    9b04:	b508      	push	{r3, lr}
    9b06:	4808      	ldr	r0, [pc, #32]	; (9b28 <CC_PalTerminate+0x24>)
    9b08:	f000 f824 	bl	9b54 <CC_PalMutexDestroy>
    9b0c:	4807      	ldr	r0, [pc, #28]	; (9b2c <CC_PalTerminate+0x28>)
    9b0e:	f000 f821 	bl	9b54 <CC_PalMutexDestroy>
    9b12:	4807      	ldr	r0, [pc, #28]	; (9b30 <CC_PalTerminate+0x2c>)
    9b14:	f000 f81e 	bl	9b54 <CC_PalMutexDestroy>
    9b18:	4806      	ldr	r0, [pc, #24]	; (9b34 <CC_PalTerminate+0x30>)
    9b1a:	f000 f81b 	bl	9b54 <CC_PalMutexDestroy>
    9b1e:	e8bd 4008 	ldmia.w	sp!, {r3, lr}
    9b22:	f000 b80b 	b.w	9b3c <CC_PalDmaTerminate>
    9b26:	bf00      	nop
    9b28:	20000228 	.word	0x20000228
    9b2c:	2000021c 	.word	0x2000021c
    9b30:	20000224 	.word	0x20000224
    9b34:	20000220 	.word	0x20000220

00009b38 <CC_PalDmaInit>:
    9b38:	2000      	movs	r0, #0
    9b3a:	4770      	bx	lr

00009b3c <CC_PalDmaTerminate>:
    9b3c:	4770      	bx	lr
    9b3e:	bf00      	nop

00009b40 <CC_PalMutexCreate>:
    9b40:	b508      	push	{r3, lr}
    9b42:	4b03      	ldr	r3, [pc, #12]	; (9b50 <CC_PalMutexCreate+0x10>)
    9b44:	6802      	ldr	r2, [r0, #0]
    9b46:	681b      	ldr	r3, [r3, #0]
    9b48:	6810      	ldr	r0, [r2, #0]
    9b4a:	4798      	blx	r3
    9b4c:	2000      	movs	r0, #0
    9b4e:	bd08      	pop	{r3, pc}
    9b50:	200001e0 	.word	0x200001e0

00009b54 <CC_PalMutexDestroy>:
    9b54:	b508      	push	{r3, lr}
    9b56:	4b03      	ldr	r3, [pc, #12]	; (9b64 <CC_PalMutexDestroy+0x10>)
    9b58:	6802      	ldr	r2, [r0, #0]
    9b5a:	685b      	ldr	r3, [r3, #4]
    9b5c:	6810      	ldr	r0, [r2, #0]
    9b5e:	4798      	blx	r3
    9b60:	2000      	movs	r0, #0
    9b62:	bd08      	pop	{r3, pc}
    9b64:	200001e0 	.word	0x200001e0

00009b68 <CC_PalPowerSaveModeInit>:
    9b68:	b570      	push	{r4, r5, r6, lr}
    9b6a:	4c09      	ldr	r4, [pc, #36]	; (9b90 <CC_PalPowerSaveModeInit+0x28>)
    9b6c:	4d09      	ldr	r5, [pc, #36]	; (9b94 <CC_PalPowerSaveModeInit+0x2c>)
    9b6e:	6920      	ldr	r0, [r4, #16]
    9b70:	68ab      	ldr	r3, [r5, #8]
    9b72:	4798      	blx	r3
    9b74:	b118      	cbz	r0, 9b7e <CC_PalPowerSaveModeInit+0x16>
    9b76:	4b08      	ldr	r3, [pc, #32]	; (9b98 <CC_PalPowerSaveModeInit+0x30>)
    9b78:	4808      	ldr	r0, [pc, #32]	; (9b9c <CC_PalPowerSaveModeInit+0x34>)
    9b7a:	685b      	ldr	r3, [r3, #4]
    9b7c:	4798      	blx	r3
    9b7e:	4a08      	ldr	r2, [pc, #32]	; (9ba0 <CC_PalPowerSaveModeInit+0x38>)
    9b80:	68eb      	ldr	r3, [r5, #12]
    9b82:	6920      	ldr	r0, [r4, #16]
    9b84:	2100      	movs	r1, #0
    9b86:	6011      	str	r1, [r2, #0]
    9b88:	e8bd 4070 	ldmia.w	sp!, {r4, r5, r6, lr}
    9b8c:	4718      	bx	r3
    9b8e:	bf00      	nop
    9b90:	200001f0 	.word	0x200001f0
    9b94:	200001e0 	.word	0x200001e0
    9b98:	200001d0 	.word	0x200001d0
    9b9c:	0000b23c 	.word	0x0000b23c
    9ba0:	20000ebc 	.word	0x20000ebc

00009ba4 <CC_PalPowerSaveModeSelect>:
    9ba4:	b570      	push	{r4, r5, r6, lr}
    9ba6:	4d1a      	ldr	r5, [pc, #104]	; (9c10 <CC_PalPowerSaveModeSelect+0x6c>)
    9ba8:	4e1a      	ldr	r6, [pc, #104]	; (9c14 <CC_PalPowerSaveModeSelect+0x70>)
    9baa:	4604      	mov	r4, r0
    9bac:	68b2      	ldr	r2, [r6, #8]
    9bae:	6928      	ldr	r0, [r5, #16]
    9bb0:	4790      	blx	r2
    9bb2:	b9f0      	cbnz	r0, 9bf2 <CC_PalPowerSaveModeSelect+0x4e>
    9bb4:	b15c      	cbz	r4, 9bce <CC_PalPowerSaveModeSelect+0x2a>
    9bb6:	4c18      	ldr	r4, [pc, #96]	; (9c18 <CC_PalPowerSaveModeSelect+0x74>)
    9bb8:	6823      	ldr	r3, [r4, #0]
    9bba:	b1ab      	cbz	r3, 9be8 <CC_PalPowerSaveModeSelect+0x44>
    9bbc:	2b01      	cmp	r3, #1
    9bbe:	d01a      	beq.n	9bf6 <CC_PalPowerSaveModeSelect+0x52>
    9bc0:	3b01      	subs	r3, #1
    9bc2:	6023      	str	r3, [r4, #0]
    9bc4:	6928      	ldr	r0, [r5, #16]
    9bc6:	68f3      	ldr	r3, [r6, #12]
    9bc8:	4798      	blx	r3
    9bca:	2000      	movs	r0, #0
    9bcc:	bd70      	pop	{r4, r5, r6, pc}
    9bce:	4c12      	ldr	r4, [pc, #72]	; (9c18 <CC_PalPowerSaveModeSelect+0x74>)
    9bd0:	6821      	ldr	r1, [r4, #0]
    9bd2:	b939      	cbnz	r1, 9be4 <CC_PalPowerSaveModeSelect+0x40>
    9bd4:	4b11      	ldr	r3, [pc, #68]	; (9c1c <CC_PalPowerSaveModeSelect+0x78>)
    9bd6:	4a12      	ldr	r2, [pc, #72]	; (9c20 <CC_PalPowerSaveModeSelect+0x7c>)
    9bd8:	2001      	movs	r0, #1
    9bda:	f8c3 0500 	str.w	r0, [r3, #1280]	; 0x500
    9bde:	6813      	ldr	r3, [r2, #0]
    9be0:	2b00      	cmp	r3, #0
    9be2:	d1fc      	bne.n	9bde <CC_PalPowerSaveModeSelect+0x3a>
    9be4:	3101      	adds	r1, #1
    9be6:	6021      	str	r1, [r4, #0]
    9be8:	68f3      	ldr	r3, [r6, #12]
    9bea:	6928      	ldr	r0, [r5, #16]
    9bec:	4798      	blx	r3
    9bee:	2000      	movs	r0, #0
    9bf0:	bd70      	pop	{r4, r5, r6, pc}
    9bf2:	480c      	ldr	r0, [pc, #48]	; (9c24 <CC_PalPowerSaveModeSelect+0x80>)
    9bf4:	bd70      	pop	{r4, r5, r6, pc}
    9bf6:	4a0a      	ldr	r2, [pc, #40]	; (9c20 <CC_PalPowerSaveModeSelect+0x7c>)
    9bf8:	6813      	ldr	r3, [r2, #0]
    9bfa:	2b00      	cmp	r3, #0
    9bfc:	d1fc      	bne.n	9bf8 <CC_PalPowerSaveModeSelect+0x54>
    9bfe:	4a07      	ldr	r2, [pc, #28]	; (9c1c <CC_PalPowerSaveModeSelect+0x78>)
    9c00:	f06f 407e 	mvn.w	r0, #4261412864	; 0xfe000000
    9c04:	f8c2 3500 	str.w	r3, [r2, #1280]	; 0x500
    9c08:	f7ff ff48 	bl	9a9c <CC_HalMaskInterrupt>
    9c0c:	6823      	ldr	r3, [r4, #0]
    9c0e:	e7d7      	b.n	9bc0 <CC_PalPowerSaveModeSelect+0x1c>
    9c10:	200001f0 	.word	0x200001f0
    9c14:	200001e0 	.word	0x200001e0
    9c18:	20000ebc 	.word	0x20000ebc
    9c1c:	5002a000 	.word	0x5002a000
    9c20:	5002b910 	.word	0x5002b910
    9c24:	ffff8fe9 	.word	0xffff8fe9

00009c28 <gpio_add_callback>:
				    struct gpio_callback *callback)
{
	const struct gpio_driver_api *api =
		(const struct gpio_driver_api *)port->api;

	if (api->manage_callback == NULL) {
    9c28:	6883      	ldr	r3, [r0, #8]
    9c2a:	69db      	ldr	r3, [r3, #28]
    9c2c:	b10b      	cbz	r3, 9c32 <gpio_add_callback+0xa>
		return -ENOTSUP;
	}

	return api->manage_callback(port, callback, true);
    9c2e:	2201      	movs	r2, #1
    9c30:	4718      	bx	r3
}
    9c32:	f06f 0085 	mvn.w	r0, #133	; 0x85
    9c36:	4770      	bx	lr

00009c38 <assert_post_action>:
	if (k_is_user_context()) {
		k_oops();
	}
#endif

	k_panic();
    9c38:	4040      	eors	r0, r0
    9c3a:	f380 8811 	msr	BASEPRI, r0
    9c3e:	f04f 0004 	mov.w	r0, #4
    9c42:	df02      	svc	2
}
    9c44:	4770      	bx	lr

00009c46 <encode_uint>:
{
    9c46:	e92d 4ff7 	stmdb	sp!, {r0, r1, r2, r4, r5, r6, r7, r8, r9, sl, fp, lr}
    9c4a:	4699      	mov	r9, r3
	bool upcase = isupper((int)conv->specifier);
    9c4c:	78d3      	ldrb	r3, [r2, #3]
{
    9c4e:	4614      	mov	r4, r2
	switch (specifier) {
    9c50:	2b6f      	cmp	r3, #111	; 0x6f
	return (int)(((unsigned)(a)-(unsigned)'A') < 26U);
    9c52:	f1a3 0241 	sub.w	r2, r3, #65	; 0x41
{
    9c56:	4606      	mov	r6, r0
    9c58:	460f      	mov	r7, r1
    9c5a:	9201      	str	r2, [sp, #4]
	switch (specifier) {
    9c5c:	d02d      	beq.n	9cba <encode_uint+0x74>
    9c5e:	d828      	bhi.n	9cb2 <encode_uint+0x6c>
		return 16;
    9c60:	2b58      	cmp	r3, #88	; 0x58
    9c62:	bf14      	ite	ne
    9c64:	250a      	movne	r5, #10
    9c66:	2510      	moveq	r5, #16
	char *bp = bps + (bpe - bps);
    9c68:	f8dd 8030 	ldr.w	r8, [sp, #48]	; 0x30
		unsigned int lsv = (unsigned int)(value % radix);
    9c6c:	46aa      	mov	sl, r5
    9c6e:	f04f 0b00 	mov.w	fp, #0
    9c72:	4652      	mov	r2, sl
    9c74:	465b      	mov	r3, fp
    9c76:	4630      	mov	r0, r6
    9c78:	4639      	mov	r1, r7
    9c7a:	f7f7 f8d5 	bl	e28 <__aeabi_uldivmod>
		*--bp = (lsv <= 9) ? ('0' + lsv)
    9c7e:	2a09      	cmp	r2, #9
    9c80:	b2d3      	uxtb	r3, r2
    9c82:	d81f      	bhi.n	9cc4 <encode_uint+0x7e>
    9c84:	3330      	adds	r3, #48	; 0x30
	} while ((value != 0) && (bps < bp));
    9c86:	455f      	cmp	r7, fp
		*--bp = (lsv <= 9) ? ('0' + lsv)
    9c88:	b2db      	uxtb	r3, r3
	} while ((value != 0) && (bps < bp));
    9c8a:	bf08      	it	eq
    9c8c:	4556      	cmpeq	r6, sl
		*--bp = (lsv <= 9) ? ('0' + lsv)
    9c8e:	f808 3d01 	strb.w	r3, [r8, #-1]!
	} while ((value != 0) && (bps < bp));
    9c92:	d301      	bcc.n	9c98 <encode_uint+0x52>
    9c94:	45c8      	cmp	r8, r9
    9c96:	d812      	bhi.n	9cbe <encode_uint+0x78>
	if (conv->flag_hash) {
    9c98:	7823      	ldrb	r3, [r4, #0]
    9c9a:	069b      	lsls	r3, r3, #26
    9c9c:	d505      	bpl.n	9caa <encode_uint+0x64>
		if (radix == 8) {
    9c9e:	2d08      	cmp	r5, #8
    9ca0:	d116      	bne.n	9cd0 <encode_uint+0x8a>
			conv->altform_0 = true;
    9ca2:	78a3      	ldrb	r3, [r4, #2]
    9ca4:	f043 0308 	orr.w	r3, r3, #8
			conv->altform_0c = true;
    9ca8:	70a3      	strb	r3, [r4, #2]
}
    9caa:	4640      	mov	r0, r8
    9cac:	b003      	add	sp, #12
    9cae:	e8bd 8ff0 	ldmia.w	sp!, {r4, r5, r6, r7, r8, r9, sl, fp, pc}
	switch (specifier) {
    9cb2:	f003 03f7 	and.w	r3, r3, #247	; 0xf7
		return 16;
    9cb6:	2b70      	cmp	r3, #112	; 0x70
    9cb8:	e7d3      	b.n	9c62 <encode_uint+0x1c>
	switch (specifier) {
    9cba:	2508      	movs	r5, #8
    9cbc:	e7d4      	b.n	9c68 <encode_uint+0x22>
		value /= radix;
    9cbe:	4606      	mov	r6, r0
    9cc0:	460f      	mov	r7, r1
    9cc2:	e7d6      	b.n	9c72 <encode_uint+0x2c>
		*--bp = (lsv <= 9) ? ('0' + lsv)
    9cc4:	9a01      	ldr	r2, [sp, #4]
    9cc6:	2a19      	cmp	r2, #25
    9cc8:	bf94      	ite	ls
    9cca:	3337      	addls	r3, #55	; 0x37
    9ccc:	3357      	addhi	r3, #87	; 0x57
    9cce:	e7da      	b.n	9c86 <encode_uint+0x40>
		} else if (radix == 16) {
    9cd0:	2d10      	cmp	r5, #16
    9cd2:	d1ea      	bne.n	9caa <encode_uint+0x64>
			conv->altform_0c = true;
    9cd4:	78a3      	ldrb	r3, [r4, #2]
    9cd6:	f043 0310 	orr.w	r3, r3, #16
    9cda:	e7e5      	b.n	9ca8 <encode_uint+0x62>

00009cdc <outs>:
{
    9cdc:	e92d 41f0 	stmdb	sp!, {r4, r5, r6, r7, r8, lr}
    9ce0:	4607      	mov	r7, r0
    9ce2:	4688      	mov	r8, r1
    9ce4:	4615      	mov	r5, r2
    9ce6:	461e      	mov	r6, r3
	while ((sp < ep) || ((ep == NULL) && *sp)) {
    9ce8:	4614      	mov	r4, r2
    9cea:	42b4      	cmp	r4, r6
    9cec:	eba4 0005 	sub.w	r0, r4, r5
    9cf0:	d302      	bcc.n	9cf8 <outs+0x1c>
    9cf2:	b93e      	cbnz	r6, 9d04 <outs+0x28>
    9cf4:	7823      	ldrb	r3, [r4, #0]
    9cf6:	b12b      	cbz	r3, 9d04 <outs+0x28>
		int rc = out((int)*sp++, ctx);
    9cf8:	f814 0b01 	ldrb.w	r0, [r4], #1
    9cfc:	4641      	mov	r1, r8
    9cfe:	47b8      	blx	r7
		if (rc < 0) {
    9d00:	2800      	cmp	r0, #0
    9d02:	daf2      	bge.n	9cea <outs+0xe>
}
    9d04:	e8bd 81f0 	ldmia.w	sp!, {r4, r5, r6, r7, r8, pc}

00009d08 <_ConfigAbsSyms>:
GEN_ABSOLUTE_SYM_KCONFIG(CONFIG_OUTPUT_DISASSEMBLY, 1);
GEN_ABSOLUTE_SYM_KCONFIG(CONFIG_OUTPUT_PRINT_MEMORY_USAGE, 1);
GEN_ABSOLUTE_SYM_KCONFIG(CONFIG_BUILD_OUTPUT_BIN, 1);
GEN_ABSOLUTE_SYM_KCONFIG(CONFIG_COMPAT_INCLUDES, 1);

GEN_ABS_SYM_END
    9d08:	4770      	bx	lr

00009d0a <chunk_size>:
		return ((uint16_t *)cmem)[f];
    9d0a:	eb00 00c1 	add.w	r0, r0, r1, lsl #3
    9d0e:	8840      	ldrh	r0, [r0, #2]
}
    9d10:	0840      	lsrs	r0, r0, #1
    9d12:	4770      	bx	lr

00009d14 <free_list_add>:
{
    9d14:	b5f8      	push	{r3, r4, r5, r6, r7, lr}
    9d16:	4603      	mov	r3, r0
    9d18:	460c      	mov	r4, r1
		int bidx = bucket_idx(h, chunk_size(h, c));
    9d1a:	f7ff fff6 	bl	9d0a <chunk_size>
	return 31 - __builtin_clz(usable_sz);
    9d1e:	fab0 f080 	clz	r0, r0
    9d22:	f1c0 001f 	rsb	r0, r0, #31
	if (b->next == 0U) {
    9d26:	eb03 0c80 	add.w	ip, r3, r0, lsl #2
    9d2a:	00ca      	lsls	r2, r1, #3
    9d2c:	f8dc 6010 	ldr.w	r6, [ip, #16]
    9d30:	1d17      	adds	r7, r2, #4
    9d32:	b28d      	uxth	r5, r1
    9d34:	3206      	adds	r2, #6
    9d36:	b956      	cbnz	r6, 9d4e <free_list_add+0x3a>
		h->avail_buckets |= BIT(bidx);
    9d38:	2101      	movs	r1, #1
    9d3a:	fa01 f000 	lsl.w	r0, r1, r0
    9d3e:	68d9      	ldr	r1, [r3, #12]
    9d40:	4301      	orrs	r1, r0
    9d42:	60d9      	str	r1, [r3, #12]
		b->next = c;
    9d44:	f8cc 4010 	str.w	r4, [ip, #16]
		((uint16_t *)cmem)[f] = val;
    9d48:	53dd      	strh	r5, [r3, r7]
    9d4a:	529d      	strh	r5, [r3, r2]
}
    9d4c:	bdf8      	pop	{r3, r4, r5, r6, r7, pc}
	void *cmem = &buf[c];
    9d4e:	00f1      	lsls	r1, r6, #3
		return ((uint16_t *)cmem)[f];
    9d50:	3104      	adds	r1, #4
    9d52:	5a58      	ldrh	r0, [r3, r1]
		((uint16_t *)cmem)[f] = val;
    9d54:	53d8      	strh	r0, [r3, r7]
    9d56:	eb03 00c0 	add.w	r0, r3, r0, lsl #3
    9d5a:	529e      	strh	r6, [r3, r2]
    9d5c:	80c5      	strh	r5, [r0, #6]
    9d5e:	525d      	strh	r5, [r3, r1]
    9d60:	e7f4      	b.n	9d4c <free_list_add+0x38>

00009d62 <sys_notify_validate>:
	if (notify == NULL) {
    9d62:	4603      	mov	r3, r0
    9d64:	b140      	cbz	r0, 9d78 <sys_notify_validate+0x16>
	uint32_t method = notify->flags >> SYS_NOTIFY_METHOD_POS;
    9d66:	6842      	ldr	r2, [r0, #4]
	return method & SYS_NOTIFY_METHOD_MASK;
    9d68:	f002 0203 	and.w	r2, r2, #3
	switch (sys_notify_get_method(notify)) {
    9d6c:	2a02      	cmp	r2, #2
    9d6e:	d006      	beq.n	9d7e <sys_notify_validate+0x1c>
    9d70:	2a03      	cmp	r2, #3
    9d72:	d004      	beq.n	9d7e <sys_notify_validate+0x1c>
    9d74:	2a01      	cmp	r2, #1
    9d76:	d005      	beq.n	9d84 <sys_notify_validate+0x22>
		return -EINVAL;
    9d78:	f06f 0015 	mvn.w	r0, #21
}
    9d7c:	4770      	bx	lr
		if (notify->method.signal == NULL) {
    9d7e:	681a      	ldr	r2, [r3, #0]
    9d80:	2a00      	cmp	r2, #0
    9d82:	d0f9      	beq.n	9d78 <sys_notify_validate+0x16>
		notify->result = 0;
    9d84:	2000      	movs	r0, #0
    9d86:	6098      	str	r0, [r3, #8]
    9d88:	4770      	bx	lr

00009d8a <abort_function>:
{
    9d8a:	b508      	push	{r3, lr}
	sys_reboot(SYS_REBOOT_WARM);
    9d8c:	2000      	movs	r0, #0
    9d8e:	f7f9 fa3d 	bl	320c <sys_reboot>

00009d92 <process_recheck>:
	uint32_t state = mgr->flags & ONOFF_STATE_MASK;
    9d92:	8b83      	ldrh	r3, [r0, #28]
	if ((state == ONOFF_STATE_OFF)
    9d94:	f013 0307 	ands.w	r3, r3, #7
    9d98:	d105      	bne.n	9da6 <process_recheck+0x14>
	    && !sys_slist_is_empty(&mgr->clients)) {
    9d9a:	6803      	ldr	r3, [r0, #0]
    9d9c:	2b00      	cmp	r3, #0
		evt = EVT_START;
    9d9e:	bf0c      	ite	eq
    9da0:	2000      	moveq	r0, #0
    9da2:	2003      	movne	r0, #3
    9da4:	4770      	bx	lr
	} else if ((state == ONOFF_STATE_ON)
    9da6:	2b02      	cmp	r3, #2
    9da8:	d105      	bne.n	9db6 <process_recheck+0x24>
		   && (mgr->refs == 0U)) {
    9daa:	8bc3      	ldrh	r3, [r0, #30]
    9dac:	2b00      	cmp	r3, #0
		evt = EVT_STOP;
    9dae:	bf14      	ite	ne
    9db0:	2000      	movne	r0, #0
    9db2:	2004      	moveq	r0, #4
    9db4:	4770      	bx	lr
	} else if ((state == ONOFF_STATE_ERROR)
    9db6:	2b01      	cmp	r3, #1
    9db8:	d105      	bne.n	9dc6 <process_recheck+0x34>
		   && !sys_slist_is_empty(&mgr->clients)) {
    9dba:	6803      	ldr	r3, [r0, #0]
    9dbc:	2b00      	cmp	r3, #0
		evt = EVT_RESET;
    9dbe:	bf0c      	ite	eq
    9dc0:	2000      	moveq	r0, #0
    9dc2:	2005      	movne	r0, #5
    9dc4:	4770      	bx	lr
	int evt = EVT_NOP;
    9dc6:	2000      	movs	r0, #0
}
    9dc8:	4770      	bx	lr

00009dca <notify_one>:
{
    9dca:	e92d 41f0 	stmdb	sp!, {r4, r5, r6, r7, r8, lr}
    9dce:	460d      	mov	r5, r1
    9dd0:	4607      	mov	r7, r0
		(onoff_client_callback)sys_notify_finalize(&cli->notify, res);
    9dd2:	4619      	mov	r1, r3
    9dd4:	1d28      	adds	r0, r5, #4
{
    9dd6:	4690      	mov	r8, r2
    9dd8:	461e      	mov	r6, r3
		(onoff_client_callback)sys_notify_finalize(&cli->notify, res);
    9dda:	f7f8 fcf7 	bl	27cc <sys_notify_finalize>
	if (cb) {
    9dde:	4604      	mov	r4, r0
    9de0:	b138      	cbz	r0, 9df2 <notify_one+0x28>
		cb(mgr, cli, state, res);
    9de2:	4633      	mov	r3, r6
    9de4:	4642      	mov	r2, r8
    9de6:	4629      	mov	r1, r5
    9de8:	4638      	mov	r0, r7
    9dea:	46a4      	mov	ip, r4
}
    9dec:	e8bd 41f0 	ldmia.w	sp!, {r4, r5, r6, r7, r8, lr}
		cb(mgr, cli, state, res);
    9df0:	4760      	bx	ip
}
    9df2:	e8bd 81f0 	ldmia.w	sp!, {r4, r5, r6, r7, r8, pc}

00009df6 <validate_args>:
{
    9df6:	b510      	push	{r4, lr}
    9df8:	460c      	mov	r4, r1
	if ((mgr == NULL) || (cli == NULL)) {
    9dfa:	b140      	cbz	r0, 9e0e <validate_args+0x18>
    9dfc:	b139      	cbz	r1, 9e0e <validate_args+0x18>
	int rv = sys_notify_validate(&cli->notify);
    9dfe:	1d08      	adds	r0, r1, #4
    9e00:	f7ff ffaf 	bl	9d62 <sys_notify_validate>
	if ((rv == 0)
    9e04:	b928      	cbnz	r0, 9e12 <validate_args+0x1c>
	    && ((cli->notify.flags
    9e06:	68a3      	ldr	r3, [r4, #8]
    9e08:	f033 0303 	bics.w	r3, r3, #3
    9e0c:	d001      	beq.n	9e12 <validate_args+0x1c>
		rv = -EINVAL;
    9e0e:	f06f 0015 	mvn.w	r0, #21
}
    9e12:	bd10      	pop	{r4, pc}

00009e14 <onoff_manager_init>:
{
    9e14:	b538      	push	{r3, r4, r5, lr}
    9e16:	460c      	mov	r4, r1
	if ((mgr == NULL)
    9e18:	4605      	mov	r5, r0
    9e1a:	b158      	cbz	r0, 9e34 <onoff_manager_init+0x20>
	    || (transitions == NULL)
    9e1c:	b151      	cbz	r1, 9e34 <onoff_manager_init+0x20>
	    || (transitions->start == NULL)
    9e1e:	680b      	ldr	r3, [r1, #0]
    9e20:	b143      	cbz	r3, 9e34 <onoff_manager_init+0x20>
	    || (transitions->stop == NULL)) {
    9e22:	684b      	ldr	r3, [r1, #4]
    9e24:	b133      	cbz	r3, 9e34 <onoff_manager_init+0x20>
	*mgr = (struct onoff_manager)ONOFF_MANAGER_INITIALIZER(transitions);
    9e26:	2220      	movs	r2, #32
    9e28:	2100      	movs	r1, #0
    9e2a:	f000 f9fc 	bl	a226 <memset>
    9e2e:	612c      	str	r4, [r5, #16]
	return 0;
    9e30:	2000      	movs	r0, #0
}
    9e32:	bd38      	pop	{r3, r4, r5, pc}
		return -EINVAL;
    9e34:	f06f 0015 	mvn.w	r0, #21
    9e38:	e7fb      	b.n	9e32 <onoff_manager_init+0x1e>

00009e3a <arch_printk_char_out>:
}
    9e3a:	2000      	movs	r0, #0
    9e3c:	4770      	bx	lr

00009e3e <printk>:
 *
 * @return N/A
 */

void printk(const char *fmt, ...)
{
    9e3e:	b40f      	push	{r0, r1, r2, r3}
    9e40:	b507      	push	{r0, r1, r2, lr}
    9e42:	a904      	add	r1, sp, #16
    9e44:	f851 0b04 	ldr.w	r0, [r1], #4
	va_list ap;

	va_start(ap, fmt);
    9e48:	9101      	str	r1, [sp, #4]

	if (IS_ENABLED(CONFIG_LOG_PRINTK)) {
		log_printk(fmt, ap);
	} else {
		vprintk(fmt, ap);
    9e4a:	f7f9 f9d1 	bl	31f0 <vprintk>
	}
	va_end(ap);
}
    9e4e:	b003      	add	sp, #12
    9e50:	f85d eb04 	ldr.w	lr, [sp], #4
    9e54:	b004      	add	sp, #16
    9e56:	4770      	bx	lr

00009e58 <pm_policy_next_state>:
		}
	}

error:
	LOG_DBG("No suitable power state found for cpu: %d!", cpu);
	return (struct pm_state_info){PM_STATE_ACTIVE, 0, 0};
    9e58:	2200      	movs	r2, #0
    9e5a:	e9c0 2200 	strd	r2, r2, [r0]
    9e5e:	6082      	str	r2, [r0, #8]
}
    9e60:	4770      	bx	lr

00009e62 <z_thread_entry>:
 * This routine does not return, and is marked as such so the compiler won't
 * generate preamble code that is only used by functions that actually return.
 */
FUNC_NORETURN void z_thread_entry(k_thread_entry_t entry,
				 void *p1, void *p2, void *p3)
{
    9e62:	4604      	mov	r4, r0
    9e64:	b508      	push	{r3, lr}
    9e66:	4608      	mov	r0, r1
    9e68:	4611      	mov	r1, r2
#ifdef CONFIG_THREAD_LOCAL_STORAGE
	z_tls_current = z_current_get();
#endif
	entry(p1, p2, p3);
    9e6a:	461a      	mov	r2, r3
    9e6c:	47a0      	blx	r4
	return z_impl_z_current_get();
    9e6e:	f7fe fa9d 	bl	83ac <z_impl_z_current_get>
	z_impl_k_thread_abort(thread);
    9e72:	f7f9 fd27 	bl	38c4 <z_impl_k_thread_abort>

00009e76 <z_impl_uart_irq_tx_disable>:
	if (api->irq_tx_disable != NULL) {
    9e76:	6883      	ldr	r3, [r0, #8]
    9e78:	6b9b      	ldr	r3, [r3, #56]	; 0x38
    9e7a:	b103      	cbz	r3, 9e7e <z_impl_uart_irq_tx_disable+0x8>
		api->irq_tx_disable(dev);
    9e7c:	4718      	bx	r3
}
    9e7e:	4770      	bx	lr

00009e80 <tty_putchar>:
{
    9e80:	e92d 4370 	stmdb	sp!, {r4, r5, r6, r8, r9, lr}
    9e84:	4604      	mov	r4, r0
    9e86:	460d      	mov	r5, r1
	res = k_sem_take(&tty->tx_sem,
    9e88:	f100 062c 	add.w	r6, r0, #44	; 0x2c
			 k_is_in_isr() ? K_NO_WAIT :
    9e8c:	f000 fef0 	bl	ac70 <k_is_in_isr>
	res = k_sem_take(&tty->tx_sem,
    9e90:	bba8      	cbnz	r0, 9efe <tty_putchar+0x7e>
					 SYS_TIMEOUT_MS(tty->tx_timeout));
    9e92:	6d21      	ldr	r1, [r4, #80]	; 0x50
	res = k_sem_take(&tty->tx_sem,
    9e94:	1c4b      	adds	r3, r1, #1
    9e96:	d035      	beq.n	9f04 <tty_putchar+0x84>
					 SYS_TIMEOUT_MS(tty->tx_timeout));
    9e98:	ea21 71e1 	bic.w	r1, r1, r1, asr #31
    9e9c:	f44f 4000 	mov.w	r0, #32768	; 0x8000
    9ea0:	f240 38e7 	movw	r8, #999	; 0x3e7
    9ea4:	f04f 0900 	mov.w	r9, #0
    9ea8:	fbc0 8901 	smlal	r8, r9, r0, r1
    9eac:	f44f 727a 	mov.w	r2, #1000	; 0x3e8
    9eb0:	2300      	movs	r3, #0
    9eb2:	4640      	mov	r0, r8
    9eb4:	4649      	mov	r1, r9
    9eb6:	f7f6 ffb7 	bl	e28 <__aeabi_uldivmod>
    9eba:	4602      	mov	r2, r0
    9ebc:	460b      	mov	r3, r1
	return z_impl_k_sem_take(sem, timeout);
    9ebe:	4630      	mov	r0, r6
    9ec0:	f7fe fbec 	bl	869c <z_impl_k_sem_take>
	if (res < 0) {
    9ec4:	2800      	cmp	r0, #0
    9ec6:	db18      	blt.n	9efa <tty_putchar+0x7a>
	__asm__ volatile(
    9ec8:	f04f 0320 	mov.w	r3, #32
    9ecc:	f3ef 8211 	mrs	r2, BASEPRI
    9ed0:	f383 8812 	msr	BASEPRI_MAX, r3
    9ed4:	f3bf 8f6f 	isb	sy
	tx_next = tty->tx_put + 1;
    9ed8:	f8b4 104e 	ldrh.w	r1, [r4, #78]	; 0x4e
	if (tx_next >= tty->tx_ringbuf_sz) {
    9edc:	6ca0      	ldr	r0, [r4, #72]	; 0x48
	tx_next = tty->tx_put + 1;
    9ede:	1c4b      	adds	r3, r1, #1
		tx_next = 0;
    9ee0:	4298      	cmp	r0, r3
    9ee2:	bf98      	it	ls
    9ee4:	2300      	movls	r3, #0
	if (tx_next == tty->tx_get) {
    9ee6:	f8b4 004c 	ldrh.w	r0, [r4, #76]	; 0x4c
    9eea:	4298      	cmp	r0, r3
    9eec:	d10d      	bne.n	9f0a <tty_putchar+0x8a>
	__asm__ volatile(
    9eee:	f382 8811 	msr	BASEPRI, r2
    9ef2:	f3bf 8f6f 	isb	sy
		return -ENOSPC;
    9ef6:	f06f 001b 	mvn.w	r0, #27
}
    9efa:	e8bd 8370 	ldmia.w	sp!, {r4, r5, r6, r8, r9, pc}
	res = k_sem_take(&tty->tx_sem,
    9efe:	2200      	movs	r2, #0
    9f00:	4613      	mov	r3, r2
    9f02:	e7dc      	b.n	9ebe <tty_putchar+0x3e>
    9f04:	f04f 32ff 	mov.w	r2, #4294967295
    9f08:	e7fa      	b.n	9f00 <tty_putchar+0x80>
	tty->tx_ringbuf[tty->tx_put] = c;
    9f0a:	6c60      	ldr	r0, [r4, #68]	; 0x44
    9f0c:	5445      	strb	r5, [r0, r1]
	tty->tx_put = tx_next;
    9f0e:	f8a4 304e 	strh.w	r3, [r4, #78]	; 0x4e
    9f12:	f382 8811 	msr	BASEPRI, r2
    9f16:	f3bf 8f6f 	isb	sy
	uart_irq_tx_enable(tty->uart_dev);
    9f1a:	6820      	ldr	r0, [r4, #0]
	if (api->irq_tx_enable != NULL) {
    9f1c:	6883      	ldr	r3, [r0, #8]
    9f1e:	6b5b      	ldr	r3, [r3, #52]	; 0x34
    9f20:	b113      	cbz	r3, 9f28 <tty_putchar+0xa8>
		api->irq_tx_enable(dev);
    9f22:	4798      	blx	r3
	return 0;
    9f24:	2000      	movs	r0, #0
    9f26:	e7e8      	b.n	9efa <tty_putchar+0x7a>
    9f28:	4618      	mov	r0, r3
    9f2a:	e7e6      	b.n	9efa <tty_putchar+0x7a>

00009f2c <tty_uart_isr>:
{
    9f2c:	b573      	push	{r0, r1, r4, r5, r6, lr}
    9f2e:	4605      	mov	r5, r0
    9f30:	460c      	mov	r4, r1
	if (api->irq_update == NULL) {
    9f32:	6883      	ldr	r3, [r0, #8]
    9f34:	6ddb      	ldr	r3, [r3, #92]	; 0x5c
    9f36:	b103      	cbz	r3, 9f3a <tty_uart_isr+0xe>
	return api->irq_update(dev);
    9f38:	4798      	blx	r3
	if (api->irq_rx_ready == NULL) {
    9f3a:	68ab      	ldr	r3, [r5, #8]
    9f3c:	6cdb      	ldr	r3, [r3, #76]	; 0x4c
    9f3e:	b98b      	cbnz	r3, 9f64 <tty_uart_isr+0x38>
	k_sem_give(&tty->rx_sem);
    9f40:	1d26      	adds	r6, r4, #4
	if (api->fifo_read == NULL) {
    9f42:	68ab      	ldr	r3, [r5, #8]
    9f44:	6b1b      	ldr	r3, [r3, #48]	; 0x30
    9f46:	b9f3      	cbnz	r3, 9f86 <tty_uart_isr+0x5a>
	int rx_next = tty->rx_put + 1;
    9f48:	8ce2      	ldrh	r2, [r4, #38]	; 0x26
	if (rx_next >= tty->rx_ringbuf_sz) {
    9f4a:	6a21      	ldr	r1, [r4, #32]
	int rx_next = tty->rx_put + 1;
    9f4c:	1c53      	adds	r3, r2, #1
		rx_next = 0;
    9f4e:	4299      	cmp	r1, r3
    9f50:	bf98      	it	ls
    9f52:	2300      	movls	r3, #0
	if (rx_next == tty->rx_get) {
    9f54:	8ca1      	ldrh	r1, [r4, #36]	; 0x24
    9f56:	4299      	cmp	r1, r3
    9f58:	d11d      	bne.n	9f96 <tty_uart_isr+0x6a>
		tty_putchar(tty, '~');
    9f5a:	217e      	movs	r1, #126	; 0x7e
    9f5c:	4620      	mov	r0, r4
    9f5e:	f7ff ff8f 	bl	9e80 <tty_putchar>
		return 1;
    9f62:	e7ee      	b.n	9f42 <tty_uart_isr+0x16>
	return api->irq_rx_ready(dev);
    9f64:	4628      	mov	r0, r5
    9f66:	4798      	blx	r3
	if (uart_irq_rx_ready(dev)) {
    9f68:	2800      	cmp	r0, #0
    9f6a:	d1e9      	bne.n	9f40 <tty_uart_isr+0x14>
	if (api->irq_tx_ready == NULL) {
    9f6c:	68ab      	ldr	r3, [r5, #8]
    9f6e:	6bdb      	ldr	r3, [r3, #60]	; 0x3c
    9f70:	b9d3      	cbnz	r3, 9fa8 <tty_uart_isr+0x7c>
		if (tty->tx_get == tty->tx_put) {
    9f72:	f8b4 304c 	ldrh.w	r3, [r4, #76]	; 0x4c
    9f76:	f8b4 204e 	ldrh.w	r2, [r4, #78]	; 0x4e
    9f7a:	429a      	cmp	r2, r3
    9f7c:	d11a      	bne.n	9fb4 <tty_uart_isr+0x88>
		arch_syscall_invoke1(*(uintptr_t *)&dev, K_SYSCALL_UART_IRQ_TX_DISABLE);
		return;
	}
#endif
	compiler_barrier();
	z_impl_uart_irq_tx_disable(dev);
    9f7e:	4628      	mov	r0, r5
    9f80:	f7ff ff79 	bl	9e76 <z_impl_uart_irq_tx_disable>
}
    9f84:	e014      	b.n	9fb0 <tty_uart_isr+0x84>
	return api->fifo_read(dev, rx_data, size);
    9f86:	2201      	movs	r2, #1
    9f88:	f10d 0107 	add.w	r1, sp, #7
    9f8c:	4628      	mov	r0, r5
    9f8e:	4798      	blx	r3
			if (uart_fifo_read(dev, &c, 1) == 0) {
    9f90:	2800      	cmp	r0, #0
    9f92:	d1d9      	bne.n	9f48 <tty_uart_isr+0x1c>
    9f94:	e7ea      	b.n	9f6c <tty_uart_isr+0x40>
	tty->rx_ringbuf[tty->rx_put] = c;
    9f96:	69e1      	ldr	r1, [r4, #28]
			tty_irq_input_hook(tty, c);
    9f98:	f89d 0007 	ldrb.w	r0, [sp, #7]
	tty->rx_ringbuf[tty->rx_put] = c;
    9f9c:	5488      	strb	r0, [r1, r2]
	tty->rx_put = rx_next;
    9f9e:	84e3      	strh	r3, [r4, #38]	; 0x26
	z_impl_k_sem_give(sem);
    9fa0:	4630      	mov	r0, r6
    9fa2:	f7fe fb37 	bl	8614 <z_impl_k_sem_give>
}
    9fa6:	e7cc      	b.n	9f42 <tty_uart_isr+0x16>
	return api->irq_tx_ready(dev);
    9fa8:	4628      	mov	r0, r5
    9faa:	4798      	blx	r3
	if (uart_irq_tx_ready(dev)) {
    9fac:	2800      	cmp	r0, #0
    9fae:	d1e0      	bne.n	9f72 <tty_uart_isr+0x46>
}
    9fb0:	b002      	add	sp, #8
    9fb2:	bd70      	pop	{r4, r5, r6, pc}
			uart_fifo_fill(dev, &tty->tx_ringbuf[tty->tx_get++], 1);
    9fb4:	6c61      	ldr	r1, [r4, #68]	; 0x44
    9fb6:	1c5a      	adds	r2, r3, #1
    9fb8:	4419      	add	r1, r3
	if (api->fifo_fill == NULL) {
    9fba:	68ab      	ldr	r3, [r5, #8]
    9fbc:	f8a4 204c 	strh.w	r2, [r4, #76]	; 0x4c
    9fc0:	6adb      	ldr	r3, [r3, #44]	; 0x2c
    9fc2:	b113      	cbz	r3, 9fca <tty_uart_isr+0x9e>
	return api->fifo_fill(dev, tx_data, size);
    9fc4:	2201      	movs	r2, #1
    9fc6:	4628      	mov	r0, r5
    9fc8:	4798      	blx	r3
			if (tty->tx_get >= tty->tx_ringbuf_sz) {
    9fca:	6ca3      	ldr	r3, [r4, #72]	; 0x48
    9fcc:	f8b4 204c 	ldrh.w	r2, [r4, #76]	; 0x4c
    9fd0:	429a      	cmp	r2, r3
				tty->tx_get = 0U;
    9fd2:	bf24      	itt	cs
    9fd4:	2300      	movcs	r3, #0
    9fd6:	f8a4 304c 	strhcs.w	r3, [r4, #76]	; 0x4c
	z_impl_k_sem_give(sem);
    9fda:	f104 002c 	add.w	r0, r4, #44	; 0x2c
    9fde:	f7fe fb19 	bl	8614 <z_impl_k_sem_give>
}
    9fe2:	e7e5      	b.n	9fb0 <tty_uart_isr+0x84>

00009fe4 <tty_write>:
	if (tty->tx_ringbuf_sz == 0U) {
    9fe4:	6c83      	ldr	r3, [r0, #72]	; 0x48
{
    9fe6:	e92d 41f0 	stmdb	sp!, {r4, r5, r6, r7, r8, lr}
    9fea:	4680      	mov	r8, r0
    9fec:	460e      	mov	r6, r1
    9fee:	4617      	mov	r7, r2
	if (tty->tx_ringbuf_sz == 0U) {
    9ff0:	b9fb      	cbnz	r3, a032 <tty_write+0x4e>
    9ff2:	188c      	adds	r4, r1, r2
		while (size--) {
    9ff4:	42b4      	cmp	r4, r6
    9ff6:	d103      	bne.n	a000 <tty_write+0x1c>
		return out_size;
    9ff8:	463c      	mov	r4, r7
}
    9ffa:	4620      	mov	r0, r4
    9ffc:	e8bd 81f0 	ldmia.w	sp!, {r4, r5, r6, r7, r8, pc}
			uart_poll_out(tty->uart_dev, *p++);
    a000:	f8d8 0000 	ldr.w	r0, [r8]
    a004:	f816 1b01 	ldrb.w	r1, [r6], #1
	api->poll_out(dev, out_char);
    a008:	6883      	ldr	r3, [r0, #8]
    a00a:	69db      	ldr	r3, [r3, #28]
    a00c:	4798      	blx	r3
}
    a00e:	e7f1      	b.n	9ff4 <tty_write+0x10>
		res = tty_putchar(tty, *p++);
    a010:	5d71      	ldrb	r1, [r6, r5]
    a012:	4640      	mov	r0, r8
    a014:	f7ff ff34 	bl	9e80 <tty_putchar>
		if (res < 0) {
    a018:	1e04      	subs	r4, r0, #0
    a01a:	da05      	bge.n	a028 <tty_write+0x44>
			if (out_size == 0) {
    a01c:	b93d      	cbnz	r5, a02e <tty_write+0x4a>
		/* coverity[OVERRUN] */
		return (int *) arch_syscall_invoke0(K_SYSCALL_Z_ERRNO);
	}
#endif
	compiler_barrier();
	return z_impl_z_errno();
    a01e:	f7fc fbff 	bl	6820 <z_impl_z_errno>
				errno = -res;
    a022:	4263      	negs	r3, r4
    a024:	6003      	str	r3, [r0, #0]
				return res;
    a026:	e7e8      	b.n	9ffa <tty_write+0x16>
		out_size++;
    a028:	3501      	adds	r5, #1
	while (size--) {
    a02a:	42bd      	cmp	r5, r7
    a02c:	d1f0      	bne.n	a010 <tty_write+0x2c>
	return out_size;
    a02e:	462c      	mov	r4, r5
    a030:	e7e3      	b.n	9ffa <tty_write+0x16>
	size_t out_size = 0;
    a032:	2500      	movs	r5, #0
    a034:	e7f9      	b.n	a02a <tty_write+0x46>

0000a036 <tty_read>:
{
    a036:	e92d 4ff0 	stmdb	sp!, {r4, r5, r6, r7, r8, r9, sl, fp, lr}
	if (tty->rx_ringbuf_sz == 0U) {
    a03a:	6a04      	ldr	r4, [r0, #32]
{
    a03c:	b085      	sub	sp, #20
    a03e:	4605      	mov	r5, r0
    a040:	460e      	mov	r6, r1
    a042:	4617      	mov	r7, r2
	if (tty->rx_ringbuf_sz == 0U) {
    a044:	2c00      	cmp	r4, #0
    a046:	d175      	bne.n	a134 <tty_read+0xfe>
	uint32_t timeout = tty->rx_timeout;
    a048:	f8d0 9028 	ldr.w	r9, [r0, #40]	; 0x28
	while (size) {
    a04c:	b18f      	cbz	r7, a072 <tty_read+0x3c>
		res = uart_poll_in(tty->uart_dev, &c);
    a04e:	6828      	ldr	r0, [r5, #0]
	if (api->poll_in == NULL) {
    a050:	6883      	ldr	r3, [r0, #8]
    a052:	699b      	ldr	r3, [r3, #24]
    a054:	b18b      	cbz	r3, a07a <tty_read+0x44>
	return api->poll_in(dev, p_char);
    a056:	f10d 010f 	add.w	r1, sp, #15
    a05a:	4798      	blx	r3
		if (res <= -2) {
    a05c:	f1b0 3fff 	cmp.w	r0, #4294967295
    a060:	4680      	mov	r8, r0
    a062:	da0d      	bge.n	a080 <tty_read+0x4a>
			if (out_size == 0) {
    a064:	b92c      	cbnz	r4, a072 <tty_read+0x3c>
    a066:	f7fc fbdb 	bl	6820 <z_impl_z_errno>
				return -1;
    a06a:	f04f 34ff 	mov.w	r4, #4294967295
				errno = res;
    a06e:	f8c0 8000 	str.w	r8, [r0]
}
    a072:	4620      	mov	r0, r4
    a074:	b005      	add	sp, #20
    a076:	e8bd 8ff0 	ldmia.w	sp!, {r4, r5, r6, r7, r8, r9, sl, fp, pc}
		return -ENOSYS;
    a07a:	f06f 0857 	mvn.w	r8, #87	; 0x57
    a07e:	e7f1      	b.n	a064 <tty_read+0x2e>
		if (res == 0) {
    a080:	b958      	cbnz	r0, a09a <tty_read+0x64>
			*p++ = c;
    a082:	f89d 300f 	ldrb.w	r3, [sp, #15]
    a086:	f806 3b01 	strb.w	r3, [r6], #1
		if (size == 0 ||
    a08a:	3f01      	subs	r7, #1
			out_size++;
    a08c:	f104 0401 	add.w	r4, r4, #1
		if (size == 0 ||
    a090:	d0ef      	beq.n	a072 <tty_read+0x3c>
    a092:	f1b9 3fff 	cmp.w	r9, #4294967295
    a096:	d103      	bne.n	a0a0 <tty_read+0x6a>
    a098:	e7d8      	b.n	a04c <tty_read+0x16>
    a09a:	f1b9 3fff 	cmp.w	r9, #4294967295
    a09e:	d005      	beq.n	a0ac <tty_read+0x76>
		    ((timeout != SYS_FOREVER_MS) && timeout-- == 0U)) {
    a0a0:	f109 33ff 	add.w	r3, r9, #4294967295
    a0a4:	f1b9 0f00 	cmp.w	r9, #0
    a0a8:	d0e3      	beq.n	a072 <tty_read+0x3c>
    a0aa:	4699      	mov	r9, r3
		if (res == -1) {
    a0ac:	f1b8 3fff 	cmp.w	r8, #4294967295
    a0b0:	d1cc      	bne.n	a04c <tty_read+0x16>
	return z_impl_k_sleep(timeout);
    a0b2:	2100      	movs	r1, #0
    a0b4:	2021      	movs	r0, #33	; 0x21
    a0b6:	f7fe f941 	bl	833c <z_impl_k_sleep>
    a0ba:	e7c7      	b.n	a04c <tty_read+0x16>
	res = k_sem_take(&tty->rx_sem, SYS_TIMEOUT_MS(tty->rx_timeout));
    a0bc:	6aa9      	ldr	r1, [r5, #40]	; 0x28
    a0be:	1c4b      	adds	r3, r1, #1
    a0c0:	d034      	beq.n	a12c <tty_read+0xf6>
    a0c2:	ea21 71e1 	bic.w	r1, r1, r1, asr #31
    a0c6:	f44f 4000 	mov.w	r0, #32768	; 0x8000
    a0ca:	46c3      	mov	fp, r8
    a0cc:	46cc      	mov	ip, r9
    a0ce:	fbc0 bc01 	smlal	fp, ip, r0, r1
    a0d2:	f44f 727a 	mov.w	r2, #1000	; 0x3e8
    a0d6:	2300      	movs	r3, #0
    a0d8:	4658      	mov	r0, fp
    a0da:	4661      	mov	r1, ip
    a0dc:	f7f6 fea4 	bl	e28 <__aeabi_uldivmod>
    a0e0:	4602      	mov	r2, r0
    a0e2:	460b      	mov	r3, r1
	return z_impl_k_sem_take(sem, timeout);
    a0e4:	9801      	ldr	r0, [sp, #4]
    a0e6:	f7fe fad9 	bl	869c <z_impl_k_sem_take>
	if (res < 0) {
    a0ea:	1e04      	subs	r4, r0, #0
    a0ec:	db2b      	blt.n	a146 <tty_read+0x110>
	__asm__ volatile(
    a0ee:	f04f 0320 	mov.w	r3, #32
    a0f2:	f3ef 8011 	mrs	r0, BASEPRI
    a0f6:	f383 8812 	msr	BASEPRI_MAX, r3
    a0fa:	f3bf 8f6f 	isb	sy
	c = tty->rx_ringbuf[tty->rx_get++];
    a0fe:	8caa      	ldrh	r2, [r5, #36]	; 0x24
    a100:	69e9      	ldr	r1, [r5, #28]
    a102:	1c53      	adds	r3, r2, #1
    a104:	b29b      	uxth	r3, r3
    a106:	84ab      	strh	r3, [r5, #36]	; 0x24
    a108:	5c8a      	ldrb	r2, [r1, r2]
	if (tty->rx_get >= tty->rx_ringbuf_sz) {
    a10a:	6a29      	ldr	r1, [r5, #32]
    a10c:	428b      	cmp	r3, r1
		tty->rx_get = 0U;
    a10e:	bf24      	itt	cs
    a110:	2300      	movcs	r3, #0
    a112:	84ab      	strhcs	r3, [r5, #36]	; 0x24
	__asm__ volatile(
    a114:	f380 8811 	msr	BASEPRI, r0
    a118:	f3bf 8f6f 	isb	sy
		*p++ = (uint8_t)res;
    a11c:	f806 200a 	strb.w	r2, [r6, sl]
		out_size++;
    a120:	f10a 0a01 	add.w	sl, sl, #1
	while (size--) {
    a124:	45ba      	cmp	sl, r7
    a126:	d1c9      	bne.n	a0bc <tty_read+0x86>
	return out_size;
    a128:	4654      	mov	r4, sl
    a12a:	e7a2      	b.n	a072 <tty_read+0x3c>
	res = k_sem_take(&tty->rx_sem, SYS_TIMEOUT_MS(tty->rx_timeout));
    a12c:	f04f 32ff 	mov.w	r2, #4294967295
    a130:	4613      	mov	r3, r2
    a132:	e7d7      	b.n	a0e4 <tty_read+0xae>
    a134:	1d03      	adds	r3, r0, #4
	size_t out_size = 0;
    a136:	f04f 0a00 	mov.w	sl, #0
	res = k_sem_take(&tty->rx_sem, SYS_TIMEOUT_MS(tty->rx_timeout));
    a13a:	9301      	str	r3, [sp, #4]
    a13c:	f240 38e7 	movw	r8, #999	; 0x3e7
    a140:	f04f 0900 	mov.w	r9, #0
    a144:	e7ee      	b.n	a124 <tty_read+0xee>
			if (out_size == 0) {
    a146:	f1ba 0f00 	cmp.w	sl, #0
    a14a:	d1ed      	bne.n	a128 <tty_read+0xf2>
    a14c:	f7fc fb68 	bl	6820 <z_impl_z_errno>
				errno = -res;
    a150:	4263      	negs	r3, r4
    a152:	6003      	str	r3, [r0, #0]
				return res;
    a154:	e78d      	b.n	a072 <tty_read+0x3c>

0000a156 <tty_set_rx_buf>:

int tty_set_rx_buf(struct tty_serial *tty, void *buf, size_t size)
{
    a156:	b570      	push	{r4, r5, r6, lr}
    a158:	4604      	mov	r4, r0
    a15a:	460e      	mov	r6, r1
	uart_irq_rx_disable(tty->uart_dev);
    a15c:	6800      	ldr	r0, [r0, #0]
{
    a15e:	4615      	mov	r5, r2
	if (api->irq_rx_disable != NULL) {
    a160:	6883      	ldr	r3, [r0, #8]
    a162:	6c5b      	ldr	r3, [r3, #68]	; 0x44
    a164:	b103      	cbz	r3, a168 <tty_set_rx_buf+0x12>
		api->irq_rx_disable(dev);
    a166:	4798      	blx	r3

	tty->rx_ringbuf = buf;
	tty->rx_ringbuf_sz = size;
    a168:	e9c4 6507 	strd	r6, r5, [r4, #28]

	if (size > 0) {
    a16c:	b155      	cbz	r5, a184 <tty_set_rx_buf+0x2e>
	return z_impl_k_sem_init(sem, initial_count, limit);
    a16e:	f04f 32ff 	mov.w	r2, #4294967295
    a172:	2100      	movs	r1, #0
    a174:	1d20      	adds	r0, r4, #4
    a176:	f000 fd6b 	bl	ac50 <z_impl_k_sem_init>
		k_sem_init(&tty->rx_sem, 0, K_SEM_MAX_LIMIT);
		uart_irq_rx_enable(tty->uart_dev);
    a17a:	6820      	ldr	r0, [r4, #0]
	if (api->irq_rx_enable != NULL) {
    a17c:	6883      	ldr	r3, [r0, #8]
    a17e:	6c1b      	ldr	r3, [r3, #64]	; 0x40
    a180:	b103      	cbz	r3, a184 <tty_set_rx_buf+0x2e>
		api->irq_rx_enable(dev);
    a182:	4798      	blx	r3
	}

	return 0;
}
    a184:	2000      	movs	r0, #0
    a186:	bd70      	pop	{r4, r5, r6, pc}

0000a188 <tty_set_tx_buf>:

int tty_set_tx_buf(struct tty_serial *tty, void *buf, size_t size)
{
    a188:	b570      	push	{r4, r5, r6, lr}
    a18a:	4604      	mov	r4, r0
    a18c:	460e      	mov	r6, r1
    a18e:	4615      	mov	r5, r2
	uart_irq_tx_disable(tty->uart_dev);
    a190:	6800      	ldr	r0, [r0, #0]
	z_impl_uart_irq_tx_disable(dev);
    a192:	f7ff fe70 	bl	9e76 <z_impl_uart_irq_tx_disable>

	tty->tx_ringbuf = buf;
	tty->tx_ringbuf_sz = size;
    a196:	e9c4 6511 	strd	r6, r5, [r4, #68]	; 0x44
    a19a:	f04f 32ff 	mov.w	r2, #4294967295
    a19e:	18a9      	adds	r1, r5, r2
    a1a0:	f104 002c 	add.w	r0, r4, #44	; 0x2c
    a1a4:	f000 fd54 	bl	ac50 <z_impl_k_sem_init>
	/* New buffer is initially empty, no need to re-enable interrupts,
	 * it will be done when needed (on first output char).
	 */

	return 0;
}
    a1a8:	2000      	movs	r0, #0
    a1aa:	bd70      	pop	{r4, r5, r6, pc}

0000a1ac <z_arm_fatal_error>:
{

	if (esf != NULL) {
		esf_dump(esf);
	}
	z_fatal_error(reason, esf);
    a1ac:	f7fc bb3e 	b.w	682c <z_fatal_error>

0000a1b0 <z_do_kernel_oops>:
 *   fault handler will executed insted of the SVC.
 *
 * @param esf exception frame
 */
void z_do_kernel_oops(const z_arch_esf_t *esf)
{
    a1b0:	4601      	mov	r1, r0
	z_fatal_error(reason, esf);
    a1b2:	6800      	ldr	r0, [r0, #0]
    a1b4:	f7fc bb3a 	b.w	682c <z_fatal_error>

0000a1b8 <z_irq_spurious>:
 */
void z_irq_spurious(const void *unused)
{
	ARG_UNUSED(unused);

	z_arm_fatal_error(K_ERR_SPURIOUS_IRQ, NULL);
    a1b8:	2100      	movs	r1, #0
    a1ba:	2001      	movs	r0, #1
    a1bc:	f7ff bff6 	b.w	a1ac <z_arm_fatal_error>

0000a1c0 <z_arm_nmi>:
 *
 * @return N/A
 */

void z_arm_nmi(void)
{
    a1c0:	b508      	push	{r3, lr}
	handler();
    a1c2:	f7f9 f895 	bl	32f0 <z_SysNmiOnReset>
	z_arm_int_exit();
}
    a1c6:	e8bd 4008 	ldmia.w	sp!, {r3, lr}
	z_arm_int_exit();
    a1ca:	f7f9 b9a3 	b.w	3514 <z_arm_exc_exit>

0000a1ce <_stdout_hook_default>:
}
    a1ce:	f04f 30ff 	mov.w	r0, #4294967295
    a1d2:	4770      	bx	lr

0000a1d4 <fputc>:
		/* coverity[OVERRUN] */
		return (int) arch_syscall_invoke2(*(uintptr_t *)&c, *(uintptr_t *)&stream, K_SYSCALL_ZEPHYR_FPUTC);
	}
#endif
	compiler_barrier();
	return z_impl_zephyr_fputc(c, stream);
    a1d4:	f7f9 bcc6 	b.w	3b64 <z_impl_zephyr_fputc>

0000a1d8 <strlen>:
 *
 * @return number of bytes in string <s>
 */

size_t strlen(const char *s)
{
    a1d8:	4603      	mov	r3, r0
	size_t n = 0;
    a1da:	2000      	movs	r0, #0

	while (*s != '\0') {
    a1dc:	5c1a      	ldrb	r2, [r3, r0]
    a1de:	b902      	cbnz	r2, a1e2 <strlen+0xa>
		s++;
		n++;
	}

	return n;
}
    a1e0:	4770      	bx	lr
		n++;
    a1e2:	3001      	adds	r0, #1
    a1e4:	e7fa      	b.n	a1dc <strlen+0x4>

0000a1e6 <strnlen>:
 *
 * @return number of bytes in fixed-size string <s>
 */

size_t strnlen(const char *s, size_t maxlen)
{
    a1e6:	4603      	mov	r3, r0
	size_t n = 0;
    a1e8:	2000      	movs	r0, #0

	while (*s != '\0' && n < maxlen) {
    a1ea:	5c1a      	ldrb	r2, [r3, r0]
    a1ec:	b10a      	cbz	r2, a1f2 <strnlen+0xc>
    a1ee:	4288      	cmp	r0, r1
    a1f0:	d100      	bne.n	a1f4 <strnlen+0xe>
		s++;
		n++;
	}

	return n;
}
    a1f2:	4770      	bx	lr
		n++;
    a1f4:	3001      	adds	r0, #1
    a1f6:	e7f8      	b.n	a1ea <strnlen+0x4>

0000a1f8 <strcmp>:
 * @return negative # if <s1> < <s2>, 0 if <s1> == <s2>, else positive #
 */

int strcmp(const char *s1, const char *s2)
{
	while ((*s1 == *s2) && (*s1 != '\0')) {
    a1f8:	1e43      	subs	r3, r0, #1
    a1fa:	3901      	subs	r1, #1
    a1fc:	f813 2f01 	ldrb.w	r2, [r3, #1]!
    a200:	f811 0f01 	ldrb.w	r0, [r1, #1]!
    a204:	4282      	cmp	r2, r0
    a206:	d101      	bne.n	a20c <strcmp+0x14>
    a208:	2a00      	cmp	r2, #0
    a20a:	d1f7      	bne.n	a1fc <strcmp+0x4>
		s1++;
		s2++;
	}

	return *s1 - *s2;
}
    a20c:	1a10      	subs	r0, r2, r0
    a20e:	4770      	bx	lr

0000a210 <memcpy>:
 *
 * @return pointer to start of destination buffer
 */

void *memcpy(void *ZRESTRICT d, const void *ZRESTRICT s, size_t n)
{
    a210:	b510      	push	{r4, lr}
    a212:	1e43      	subs	r3, r0, #1
    a214:	440a      	add	r2, r1
	}
#endif

	/* do byte-sized copying until finished */

	while (n > 0) {
    a216:	4291      	cmp	r1, r2
    a218:	d100      	bne.n	a21c <memcpy+0xc>
		*(d_byte++) = *(s_byte++);
		n--;
	}

	return d;
}
    a21a:	bd10      	pop	{r4, pc}
		*(d_byte++) = *(s_byte++);
    a21c:	f811 4b01 	ldrb.w	r4, [r1], #1
    a220:	f803 4f01 	strb.w	r4, [r3, #1]!
		n--;
    a224:	e7f7      	b.n	a216 <memcpy+0x6>

0000a226 <memset>:
void *memset(void *buf, int c, size_t n)
{
	/* do byte-sized initialization until word-aligned or finished */

	unsigned char *d_byte = (unsigned char *)buf;
	unsigned char c_byte = (unsigned char)c;
    a226:	b2c9      	uxtb	r1, r1
	/* do byte-sized initialization until finished */

	d_byte = (unsigned char *)d_word;
#endif

	while (n > 0) {
    a228:	4402      	add	r2, r0
	unsigned char *d_byte = (unsigned char *)buf;
    a22a:	4603      	mov	r3, r0
	while (n > 0) {
    a22c:	4293      	cmp	r3, r2
    a22e:	d100      	bne.n	a232 <memset+0xc>
		*(d_byte++) = c_byte;
		n--;
	}

	return buf;
}
    a230:	4770      	bx	lr
		*(d_byte++) = c_byte;
    a232:	f803 1b01 	strb.w	r1, [r3], #1
		n--;
    a236:	e7f9      	b.n	a22c <memset+0x6>

0000a238 <pm_power_state_set>:
#include <logging/log.h>
LOG_MODULE_DECLARE(soc, CONFIG_SOC_LOG_LEVEL);

/* Invoke Low Power/System Off specific Tasks */
__weak void pm_power_state_set(struct pm_state_info info)
{
    a238:	b084      	sub	sp, #16
    a23a:	ab04      	add	r3, sp, #16
    a23c:	e903 0007 	stmdb	r3, {r0, r1, r2}
	switch (info.state) {
    a240:	f89d 3004 	ldrb.w	r3, [sp, #4]
    a244:	2b06      	cmp	r3, #6
    a246:	d108      	bne.n	a25a <pm_power_state_set+0x22>
    p_reg->SYSTEMOFF = POWER_SYSTEMOFF_SYSTEMOFF_Enter;
    a248:	f04f 4380 	mov.w	r3, #1073741824	; 0x40000000
    a24c:	2201      	movs	r2, #1
    a24e:	f8c3 2500 	str.w	r2, [r3, #1280]	; 0x500
  __ASM volatile ("dsb 0xF":::"memory");
    a252:	f3bf 8f4f 	dsb	sy
        __WFE();
    a256:	bf20      	wfe
    while (true)
    a258:	e7fd      	b.n	a256 <pm_power_state_set+0x1e>
		break;
	default:
		LOG_DBG("Unsupported power state %u", info.state);
		break;
	}
}
    a25a:	b004      	add	sp, #16
    a25c:	4770      	bx	lr

0000a25e <pm_power_state_exit_post_ops>:

/* Handle SOC specific activity after Low Power Mode Exit */
__weak void pm_power_state_exit_post_ops(struct pm_state_info info)
{
    a25e:	b084      	sub	sp, #16
    a260:	ab04      	add	r3, sp, #16
    a262:	e903 0007 	stmdb	r3, {r0, r1, r2}
    a266:	2300      	movs	r3, #0
    a268:	f383 8811 	msr	BASEPRI, r3
    a26c:	f3bf 8f6f 	isb	sy
	/*
	 * System is now in active mode. Reenable interrupts which were disabled
	 * when OS started idling code.
	 */
	irq_unlock(0);
}
    a270:	b004      	add	sp, #16
    a272:	4770      	bx	lr

0000a274 <adc_context_on_timer_expired>:
	return __atomic_fetch_add(target, value, __ATOMIC_SEQ_CST);
    a274:	f1a0 0308 	sub.w	r3, r0, #8
    a278:	f3bf 8f5b 	dmb	ish
    a27c:	e853 2f00 	ldrex	r2, [r3]
    a280:	1c51      	adds	r1, r2, #1
    a282:	e843 1c00 	strex	ip, r1, [r3]
    a286:	f1bc 0f00 	cmp.w	ip, #0
    a28a:	d1f7      	bne.n	a27c <adc_context_on_timer_expired+0x8>
    a28c:	f3bf 8f5b 	dmb	ish
	if (atomic_inc(&ctx->sampling_requested) == 0) {
    a290:	b91a      	cbnz	r2, a29a <adc_context_on_timer_expired+0x26>
		adc_context_start_sampling(ctx);
    a292:	f890 0086 	ldrb.w	r0, [r0, #134]	; 0x86
    a296:	f7f9 bcc3 	b.w	3c20 <adc_context_start_sampling.isra.0>
		ctx->status = -EBUSY;
    a29a:	f06f 030f 	mvn.w	r3, #15
    a29e:	6683      	str	r3, [r0, #104]	; 0x68
}
    a2a0:	4770      	bx	lr

0000a2a2 <set_starting_state>:
{
    a2a2:	b510      	push	{r4, lr}
	__asm__ volatile(
    a2a4:	f04f 0320 	mov.w	r3, #32
    a2a8:	f3ef 8211 	mrs	r2, BASEPRI
    a2ac:	f383 8812 	msr	BASEPRI_MAX, r3
    a2b0:	f3bf 8f6f 	isb	sy
	uint32_t current_ctx = GET_CTX(*flags);
    a2b4:	6803      	ldr	r3, [r0, #0]
	if ((*flags & (STATUS_MASK)) == CLOCK_CONTROL_STATUS_OFF) {
    a2b6:	f003 0407 	and.w	r4, r3, #7
    a2ba:	2c01      	cmp	r4, #1
    a2bc:	d106      	bne.n	a2cc <set_starting_state+0x2a>
		*flags = CLOCK_CONTROL_STATUS_STARTING | ctx;
    a2be:	6001      	str	r1, [r0, #0]
	int err = 0;
    a2c0:	2000      	movs	r0, #0
	__asm__ volatile(
    a2c2:	f382 8811 	msr	BASEPRI, r2
    a2c6:	f3bf 8f6f 	isb	sy
}
    a2ca:	bd10      	pop	{r4, pc}
	uint32_t current_ctx = GET_CTX(*flags);
    a2cc:	f003 03c0 	and.w	r3, r3, #192	; 0xc0
	} else if (current_ctx != ctx) {
    a2d0:	428b      	cmp	r3, r1
		err = -EALREADY;
    a2d2:	bf14      	ite	ne
    a2d4:	f04f 30ff 	movne.w	r0, #4294967295
    a2d8:	f06f 0077 	mvneq.w	r0, #119	; 0x77
    a2dc:	e7f1      	b.n	a2c2 <set_starting_state+0x20>

0000a2de <set_on_state>:
	__asm__ volatile(
    a2de:	f04f 0320 	mov.w	r3, #32
    a2e2:	f3ef 8211 	mrs	r2, BASEPRI
    a2e6:	f383 8812 	msr	BASEPRI_MAX, r3
    a2ea:	f3bf 8f6f 	isb	sy
	*flags = CLOCK_CONTROL_STATUS_ON | GET_CTX(*flags);
    a2ee:	6803      	ldr	r3, [r0, #0]
    a2f0:	f003 03c0 	and.w	r3, r3, #192	; 0xc0
    a2f4:	f043 0302 	orr.w	r3, r3, #2
    a2f8:	6003      	str	r3, [r0, #0]
	__asm__ volatile(
    a2fa:	f382 8811 	msr	BASEPRI, r2
    a2fe:	f3bf 8f6f 	isb	sy
}
    a302:	4770      	bx	lr

0000a304 <onoff_started_callback>:
	return &data->mgr[type];
    a304:	6900      	ldr	r0, [r0, #16]
    a306:	b2cb      	uxtb	r3, r1
	notify(mgr, 0);
    a308:	eb00 1043 	add.w	r0, r0, r3, lsl #5
    a30c:	2100      	movs	r1, #0
    a30e:	4710      	bx	r2

0000a310 <lfclk_start>:
    nrfx_clock_start(NRF_CLOCK_DOMAIN_LFCLK);
    a310:	2000      	movs	r0, #0
    a312:	f7fb b9bb 	b.w	568c <nrfx_clock_start>

0000a316 <lfclk_stop>:
    nrfx_clock_stop(NRF_CLOCK_DOMAIN_LFCLK);
    a316:	2000      	movs	r0, #0
    a318:	f7fb ba0c 	b.w	5734 <nrfx_clock_stop>

0000a31c <api_stop>:
	return stop(dev, subsys, CTX_API);
    a31c:	2280      	movs	r2, #128	; 0x80
    a31e:	f7f9 bee5 	b.w	40ec <stop>

0000a322 <blocking_start_callback>:
{
    a322:	4610      	mov	r0, r2
	z_impl_k_sem_give(sem);
    a324:	f7fe b976 	b.w	8614 <z_impl_k_sem_give>

0000a328 <api_start>:
{
    a328:	e92d 43f8 	stmdb	sp!, {r3, r4, r5, r6, r7, r8, r9, lr}
    a32c:	b2cd      	uxtb	r5, r1
	err = set_starting_state(&subdata->flags, ctx);
    a32e:	270c      	movs	r7, #12
	struct nrf_clock_control_sub_data *subdata = get_sub_data(dev, type);
    a330:	6904      	ldr	r4, [r0, #16]
	err = set_starting_state(&subdata->flags, ctx);
    a332:	436f      	muls	r7, r5
{
    a334:	4606      	mov	r6, r0
	err = set_starting_state(&subdata->flags, ctx);
    a336:	f107 0048 	add.w	r0, r7, #72	; 0x48
    a33a:	2180      	movs	r1, #128	; 0x80
    a33c:	4420      	add	r0, r4
{
    a33e:	4690      	mov	r8, r2
    a340:	4699      	mov	r9, r3
	err = set_starting_state(&subdata->flags, ctx);
    a342:	f7ff ffae 	bl	a2a2 <set_starting_state>
	if (err < 0) {
    a346:	2800      	cmp	r0, #0
    a348:	db07      	blt.n	a35a <api_start+0x32>
	subdata->cb = cb;
    a34a:	443c      	add	r4, r7
	subdata->user_data = user_data;
    a34c:	e9c4 8910 	strd	r8, r9, [r4, #64]	; 0x40
	 get_sub_config(dev, type)->start();
    a350:	6873      	ldr	r3, [r6, #4]
    a352:	f853 3035 	ldr.w	r3, [r3, r5, lsl #3]
    a356:	4798      	blx	r3
	return 0;
    a358:	2000      	movs	r0, #0
}
    a35a:	e8bd 83f8 	ldmia.w	sp!, {r3, r4, r5, r6, r7, r8, r9, pc}

0000a35e <uart_poll_out>:
	api->poll_out(dev, out_char);
    a35e:	6883      	ldr	r3, [r0, #8]
    a360:	69db      	ldr	r3, [r3, #28]
    a362:	4718      	bx	r3

0000a364 <debug_hook_out_nop>:
}
    a364:	2000      	movs	r0, #0
    a366:	4770      	bx	lr

0000a368 <gpio_nrfx_port_get_raw>:
	NRF_GPIO_Type *reg = get_port_cfg(port)->port;
    a368:	6843      	ldr	r3, [r0, #4]
    a36a:	685b      	ldr	r3, [r3, #4]
    return p_reg->IN;
    a36c:	f8d3 3510 	ldr.w	r3, [r3, #1296]	; 0x510
	*value = nrf_gpio_port_in_read(reg);
    a370:	600b      	str	r3, [r1, #0]
}
    a372:	2000      	movs	r0, #0
    a374:	4770      	bx	lr

0000a376 <gpio_nrfx_port_set_masked_raw>:
	NRF_GPIO_Type *reg = get_port_cfg(port)->port;
    a376:	6843      	ldr	r3, [r0, #4]
    a378:	685b      	ldr	r3, [r3, #4]
    return p_reg->OUT;
    a37a:	f8d3 0504 	ldr.w	r0, [r3, #1284]	; 0x504
	nrf_gpio_port_out_write(reg, value_tmp | (mask & value));
    a37e:	4042      	eors	r2, r0
    a380:	400a      	ands	r2, r1
    a382:	4042      	eors	r2, r0
    p_reg->OUT = value;
    a384:	f8c3 2504 	str.w	r2, [r3, #1284]	; 0x504
}
    a388:	2000      	movs	r0, #0
    a38a:	4770      	bx	lr

0000a38c <gpio_nrfx_port_set_bits_raw>:
	NRF_GPIO_Type *reg = get_port_cfg(port)->port;
    a38c:	6843      	ldr	r3, [r0, #4]
    a38e:	685b      	ldr	r3, [r3, #4]
}
    a390:	2000      	movs	r0, #0
    p_reg->OUTSET = set_mask;
    a392:	f8c3 1508 	str.w	r1, [r3, #1288]	; 0x508
    a396:	4770      	bx	lr

0000a398 <gpio_nrfx_port_clear_bits_raw>:
	NRF_GPIO_Type *reg = get_port_cfg(port)->port;
    a398:	6843      	ldr	r3, [r0, #4]
    a39a:	685b      	ldr	r3, [r3, #4]
}
    a39c:	2000      	movs	r0, #0
    p_reg->OUTCLR = clr_mask;
    a39e:	f8c3 150c 	str.w	r1, [r3, #1292]	; 0x50c
    a3a2:	4770      	bx	lr

0000a3a4 <gpio_nrfx_port_toggle_bits>:
	NRF_GPIO_Type *reg = get_port_cfg(port)->port;
    a3a4:	6843      	ldr	r3, [r0, #4]
    a3a6:	685a      	ldr	r2, [r3, #4]
    return p_reg->OUT;
    a3a8:	f8d2 3504 	ldr.w	r3, [r2, #1284]	; 0x504
	nrf_gpio_port_out_write(reg, value ^ mask);
    a3ac:	404b      	eors	r3, r1
    p_reg->OUT = value;
    a3ae:	f8c2 3504 	str.w	r3, [r2, #1284]	; 0x504
}
    a3b2:	2000      	movs	r0, #0
    a3b4:	4770      	bx	lr

0000a3b6 <any_other_channel_is_active>:
{
    a3b6:	b530      	push	{r4, r5, lr}
    a3b8:	2300      	movs	r3, #0
		data->current[channel] & PWM_NRFX_CH_PULSE_CYCLES_MASK;
    a3ba:	1d0c      	adds	r4, r1, #4
		if (i != channel && pwm_channel_is_active(i, data)) {
    a3bc:	b2da      	uxtb	r2, r3
    a3be:	4282      	cmp	r2, r0
    a3c0:	d007      	beq.n	a3d2 <any_other_channel_is_active+0x1c>
	uint16_t pulse_cycle =
    a3c2:	f834 2013 	ldrh.w	r2, [r4, r3, lsl #1]
    a3c6:	f3c2 020e 	ubfx	r2, r2, #0, #15
	return (pulse_cycle > 0 && pulse_cycle < data->countertop);
    a3ca:	b112      	cbz	r2, a3d2 <any_other_channel_is_active+0x1c>
    a3cc:	898d      	ldrh	r5, [r1, #12]
    a3ce:	4295      	cmp	r5, r2
    a3d0:	d804      	bhi.n	a3dc <any_other_channel_is_active+0x26>
	for (i = 0; i < NRF_PWM_CHANNEL_COUNT; ++i) {
    a3d2:	3301      	adds	r3, #1
    a3d4:	2b04      	cmp	r3, #4
    a3d6:	d1f1      	bne.n	a3bc <any_other_channel_is_active+0x6>
	return false;
    a3d8:	2000      	movs	r0, #0
}
    a3da:	bd30      	pop	{r4, r5, pc}
			return true;
    a3dc:	2001      	movs	r0, #1
    a3de:	e7fc      	b.n	a3da <any_other_channel_is_active+0x24>

0000a3e0 <pwm_nrfx_pin_set>:
{
    a3e0:	e92d 4ff7 	stmdb	sp!, {r0, r1, r2, r4, r5, r6, r7, r8, r9, sl, fp, lr}
    a3e4:	f89d 5030 	ldrb.w	r5, [sp, #48]	; 0x30
	const struct pwm_nrfx_config *config = dev->config;
    a3e8:	6847      	ldr	r7, [r0, #4]
	struct pwm_nrfx_data *data = dev->data;
    a3ea:	6904      	ldr	r4, [r0, #16]
{
    a3ec:	4688      	mov	r8, r1
    a3ee:	4616      	mov	r6, r2
    a3f0:	4699      	mov	r9, r3
	if (flags) {
    a3f2:	2d00      	cmp	r5, #0
    a3f4:	d140      	bne.n	a478 <pwm_nrfx_pin_set+0x98>
	for (i = 0U; i < NRF_PWM_CHANNEL_COUNT; i++) {
    a3f6:	1dfa      	adds	r2, r7, #7
		if (output_pins[i] != NRFX_PWM_PIN_NOT_USED
    a3f8:	f812 3f01 	ldrb.w	r3, [r2, #1]!
    a3fc:	2bff      	cmp	r3, #255	; 0xff
    a3fe:	d003      	beq.n	a408 <pwm_nrfx_pin_set+0x28>
		    && (pwm == (output_pins[i] & PWM_NRFX_CH_PIN_MASK))) {
    a400:	f023 0380 	bic.w	r3, r3, #128	; 0x80
    a404:	4598      	cmp	r8, r3
    a406:	d03a      	beq.n	a47e <pwm_nrfx_pin_set+0x9e>
	for (i = 0U; i < NRF_PWM_CHANNEL_COUNT; i++) {
    a408:	3501      	adds	r5, #1
    a40a:	b2ed      	uxtb	r5, r5
    a40c:	2d04      	cmp	r5, #4
    a40e:	d1f3      	bne.n	a3f8 <pwm_nrfx_pin_set+0x18>
		return -EINVAL;
    a410:	f06f 0015 	mvn.w	r0, #21
    a414:	e009      	b.n	a42a <pwm_nrfx_pin_set+0x4a>
	was_stopped = !pwm_channel_is_active(channel, data) &&
    a416:	2000      	movs	r0, #0
    a418:	e042      	b.n	a4a0 <pwm_nrfx_pin_set+0xc0>
		countertop >>= 1;
    a41a:	3301      	adds	r3, #1
	} while (prescaler <= PWM_PRESCALER_PRESCALER_Msk);
    a41c:	2b08      	cmp	r3, #8
		countertop >>= 1;
    a41e:	ea4f 0252 	mov.w	r2, r2, lsr #1
	} while (prescaler <= PWM_PRESCALER_PRESCALER_Msk);
    a422:	d158      	bne.n	a4d6 <pwm_nrfx_pin_set+0xf6>
    a424:	e7f4      	b.n	a410 <pwm_nrfx_pin_set+0x30>
		if (was_stopped) {
    a426:	b9d0      	cbnz	r0, a45e <pwm_nrfx_pin_set+0x7e>
	return 0;
    a428:	2000      	movs	r0, #0
}
    a42a:	b003      	add	sp, #12
    a42c:	e8bd 8ff0 	ldmia.w	sp!, {r4, r5, r6, r7, r8, r9, sl, fp, pc}
			&& channel_inverted_state;
    a430:	454e      	cmp	r6, r9
    a432:	d87f      	bhi.n	a534 <pwm_nrfx_pin_set+0x154>
    NRF_GPIO_Type * reg = nrf_gpio_pin_port_decode(&pin_number);
    a434:	a801      	add	r0, sp, #4
    a436:	f8cd 8004 	str.w	r8, [sp, #4]
    a43a:	f7fa fa95 	bl	4968 <nrf_gpio_pin_port_decode>
    nrf_gpio_port_out_clear(reg, 1UL << pin_number);
    a43e:	9a01      	ldr	r2, [sp, #4]
    a440:	2301      	movs	r3, #1
    a442:	4093      	lsls	r3, r2
    p_reg->OUTCLR = clr_mask;
    a444:	f8c0 350c 	str.w	r3, [r0, #1292]	; 0x50c
		if (!any_other_channel_is_active(channel, data)) {
    a448:	4621      	mov	r1, r4
    a44a:	4628      	mov	r0, r5
    a44c:	f7ff ffb3 	bl	a3b6 <any_other_channel_is_active>
    a450:	2800      	cmp	r0, #0
    a452:	d1e9      	bne.n	a428 <pwm_nrfx_pin_set+0x48>
			nrfx_pwm_stop(&config->pwm, false);
    a454:	4601      	mov	r1, r0
    a456:	4638      	mov	r0, r7
    a458:	f7fc f856 	bl	6508 <nrfx_pwm_stop>
    a45c:	e7e4      	b.n	a428 <pwm_nrfx_pin_set+0x48>
			while (!nrfx_pwm_is_stopped(&config->pwm)) {
    a45e:	4638      	mov	r0, r7
    a460:	f7fc f824 	bl	64ac <nrfx_pwm_is_stopped>
    a464:	2800      	cmp	r0, #0
    a466:	d0fa      	beq.n	a45e <pwm_nrfx_pin_set+0x7e>
			nrfx_pwm_simple_playback(&config->pwm,
    a468:	2302      	movs	r3, #2
    a46a:	2201      	movs	r2, #1
    a46c:	f107 0118 	add.w	r1, r7, #24
    a470:	4638      	mov	r0, r7
    a472:	f7fb ffa7 	bl	63c4 <nrfx_pwm_simple_playback>
    a476:	e7d7      	b.n	a428 <pwm_nrfx_pin_set+0x48>
		return -ENOTSUP;
    a478:	f06f 0085 	mvn.w	r0, #133	; 0x85
    a47c:	e7d5      	b.n	a42a <pwm_nrfx_pin_set+0x4a>
	uint16_t pulse_cycle =
    a47e:	eb04 0a45 	add.w	sl, r4, r5, lsl #1
		data->current[channel] & PWM_NRFX_CH_PULSE_CYCLES_MASK;
    a482:	f8ba b004 	ldrh.w	fp, [sl, #4]
	uint16_t pulse_cycle =
    a486:	f3cb 030e 	ubfx	r3, fp, #0, #15
	return (pulse_cycle > 0 && pulse_cycle < data->countertop);
    a48a:	b113      	cbz	r3, a492 <pwm_nrfx_pin_set+0xb2>
    a48c:	89a2      	ldrh	r2, [r4, #12]
    a48e:	429a      	cmp	r2, r3
    a490:	d8c1      	bhi.n	a416 <pwm_nrfx_pin_set+0x36>
		      !any_other_channel_is_active(channel, data);
    a492:	4621      	mov	r1, r4
    a494:	4628      	mov	r0, r5
    a496:	f7ff ff8e 	bl	a3b6 <any_other_channel_is_active>
	was_stopped = !pwm_channel_is_active(channel, data) &&
    a49a:	f080 0001 	eor.w	r0, r0, #1
    a49e:	b2c0      	uxtb	r0, r0
	if (config->initial_config.count_mode == NRF_PWM_MODE_UP_AND_DOWN) {
    a4a0:	7bb9      	ldrb	r1, [r7, #14]
    a4a2:	2901      	cmp	r1, #1
		period_cycles /= 2;
    a4a4:	bf04      	itt	eq
    a4a6:	0876      	lsreq	r6, r6, #1
		pulse_cycles /= 2;
    a4a8:	ea4f 0959 	moveq.w	r9, r9, lsr #1
	if (period_cycles != 0 && period_cycles != data->period_cycles) {
    a4ac:	b326      	cbz	r6, a4f8 <pwm_nrfx_pin_set+0x118>
    a4ae:	6823      	ldr	r3, [r4, #0]
    a4b0:	42b3      	cmp	r3, r6
    a4b2:	d021      	beq.n	a4f8 <pwm_nrfx_pin_set+0x118>
    a4b4:	2300      	movs	r3, #0
				data->current[i]
    a4b6:	f104 0c04 	add.w	ip, r4, #4
		if (i != channel) {
    a4ba:	b2da      	uxtb	r2, r3
    a4bc:	42aa      	cmp	r2, r5
    a4be:	d005      	beq.n	a4cc <pwm_nrfx_pin_set+0xec>
			uint16_t channel_pulse_cycle =
    a4c0:	f83c 2013 	ldrh.w	r2, [ip, r3, lsl #1]
			if (channel_pulse_cycle > 0) {
    a4c4:	f3c2 020e 	ubfx	r2, r2, #0, #15
    a4c8:	2a00      	cmp	r2, #0
    a4ca:	d1a1      	bne.n	a410 <pwm_nrfx_pin_set+0x30>
	for (i = 0; i < NRF_PWM_CHANNEL_COUNT; ++i) {
    a4cc:	3301      	adds	r3, #1
    a4ce:	2b04      	cmp	r3, #4
    a4d0:	d1f3      	bne.n	a4ba <pwm_nrfx_pin_set+0xda>
    a4d2:	4632      	mov	r2, r6
    a4d4:	2300      	movs	r3, #0
		if (countertop <= PWM_COUNTERTOP_COUNTERTOP_Msk) {
    a4d6:	f5b2 4f00 	cmp.w	r2, #32768	; 0x8000
    a4da:	fa5f fc83 	uxtb.w	ip, r3
    a4de:	d29c      	bcs.n	a41a <pwm_nrfx_pin_set+0x3a>
			data->prescaler     = prescaler;
    a4e0:	f884 c00e 	strb.w	ip, [r4, #14]
			nrf_pwm_configure(config->pwm.p_registers,
    a4e4:	f8d7 c000 	ldr.w	ip, [r7]
			data->period_cycles = period_cycles;
    a4e8:	6026      	str	r6, [r4, #0]
			data->countertop    = (uint16_t)countertop;
    a4ea:	81a2      	strh	r2, [r4, #12]
    p_reg->PRESCALER  = base_clock;
    a4ec:	f8cc 350c 	str.w	r3, [ip, #1292]	; 0x50c
    p_reg->MODE       = mode;
    a4f0:	f8cc 1504 	str.w	r1, [ip, #1284]	; 0x504
    p_reg->COUNTERTOP = top_value;
    a4f4:	f8cc 2508 	str.w	r2, [ip, #1288]	; 0x508
		| (pulse_cycles >> data->prescaler));
    a4f8:	7ba2      	ldrb	r2, [r4, #14]
	pulse_cycles = MIN(pulse_cycles, period_cycles);
    a4fa:	454e      	cmp	r6, r9
    a4fc:	4633      	mov	r3, r6
    a4fe:	bf28      	it	cs
    a500:	464b      	movcs	r3, r9
		| (pulse_cycles >> data->prescaler));
    a502:	fa23 f202 	lsr.w	r2, r3, r2
		(data->current[channel] & PWM_NRFX_CH_POLARITY_MASK)
    a506:	f40b 4b00 	and.w	fp, fp, #32768	; 0x8000
		| (pulse_cycles >> data->prescaler));
    a50a:	ea42 020b 	orr.w	r2, r2, fp
    a50e:	b292      	uxth	r2, r2
	data->current[channel] = (
    a510:	f8aa 2004 	strh.w	r2, [sl, #4]
	uint16_t pulse_cycle =
    a514:	f3c2 020e 	ubfx	r2, r2, #0, #15
	return (pulse_cycle > 0 && pulse_cycle < data->countertop);
    a518:	b112      	cbz	r2, a520 <pwm_nrfx_pin_set+0x140>
    a51a:	89a1      	ldrh	r1, [r4, #12]
    a51c:	4291      	cmp	r1, r2
    a51e:	d882      	bhi.n	a426 <pwm_nrfx_pin_set+0x46>
			config->initial_config.output_pins[channel]
    a520:	197a      	adds	r2, r7, r5
    a522:	f992 2008 	ldrsb.w	r2, [r2, #8]
			&& !channel_inverted_state;
    a526:	2b00      	cmp	r3, #0
    a528:	d082      	beq.n	a430 <pwm_nrfx_pin_set+0x50>
			&& channel_inverted_state;
    a52a:	454e      	cmp	r6, r9
    a52c:	d805      	bhi.n	a53a <pwm_nrfx_pin_set+0x15a>
    a52e:	2a00      	cmp	r2, #0
    a530:	db80      	blt.n	a434 <pwm_nrfx_pin_set+0x54>
    a532:	e002      	b.n	a53a <pwm_nrfx_pin_set+0x15a>
		if (pulse_0_and_not_inverted || pulse_100_and_inverted) {
    a534:	2a00      	cmp	r2, #0
    a536:	f6bf af7d 	bge.w	a434 <pwm_nrfx_pin_set+0x54>
    NRF_GPIO_Type * reg = nrf_gpio_pin_port_decode(&pin_number);
    a53a:	a801      	add	r0, sp, #4
    a53c:	f8cd 8004 	str.w	r8, [sp, #4]
    a540:	f7fa fa12 	bl	4968 <nrf_gpio_pin_port_decode>
    nrf_gpio_port_out_set(reg, 1UL << pin_number);
    a544:	9a01      	ldr	r2, [sp, #4]
    a546:	2301      	movs	r3, #1
    a548:	4093      	lsls	r3, r2
    p_reg->OUTSET = set_mask;
    a54a:	f8c0 3508 	str.w	r3, [r0, #1288]	; 0x508
    a54e:	e77b      	b.n	a448 <pwm_nrfx_pin_set+0x68>

0000a550 <uarte_nrfx_isr_int>:
	return config->uarte_regs;
    a550:	6843      	ldr	r3, [r0, #4]
    a552:	681b      	ldr	r3, [r3, #0]
    return p_reg->INTENSET & mask;
    a554:	f8d3 2304 	ldr.w	r2, [r3, #772]	; 0x304
	if (nrf_uarte_int_enable_check(uarte, NRF_UARTE_INT_ENDTX_MASK) &&
    a558:	05d1      	lsls	r1, r2, #23
{
    a55a:	b410      	push	{r4}
	if (nrf_uarte_int_enable_check(uarte, NRF_UARTE_INT_ENDTX_MASK) &&
    a55c:	d518      	bpl.n	a590 <uarte_nrfx_isr_int+0x40>
    return (bool)*(volatile uint32_t *)((uint8_t *)p_reg + (uint32_t)event);
    a55e:	f8d3 2120 	ldr.w	r2, [r3, #288]	; 0x120
    a562:	b1aa      	cbz	r2, a590 <uarte_nrfx_isr_int+0x40>
	__asm__ volatile(
    a564:	f04f 0120 	mov.w	r1, #32
    a568:	f3ef 8211 	mrs	r2, BASEPRI
    a56c:	f381 8812 	msr	BASEPRI_MAX, r1
    a570:	f3bf 8f6f 	isb	sy
    a574:	f8d3 1120 	ldr.w	r1, [r3, #288]	; 0x120
	if (nrf_uarte_event_check(uarte, NRF_UARTE_EVENT_ENDTX)) {
    a578:	b131      	cbz	r1, a588 <uarte_nrfx_isr_int+0x38>
    *((volatile uint32_t *)((uint8_t *)p_reg + (uint32_t)event)) = 0x0UL;
    a57a:	2100      	movs	r1, #0
    a57c:	f8c3 1120 	str.w	r1, [r3, #288]	; 0x120
    a580:	f8d3 1120 	ldr.w	r1, [r3, #288]	; 0x120
    *((volatile uint32_t *)((uint8_t *)p_reg + (uint32_t)task)) = 0x1UL;
    a584:	2101      	movs	r1, #1
    a586:	60d9      	str	r1, [r3, #12]
	__asm__ volatile(
    a588:	f382 8811 	msr	BASEPRI, r2
    a58c:	f3bf 8f6f 	isb	sy
	if (get_dev_config(dev)->flags & UARTE_CFG_FLAG_LOW_POWER) {
    a590:	6842      	ldr	r2, [r0, #4]
    a592:	6852      	ldr	r2, [r2, #4]
    a594:	06d2      	lsls	r2, r2, #27
    a596:	d51a      	bpl.n	a5ce <uarte_nrfx_isr_int+0x7e>
	__asm__ volatile(
    a598:	f04f 0220 	mov.w	r2, #32
    a59c:	f3ef 8111 	mrs	r1, BASEPRI
    a5a0:	f382 8812 	msr	BASEPRI_MAX, r2
    a5a4:	f3bf 8f6f 	isb	sy
    return (bool)*(volatile uint32_t *)((uint8_t *)p_reg + (uint32_t)event);
    a5a8:	f8d3 2158 	ldr.w	r2, [r3, #344]	; 0x158
		if (nrf_uarte_event_check(uarte, NRF_UARTE_EVENT_TXSTOPPED)) {
    a5ac:	b112      	cbz	r2, a5b4 <uarte_nrfx_isr_int+0x64>
    p_reg->ENABLE = UARTE_ENABLE_ENABLE_Disabled;
    a5ae:	2200      	movs	r2, #0
    a5b0:	f8c3 2500 	str.w	r2, [r3, #1280]	; 0x500
		if (!data->int_driven || data->int_driven->fifo_fill_lock == 0)
    a5b4:	6902      	ldr	r2, [r0, #16]
    a5b6:	68d2      	ldr	r2, [r2, #12]
    a5b8:	b10a      	cbz	r2, a5be <uarte_nrfx_isr_int+0x6e>
    a5ba:	6912      	ldr	r2, [r2, #16]
    a5bc:	b91a      	cbnz	r2, a5c6 <uarte_nrfx_isr_int+0x76>
    p_reg->INTENCLR = mask;
    a5be:	f44f 0280 	mov.w	r2, #4194304	; 0x400000
    a5c2:	f8c3 2308 	str.w	r2, [r3, #776]	; 0x308
	__asm__ volatile(
    a5c6:	f381 8811 	msr	BASEPRI, r1
    a5ca:	f3bf 8f6f 	isb	sy
	if (!data->int_driven) {
    a5ce:	6902      	ldr	r2, [r0, #16]
    a5d0:	68d2      	ldr	r2, [r2, #12]
    a5d2:	b15a      	cbz	r2, a5ec <uarte_nrfx_isr_int+0x9c>
    return (bool)*(volatile uint32_t *)((uint8_t *)p_reg + (uint32_t)event);
    a5d4:	f8d3 1158 	ldr.w	r1, [r3, #344]	; 0x158
	if (nrf_uarte_event_check(uarte, NRF_UARTE_EVENT_TXSTOPPED)) {
    a5d8:	b151      	cbz	r1, a5f0 <uarte_nrfx_isr_int+0xa0>
		if (data->int_driven->disable_tx_irq) {
    a5da:	7b94      	ldrb	r4, [r2, #14]
		data->int_driven->fifo_fill_lock = 0;
    a5dc:	2100      	movs	r1, #0
    a5de:	6111      	str	r1, [r2, #16]
		if (data->int_driven->disable_tx_irq) {
    a5e0:	b134      	cbz	r4, a5f0 <uarte_nrfx_isr_int+0xa0>
    p_reg->INTENCLR = mask;
    a5e2:	f44f 0080 	mov.w	r0, #4194304	; 0x400000
    a5e6:	f8c3 0308 	str.w	r0, [r3, #776]	; 0x308
			data->int_driven->disable_tx_irq = false;
    a5ea:	7391      	strb	r1, [r2, #14]
}
    a5ec:	bc10      	pop	{r4}
    a5ee:	4770      	bx	lr
    return (bool)*(volatile uint32_t *)((uint8_t *)p_reg + (uint32_t)event);
    a5f0:	f8d3 1124 	ldr.w	r1, [r3, #292]	; 0x124
	if (nrf_uarte_event_check(uarte, NRF_UARTE_EVENT_ERROR)) {
    a5f4:	b121      	cbz	r1, a600 <uarte_nrfx_isr_int+0xb0>
    *((volatile uint32_t *)((uint8_t *)p_reg + (uint32_t)event)) = 0x0UL;
    a5f6:	2100      	movs	r1, #0
    a5f8:	f8c3 1124 	str.w	r1, [r3, #292]	; 0x124
    a5fc:	f8d3 3124 	ldr.w	r3, [r3, #292]	; 0x124
	if (data->int_driven->cb) {
    a600:	6813      	ldr	r3, [r2, #0]
    a602:	2b00      	cmp	r3, #0
    a604:	d0f2      	beq.n	a5ec <uarte_nrfx_isr_int+0x9c>
		data->int_driven->cb(dev, data->int_driven->cb_data);
    a606:	6851      	ldr	r1, [r2, #4]
}
    a608:	bc10      	pop	{r4}
		data->int_driven->cb(dev, data->int_driven->cb_data);
    a60a:	4718      	bx	r3

0000a60c <uarte_nrfx_config_get>:
	*cfg = get_dev_data(dev)->uart_config;
    a60c:	6902      	ldr	r2, [r0, #16]
{
    a60e:	460b      	mov	r3, r1
	*cfg = get_dev_data(dev)->uart_config;
    a610:	e9d2 0101 	ldrd	r0, r1, [r2, #4]
    a614:	e883 0003 	stmia.w	r3, {r0, r1}
}
    a618:	2000      	movs	r0, #0
    a61a:	4770      	bx	lr

0000a61c <uarte_nrfx_err_check>:
	return config->uarte_regs;
    a61c:	6843      	ldr	r3, [r0, #4]
    a61e:	681b      	ldr	r3, [r3, #0]
    uint32_t errsrc_mask = p_reg->ERRORSRC;
    a620:	f8d3 0480 	ldr.w	r0, [r3, #1152]	; 0x480
    p_reg->ERRORSRC = errsrc_mask;
    a624:	f8c3 0480 	str.w	r0, [r3, #1152]	; 0x480
}
    a628:	4770      	bx	lr

0000a62a <is_tx_ready>:
	const struct uarte_nrfx_config *config = get_dev_config(dev);
    a62a:	6842      	ldr	r2, [r0, #4]
	return config->uarte_regs;
    a62c:	6813      	ldr	r3, [r2, #0]
    return (bool)*(volatile uint32_t *)((uint8_t *)p_reg + (uint32_t)event);
    a62e:	f8d3 0158 	ldr.w	r0, [r3, #344]	; 0x158
	return nrf_uarte_event_check(uarte, NRF_UARTE_EVENT_TXSTOPPED) ||
    a632:	b940      	cbnz	r0, a646 <is_tx_ready+0x1c>
	bool ppi_endtx = get_dev_config(dev)->flags & UARTE_CFG_FLAG_PPI_ENDTX;
    a634:	6852      	ldr	r2, [r2, #4]
	return nrf_uarte_event_check(uarte, NRF_UARTE_EVENT_TXSTOPPED) ||
    a636:	0792      	lsls	r2, r2, #30
    a638:	d406      	bmi.n	a648 <is_tx_ready+0x1e>
    a63a:	f8d3 0120 	ldr.w	r0, [r3, #288]	; 0x120
    a63e:	3800      	subs	r0, #0
    a640:	bf18      	it	ne
    a642:	2001      	movne	r0, #1
    a644:	4770      	bx	lr
    a646:	2001      	movs	r0, #1
}
    a648:	4770      	bx	lr

0000a64a <user_callback>:
	if (data->async->user_callback) {
    a64a:	6903      	ldr	r3, [r0, #16]
    a64c:	691a      	ldr	r2, [r3, #16]
    a64e:	6813      	ldr	r3, [r2, #0]
    a650:	b10b      	cbz	r3, a656 <user_callback+0xc>
		data->async->user_callback(dev, evt, data->async->user_data);
    a652:	6852      	ldr	r2, [r2, #4]
    a654:	4718      	bx	r3
}
    a656:	4770      	bx	lr

0000a658 <notify_uart_rx_rdy>:
{
    a658:	b570      	push	{r4, r5, r6, lr}
    a65a:	b086      	sub	sp, #24
	struct uarte_nrfx_data *data = get_dev_data(dev);
    a65c:	6906      	ldr	r6, [r0, #16]
{
    a65e:	4604      	mov	r4, r0
    a660:	460d      	mov	r5, r1
	struct uart_event evt = {
    a662:	2214      	movs	r2, #20
    a664:	2100      	movs	r1, #0
    a666:	a801      	add	r0, sp, #4
    a668:	f7ff fddd 	bl	a226 <memset>
    a66c:	2302      	movs	r3, #2
    a66e:	f88d 3004 	strb.w	r3, [sp, #4]
		.data.rx.buf = data->async->rx_buf,
    a672:	6933      	ldr	r3, [r6, #16]
	struct uart_event evt = {
    a674:	6e1a      	ldr	r2, [r3, #96]	; 0x60
    a676:	6e9b      	ldr	r3, [r3, #104]	; 0x68
    a678:	9202      	str	r2, [sp, #8]
	user_callback(dev, &evt);
    a67a:	a901      	add	r1, sp, #4
    a67c:	4620      	mov	r0, r4
	struct uart_event evt = {
    a67e:	e9cd 3503 	strd	r3, r5, [sp, #12]
	user_callback(dev, &evt);
    a682:	f7ff ffe2 	bl	a64a <user_callback>
}
    a686:	b006      	add	sp, #24
    a688:	bd70      	pop	{r4, r5, r6, pc}

0000a68a <uarte_nrfx_rx_buf_rsp>:
	return config->uarte_regs;
    a68a:	6843      	ldr	r3, [r0, #4]
{
    a68c:	b530      	push	{r4, r5, lr}
	return config->uarte_regs;
    a68e:	681b      	ldr	r3, [r3, #0]
	struct uarte_nrfx_data *data = get_dev_data(dev);
    a690:	6904      	ldr	r4, [r0, #16]
	__asm__ volatile(
    a692:	f04f 0020 	mov.w	r0, #32
    a696:	f3ef 8511 	mrs	r5, BASEPRI
    a69a:	f380 8812 	msr	BASEPRI_MAX, r0
    a69e:	f3bf 8f6f 	isb	sy
	if (data->async->rx_buf == NULL) {
    a6a2:	6924      	ldr	r4, [r4, #16]
    a6a4:	6e20      	ldr	r0, [r4, #96]	; 0x60
    a6a6:	b190      	cbz	r0, a6ce <uarte_nrfx_rx_buf_rsp+0x44>
	} else if (data->async->rx_next_buf == NULL) {
    a6a8:	6ee0      	ldr	r0, [r4, #108]	; 0x6c
    a6aa:	b998      	cbnz	r0, a6d4 <uarte_nrfx_rx_buf_rsp+0x4a>
		data->async->rx_next_buf_len = len;
    a6ac:	e9c4 121b 	strd	r1, r2, [r4, #108]	; 0x6c
    p_reg->RXD.PTR    = (uint32_t)p_buffer;
    a6b0:	f8c3 1534 	str.w	r1, [r3, #1332]	; 0x534
    p_reg->RXD.MAXCNT = length;
    a6b4:	f8c3 2538 	str.w	r2, [r3, #1336]	; 0x538
    p_reg->SHORTS |= mask;
    a6b8:	f8d3 2200 	ldr.w	r2, [r3, #512]	; 0x200
    a6bc:	f042 0220 	orr.w	r2, r2, #32
    a6c0:	f8c3 2200 	str.w	r2, [r3, #512]	; 0x200
	__asm__ volatile(
    a6c4:	f385 8811 	msr	BASEPRI, r5
    a6c8:	f3bf 8f6f 	isb	sy
}
    a6cc:	bd30      	pop	{r4, r5, pc}
		err = -EACCES;
    a6ce:	f06f 000c 	mvn.w	r0, #12
    a6d2:	e7f7      	b.n	a6c4 <uarte_nrfx_rx_buf_rsp+0x3a>
		err = -EBUSY;
    a6d4:	f06f 000f 	mvn.w	r0, #15
    a6d8:	e7f4      	b.n	a6c4 <uarte_nrfx_rx_buf_rsp+0x3a>

0000a6da <uarte_nrfx_callback_set>:
	if (!data->async) {
    a6da:	6903      	ldr	r3, [r0, #16]
    a6dc:	691b      	ldr	r3, [r3, #16]
    a6de:	b11b      	cbz	r3, a6e8 <uarte_nrfx_callback_set+0xe>
	data->async->user_data = user_data;
    a6e0:	e9c3 1200 	strd	r1, r2, [r3]
	return 0;
    a6e4:	2000      	movs	r0, #0
    a6e6:	4770      	bx	lr
		return -ENOTSUP;
    a6e8:	f06f 0085 	mvn.w	r0, #133	; 0x85
}
    a6ec:	4770      	bx	lr

0000a6ee <uarte_nrfx_poll_in>:
	const struct uarte_nrfx_data *data = get_dev_data(dev);
    a6ee:	6902      	ldr	r2, [r0, #16]
	return config->uarte_regs;
    a6f0:	6843      	ldr	r3, [r0, #4]
	if (data->async) {
    a6f2:	6910      	ldr	r0, [r2, #16]
	return config->uarte_regs;
    a6f4:	681b      	ldr	r3, [r3, #0]
{
    a6f6:	b510      	push	{r4, lr}
	if (data->async) {
    a6f8:	b958      	cbnz	r0, a712 <uarte_nrfx_poll_in+0x24>
    return (bool)*(volatile uint32_t *)((uint8_t *)p_reg + (uint32_t)event);
    a6fa:	f8d3 4110 	ldr.w	r4, [r3, #272]	; 0x110
	if (!nrf_uarte_event_check(uarte, NRF_UARTE_EVENT_ENDRX)) {
    a6fe:	b15c      	cbz	r4, a718 <uarte_nrfx_poll_in+0x2a>
	*c = data->rx_data;
    a700:	7e52      	ldrb	r2, [r2, #25]
    a702:	700a      	strb	r2, [r1, #0]
    *((volatile uint32_t *)((uint8_t *)p_reg + (uint32_t)event)) = 0x0UL;
    a704:	f8c3 0110 	str.w	r0, [r3, #272]	; 0x110
    a708:	f8d3 2110 	ldr.w	r2, [r3, #272]	; 0x110
    *((volatile uint32_t *)((uint8_t *)p_reg + (uint32_t)task)) = 0x1UL;
    a70c:	2201      	movs	r2, #1
    a70e:	601a      	str	r2, [r3, #0]
}
    a710:	bd10      	pop	{r4, pc}
		return -ENOTSUP;
    a712:	f06f 0085 	mvn.w	r0, #133	; 0x85
    a716:	e7fb      	b.n	a710 <uarte_nrfx_poll_in+0x22>
		return -1;
    a718:	f04f 30ff 	mov.w	r0, #4294967295
    a71c:	e7f8      	b.n	a710 <uarte_nrfx_poll_in+0x22>

0000a71e <uarte_nrfx_fifo_read>:
	if (size > 0 && nrf_uarte_event_check(uarte, NRF_UARTE_EVENT_ENDRX)) {
    a71e:	2a00      	cmp	r2, #0
{
    a720:	b510      	push	{r4, lr}
    a722:	4604      	mov	r4, r0
	if (size > 0 && nrf_uarte_event_check(uarte, NRF_UARTE_EVENT_ENDRX)) {
    a724:	dd0f      	ble.n	a746 <uarte_nrfx_fifo_read+0x28>
	return config->uarte_regs;
    a726:	6843      	ldr	r3, [r0, #4]
    a728:	681b      	ldr	r3, [r3, #0]
    return (bool)*(volatile uint32_t *)((uint8_t *)p_reg + (uint32_t)event);
    a72a:	f8d3 0110 	ldr.w	r0, [r3, #272]	; 0x110
	if (size > 0 && nrf_uarte_event_check(uarte, NRF_UARTE_EVENT_ENDRX)) {
    a72e:	b148      	cbz	r0, a744 <uarte_nrfx_fifo_read+0x26>
	const struct uarte_nrfx_data *data = get_dev_data(dev);
    a730:	6922      	ldr	r2, [r4, #16]
    *((volatile uint32_t *)((uint8_t *)p_reg + (uint32_t)event)) = 0x0UL;
    a732:	2000      	movs	r0, #0
    a734:	f8c3 0110 	str.w	r0, [r3, #272]	; 0x110
    a738:	f8d3 0110 	ldr.w	r0, [r3, #272]	; 0x110
		rx_data[num_rx++] = (uint8_t)data->rx_data;
    a73c:	7e52      	ldrb	r2, [r2, #25]
    a73e:	700a      	strb	r2, [r1, #0]
    *((volatile uint32_t *)((uint8_t *)p_reg + (uint32_t)task)) = 0x1UL;
    a740:	2001      	movs	r0, #1
    a742:	6018      	str	r0, [r3, #0]
}
    a744:	bd10      	pop	{r4, pc}
	int num_rx = 0;
    a746:	2000      	movs	r0, #0
    a748:	e7fc      	b.n	a744 <uarte_nrfx_fifo_read+0x26>

0000a74a <uarte_nrfx_irq_tx_enable>:
	return config->uarte_regs;
    a74a:	6843      	ldr	r3, [r0, #4]
	struct uarte_nrfx_data *data = get_dev_data(dev);
    a74c:	6901      	ldr	r1, [r0, #16]
	return config->uarte_regs;
    a74e:	681a      	ldr	r2, [r3, #0]
	__asm__ volatile(
    a750:	f04f 0020 	mov.w	r0, #32
    a754:	f3ef 8311 	mrs	r3, BASEPRI
    a758:	f380 8812 	msr	BASEPRI_MAX, r0
    a75c:	f3bf 8f6f 	isb	sy
	data->int_driven->disable_tx_irq = false;
    a760:	68c9      	ldr	r1, [r1, #12]
    a762:	2000      	movs	r0, #0
    a764:	7388      	strb	r0, [r1, #14]
    p_reg->INTENSET = mask;
    a766:	f44f 0180 	mov.w	r1, #4194304	; 0x400000
    a76a:	f8c2 1304 	str.w	r1, [r2, #772]	; 0x304
	__asm__ volatile(
    a76e:	f383 8811 	msr	BASEPRI, r3
    a772:	f3bf 8f6f 	isb	sy
}
    a776:	4770      	bx	lr

0000a778 <uarte_nrfx_irq_tx_disable>:
	data->int_driven->disable_tx_irq = true;
    a778:	6903      	ldr	r3, [r0, #16]
    a77a:	68db      	ldr	r3, [r3, #12]
    a77c:	2201      	movs	r2, #1
    a77e:	739a      	strb	r2, [r3, #14]
}
    a780:	4770      	bx	lr

0000a782 <uarte_nrfx_irq_tx_ready_complete>:
	bool ready = !data->int_driven->disable_tx_irq &&
    a782:	6903      	ldr	r3, [r0, #16]
    a784:	68db      	ldr	r3, [r3, #12]
    a786:	7b9a      	ldrb	r2, [r3, #14]
		     nrf_uarte_event_check(uarte, NRF_UARTE_EVENT_TXSTOPPED) &&
    a788:	f002 01ff 	and.w	r1, r2, #255	; 0xff
    a78c:	b962      	cbnz	r2, a7a8 <uarte_nrfx_irq_tx_ready_complete+0x26>
	return config->uarte_regs;
    a78e:	6842      	ldr	r2, [r0, #4]
    a790:	6812      	ldr	r2, [r2, #0]
    return (bool)*(volatile uint32_t *)((uint8_t *)p_reg + (uint32_t)event);
    a792:	f8d2 0158 	ldr.w	r0, [r2, #344]	; 0x158
	bool ready = !data->int_driven->disable_tx_irq &&
    a796:	b140      	cbz	r0, a7aa <uarte_nrfx_irq_tx_ready_complete+0x28>
    return p_reg->INTENSET & mask;
    a798:	f8d2 0304 	ldr.w	r0, [r2, #772]	; 0x304
	if (ready) {
    a79c:	f410 0080 	ands.w	r0, r0, #4194304	; 0x400000
    a7a0:	d003      	beq.n	a7aa <uarte_nrfx_irq_tx_ready_complete+0x28>
		data->int_driven->fifo_fill_lock = 0;
    a7a2:	6119      	str	r1, [r3, #16]
		     nrf_uarte_event_check(uarte, NRF_UARTE_EVENT_TXSTOPPED) &&
    a7a4:	2001      	movs	r0, #1
    a7a6:	4770      	bx	lr
    a7a8:	2000      	movs	r0, #0
}
    a7aa:	4770      	bx	lr

0000a7ac <uarte_nrfx_irq_rx_ready>:
	return config->uarte_regs;
    a7ac:	6843      	ldr	r3, [r0, #4]
    a7ae:	681b      	ldr	r3, [r3, #0]
    return (bool)*(volatile uint32_t *)((uint8_t *)p_reg + (uint32_t)event);
    a7b0:	f8d3 0110 	ldr.w	r0, [r3, #272]	; 0x110
}
    a7b4:	3800      	subs	r0, #0
    a7b6:	bf18      	it	ne
    a7b8:	2001      	movne	r0, #1
    a7ba:	4770      	bx	lr

0000a7bc <uarte_nrfx_irq_rx_enable>:
	return config->uarte_regs;
    a7bc:	6843      	ldr	r3, [r0, #4]
    a7be:	681b      	ldr	r3, [r3, #0]
    p_reg->INTENSET = mask;
    a7c0:	2210      	movs	r2, #16
    a7c2:	f8c3 2304 	str.w	r2, [r3, #772]	; 0x304
}
    a7c6:	4770      	bx	lr

0000a7c8 <uarte_nrfx_irq_rx_disable>:
	return config->uarte_regs;
    a7c8:	6843      	ldr	r3, [r0, #4]
    a7ca:	681b      	ldr	r3, [r3, #0]
    p_reg->INTENCLR = mask;
    a7cc:	2210      	movs	r2, #16
    a7ce:	f8c3 2308 	str.w	r2, [r3, #776]	; 0x308
}
    a7d2:	4770      	bx	lr

0000a7d4 <uarte_nrfx_irq_err_enable>:
	return config->uarte_regs;
    a7d4:	6843      	ldr	r3, [r0, #4]
    a7d6:	681b      	ldr	r3, [r3, #0]
    p_reg->INTENSET = mask;
    a7d8:	f44f 7200 	mov.w	r2, #512	; 0x200
    a7dc:	f8c3 2304 	str.w	r2, [r3, #772]	; 0x304
}
    a7e0:	4770      	bx	lr

0000a7e2 <uarte_nrfx_irq_err_disable>:
	return config->uarte_regs;
    a7e2:	6843      	ldr	r3, [r0, #4]
    a7e4:	681b      	ldr	r3, [r3, #0]
    p_reg->INTENCLR = mask;
    a7e6:	f44f 7200 	mov.w	r2, #512	; 0x200
    a7ea:	f8c3 2308 	str.w	r2, [r3, #776]	; 0x308
}
    a7ee:	4770      	bx	lr

0000a7f0 <uarte_nrfx_irq_update>:
}
    a7f0:	2001      	movs	r0, #1
    a7f2:	4770      	bx	lr

0000a7f4 <uarte_nrfx_irq_callback_set>:
	data->int_driven->cb = cb;
    a7f4:	6903      	ldr	r3, [r0, #16]
    a7f6:	68db      	ldr	r3, [r3, #12]
	data->int_driven->cb_data = cb_data;
    a7f8:	e9c3 1200 	strd	r1, r2, [r3]
}
    a7fc:	4770      	bx	lr

0000a7fe <rx_timeout>:
{
    a7fe:	b5f8      	push	{r3, r4, r5, r6, r7, lr}
	return z_impl_k_timer_user_data_get(timer);
    a800:	6b46      	ldr	r6, [r0, #52]	; 0x34
	if (data->async->is_in_irq) {
    a802:	6933      	ldr	r3, [r6, #16]
    a804:	f893 20d5 	ldrb.w	r2, [r3, #213]	; 0xd5
    a808:	f002 07ff 	and.w	r7, r2, #255	; 0xff
    a80c:	bb42      	cbnz	r2, a860 <rx_timeout+0x62>
	const struct device *dev = data->dev;
    a80e:	6835      	ldr	r5, [r6, #0]
	return config->uarte_regs;
    a810:	686a      	ldr	r2, [r5, #4]
    a812:	6812      	ldr	r2, [r2, #0]
    a814:	2110      	movs	r1, #16
    a816:	f8c2 1308 	str.w	r1, [r2, #776]	; 0x308
		read = data->async->rx_cnt.cnt;
    a81a:	f8d3 20c0 	ldr.w	r2, [r3, #192]	; 0xc0
	if (read != data->async->rx_total_byte_cnt) {
    a81e:	6f59      	ldr	r1, [r3, #116]	; 0x74
    a820:	4291      	cmp	r1, r2
		data->async->rx_total_byte_cnt = read;
    a822:	bf1e      	ittt	ne
    a824:	675a      	strne	r2, [r3, #116]	; 0x74
		data->async->rx_timeout_left = data->async->rx_timeout;
    a826:	6fda      	ldrne	r2, [r3, #124]	; 0x7c
    a828:	f8c3 2084 	strne.w	r2, [r3, #132]	; 0x84
		    - data->async->rx_total_user_byte_cnt;
    a82c:	e9d3 421d 	ldrd	r4, r2, [r3, #116]	; 0x74
	if (!hw_rx_counting_enabled(data) &&
    a830:	1aa4      	subs	r4, r4, r2
		data->async->rx_cnt.cnt = data->async->rx_total_user_byte_cnt;
    a832:	bf48      	it	mi
    a834:	f8c3 20c0 	strmi.w	r2, [r3, #192]	; 0xc0
	if (len + data->async->rx_offset > data->async->rx_buf_len) {
    a838:	e9d3 1219 	ldrd	r1, r2, [r3, #100]	; 0x64
		len = 0;
    a83c:	bf48      	it	mi
    a83e:	2400      	movmi	r4, #0
	if (len + data->async->rx_offset > data->async->rx_buf_len) {
    a840:	18a0      	adds	r0, r4, r2
    a842:	4288      	cmp	r0, r1
    a844:	d90d      	bls.n	a862 <rx_timeout+0x64>
		len = data->async->rx_buf_len - data->async->rx_offset;
    a846:	1a8c      	subs	r4, r1, r2
	if (len > 0) {
    a848:	2c00      	cmp	r4, #0
    a84a:	dd04      	ble.n	a856 <rx_timeout+0x58>
		clipped = true;
    a84c:	2701      	movs	r7, #1
    a84e:	e00e      	b.n	a86e <rx_timeout+0x70>
			data->async->rx_timeout_left -=
    a850:	1a52      	subs	r2, r2, r1
    a852:	f8c3 2084 	str.w	r2, [r3, #132]	; 0x84
	return config->uarte_regs;
    a856:	686b      	ldr	r3, [r5, #4]
    a858:	681b      	ldr	r3, [r3, #0]
    p_reg->INTENSET = mask;
    a85a:	2210      	movs	r2, #16
    a85c:	f8c3 2304 	str.w	r2, [r3, #772]	; 0x304
}
    a860:	bdf8      	pop	{r3, r4, r5, r6, r7, pc}
	if (len > 0) {
    a862:	2c00      	cmp	r4, #0
    a864:	d0f7      	beq.n	a856 <rx_timeout+0x58>
				< data->async->rx_timeout_slab)) {
    a866:	e9d3 1220 	ldrd	r1, r2, [r3, #128]	; 0x80
		if (clipped ||
    a86a:	428a      	cmp	r2, r1
    a86c:	daf0      	bge.n	a850 <rx_timeout+0x52>
			notify_uart_rx_rdy(dev, len);
    a86e:	4621      	mov	r1, r4
    a870:	4628      	mov	r0, r5
    a872:	f7ff fef1 	bl	a658 <notify_uart_rx_rdy>
			data->async->rx_offset += len;
    a876:	6930      	ldr	r0, [r6, #16]
    a878:	6e83      	ldr	r3, [r0, #104]	; 0x68
			data->async->rx_total_user_byte_cnt += len;
    a87a:	6f81      	ldr	r1, [r0, #120]	; 0x78
			data->async->rx_offset += len;
    a87c:	4423      	add	r3, r4
			data->async->rx_total_user_byte_cnt += len;
    a87e:	4421      	add	r1, r4
			data->async->rx_offset += len;
    a880:	6683      	str	r3, [r0, #104]	; 0x68
			data->async->rx_total_user_byte_cnt += len;
    a882:	6781      	str	r1, [r0, #120]	; 0x78
		if (clipped) {
    a884:	2f00      	cmp	r7, #0
    a886:	d0e6      	beq.n	a856 <rx_timeout+0x58>
	z_impl_k_timer_stop(timer);
    a888:	3088      	adds	r0, #136	; 0x88
    a88a:	f000 fa12 	bl	acb2 <z_impl_k_timer_stop>
}
    a88e:	e7e2      	b.n	a856 <rx_timeout+0x58>

0000a890 <uarte_nrfx_irq_is_pending>:
{
    a890:	b538      	push	{r3, r4, r5, lr}
	return config->uarte_regs;
    a892:	6843      	ldr	r3, [r0, #4]
    a894:	681d      	ldr	r5, [r3, #0]
    return p_reg->INTENSET & mask;
    a896:	f8d5 3304 	ldr.w	r3, [r5, #772]	; 0x304
		||
    a89a:	025b      	lsls	r3, r3, #9
{
    a89c:	4604      	mov	r4, r0
		||
    a89e:	d405      	bmi.n	a8ac <uarte_nrfx_irq_is_pending+0x1c>
    a8a0:	f8d5 0304 	ldr.w	r0, [r5, #772]	; 0x304
    a8a4:	f010 0010 	ands.w	r0, r0, #16
    a8a8:	d106      	bne.n	a8b8 <uarte_nrfx_irq_is_pending+0x28>
}
    a8aa:	bd38      	pop	{r3, r4, r5, pc}
		 uarte_nrfx_irq_tx_ready_complete(dev))
    a8ac:	f7ff ff69 	bl	a782 <uarte_nrfx_irq_tx_ready_complete>
					    NRF_UARTE_INT_TXSTOPPED_MASK) &&
    a8b0:	2800      	cmp	r0, #0
    a8b2:	d0f5      	beq.n	a8a0 <uarte_nrfx_irq_is_pending+0x10>
		||
    a8b4:	2001      	movs	r0, #1
    a8b6:	e7f8      	b.n	a8aa <uarte_nrfx_irq_is_pending+0x1a>
		 uarte_nrfx_irq_rx_ready(dev)));
    a8b8:	4620      	mov	r0, r4
    a8ba:	f7ff ff77 	bl	a7ac <uarte_nrfx_irq_rx_ready>
					    NRF_UARTE_INT_ENDRX_MASK) &&
    a8be:	3800      	subs	r0, #0
    a8c0:	bf18      	it	ne
    a8c2:	2001      	movne	r0, #1
    a8c4:	e7f1      	b.n	a8aa <uarte_nrfx_irq_is_pending+0x1a>

0000a8c6 <uarte_nrfx_tx_abort>:
{
    a8c6:	b538      	push	{r3, r4, r5, lr}
	return config->uarte_regs;
    a8c8:	6843      	ldr	r3, [r0, #4]
    a8ca:	681d      	ldr	r5, [r3, #0]
	if (data->async->tx_buf == NULL) {
    a8cc:	6903      	ldr	r3, [r0, #16]
    a8ce:	6918      	ldr	r0, [r3, #16]
    a8d0:	6883      	ldr	r3, [r0, #8]
    a8d2:	b14b      	cbz	r3, a8e8 <uarte_nrfx_tx_abort+0x22>
	data->async->pending_tx = false;
    a8d4:	2400      	movs	r4, #0
    a8d6:	f880 40d4 	strb.w	r4, [r0, #212]	; 0xd4
	z_impl_k_timer_stop(timer);
    a8da:	3028      	adds	r0, #40	; 0x28
    a8dc:	f000 f9e9 	bl	acb2 <z_impl_k_timer_stop>
    *((volatile uint32_t *)((uint8_t *)p_reg + (uint32_t)task)) = 0x1UL;
    a8e0:	2301      	movs	r3, #1
    a8e2:	60eb      	str	r3, [r5, #12]
	return 0;
    a8e4:	4620      	mov	r0, r4
}
    a8e6:	bd38      	pop	{r3, r4, r5, pc}
		return -EFAULT;
    a8e8:	f06f 000d 	mvn.w	r0, #13
    a8ec:	e7fb      	b.n	a8e6 <uarte_nrfx_tx_abort+0x20>

0000a8ee <tx_timeout>:
	(void) uarte_nrfx_tx_abort(data->dev);
    a8ee:	6b43      	ldr	r3, [r0, #52]	; 0x34
    a8f0:	6818      	ldr	r0, [r3, #0]
    a8f2:	f7ff bfe8 	b.w	a8c6 <uarte_nrfx_tx_abort>

0000a8f6 <uarte_nrfx_rx_disable>:
{
    a8f6:	b538      	push	{r3, r4, r5, lr}
	struct uarte_nrfx_data *data = get_dev_data(dev);
    a8f8:	6905      	ldr	r5, [r0, #16]
	return config->uarte_regs;
    a8fa:	6843      	ldr	r3, [r0, #4]
	if (data->async->rx_buf == NULL) {
    a8fc:	6928      	ldr	r0, [r5, #16]
	return config->uarte_regs;
    a8fe:	681c      	ldr	r4, [r3, #0]
	if (data->async->rx_buf == NULL) {
    a900:	6e03      	ldr	r3, [r0, #96]	; 0x60
    a902:	b1b3      	cbz	r3, a932 <uarte_nrfx_rx_disable+0x3c>
	if (data->async->rx_next_buf != NULL) {
    a904:	6ec3      	ldr	r3, [r0, #108]	; 0x6c
    a906:	b153      	cbz	r3, a91e <uarte_nrfx_rx_disable+0x28>
    p_reg->SHORTS &= ~(mask);
    a908:	f8d4 3200 	ldr.w	r3, [r4, #512]	; 0x200
    a90c:	f023 0320 	bic.w	r3, r3, #32
    a910:	f8c4 3200 	str.w	r3, [r4, #512]	; 0x200
    *((volatile uint32_t *)((uint8_t *)p_reg + (uint32_t)event)) = 0x0UL;
    a914:	2300      	movs	r3, #0
    a916:	f8c4 314c 	str.w	r3, [r4, #332]	; 0x14c
    a91a:	f8d4 314c 	ldr.w	r3, [r4, #332]	; 0x14c
    a91e:	3088      	adds	r0, #136	; 0x88
    a920:	f000 f9c7 	bl	acb2 <z_impl_k_timer_stop>
	data->async->rx_enabled = false;
    a924:	692b      	ldr	r3, [r5, #16]
    a926:	2000      	movs	r0, #0
    a928:	f883 00d2 	strb.w	r0, [r3, #210]	; 0xd2
    *((volatile uint32_t *)((uint8_t *)p_reg + (uint32_t)task)) = 0x1UL;
    a92c:	2301      	movs	r3, #1
    a92e:	6063      	str	r3, [r4, #4]
}
    a930:	bd38      	pop	{r3, r4, r5, pc}
		return -EFAULT;
    a932:	f06f 000d 	mvn.w	r0, #13
    a936:	e7fb      	b.n	a930 <uarte_nrfx_rx_disable+0x3a>

0000a938 <uarte_0_init>:
				.tx_buffer = uarte##idx##_tx_buffer,	       \
				.tx_buff_size = sizeof(uarte##idx##_tx_buffer),\
			};))

#ifdef CONFIG_UART_0_NRF_UARTE
UART_NRF_UARTE_DEVICE(0);
    a938:	b510      	push	{r4, lr}
    a93a:	2200      	movs	r2, #0
    a93c:	4604      	mov	r4, r0
    a93e:	2101      	movs	r1, #1
    a940:	2002      	movs	r0, #2
    a942:	f7f8 fd31 	bl	33a8 <z_arm_irq_priority_set>
    a946:	2002      	movs	r0, #2
    a948:	f7f8 fd10 	bl	336c <arch_irq_enable>
    a94c:	4620      	mov	r0, r4
    a94e:	e8bd 4010 	ldmia.w	sp!, {r4, lr}
    a952:	f7fa b9f3 	b.w	4d3c <uarte_instance_init.isra.0>

0000a956 <uarte_1_init>:
#endif

#ifdef CONFIG_UART_1_NRF_UARTE
UART_NRF_UARTE_DEVICE(1);
    a956:	b510      	push	{r4, lr}
    a958:	2200      	movs	r2, #0
    a95a:	4604      	mov	r4, r0
    a95c:	2101      	movs	r1, #1
    a95e:	2028      	movs	r0, #40	; 0x28
    a960:	f7f8 fd22 	bl	33a8 <z_arm_irq_priority_set>
    a964:	2028      	movs	r0, #40	; 0x28
    a966:	f7f8 fd01 	bl	336c <arch_irq_enable>
    a96a:	4620      	mov	r0, r4
    a96c:	e8bd 4010 	ldmia.w	sp!, {r4, lr}
    a970:	f7fa b9e4 	b.w	4d3c <uarte_instance_init.isra.0>

0000a974 <tx_start>:
{
    a974:	b510      	push	{r4, lr}
	const struct uarte_nrfx_config *config = get_dev_config(dev);
    a976:	6844      	ldr	r4, [r0, #4]
	return config->uarte_regs;
    a978:	6823      	ldr	r3, [r4, #0]
    p_reg->TXD.PTR    = (uint32_t)p_buffer;
    a97a:	f8c3 1544 	str.w	r1, [r3, #1348]	; 0x544
    p_reg->TXD.MAXCNT = length;
    a97e:	f8c3 2548 	str.w	r2, [r3, #1352]	; 0x548
    *((volatile uint32_t *)((uint8_t *)p_reg + (uint32_t)event)) = 0x0UL;
    a982:	2200      	movs	r2, #0
    a984:	f8c3 2120 	str.w	r2, [r3, #288]	; 0x120
    a988:	f8d3 1120 	ldr.w	r1, [r3, #288]	; 0x120
    a98c:	f8c3 2158 	str.w	r2, [r3, #344]	; 0x158
    a990:	f8d3 2158 	ldr.w	r2, [r3, #344]	; 0x158
	if (get_dev_config(dev)->flags & UARTE_CFG_FLAG_LOW_POWER) {
    a994:	6862      	ldr	r2, [r4, #4]
    a996:	06d2      	lsls	r2, r2, #27
    a998:	d50f      	bpl.n	a9ba <tx_start+0x46>
	if (data->async) {
    a99a:	6902      	ldr	r2, [r0, #16]
    a99c:	6912      	ldr	r2, [r2, #16]
    a99e:	b12a      	cbz	r2, a9ac <tx_start+0x38>
		data->async->low_power_mask |= mask;
    a9a0:	f8d2 10c8 	ldr.w	r1, [r2, #200]	; 0xc8
    a9a4:	f041 0101 	orr.w	r1, r1, #1
    a9a8:	f8c2 10c8 	str.w	r1, [r2, #200]	; 0xc8
    p_reg->ENABLE = UARTE_ENABLE_ENABLE_Enabled;
    a9ac:	2208      	movs	r2, #8
    a9ae:	f8c3 2500 	str.w	r2, [r3, #1280]	; 0x500
    p_reg->INTENSET = mask;
    a9b2:	f44f 0280 	mov.w	r2, #4194304	; 0x400000
    a9b6:	f8c3 2304 	str.w	r2, [r3, #772]	; 0x304
    *((volatile uint32_t *)((uint8_t *)p_reg + (uint32_t)task)) = 0x1UL;
    a9ba:	2201      	movs	r2, #1
    a9bc:	609a      	str	r2, [r3, #8]
}
    a9be:	bd10      	pop	{r4, pc}

0000a9c0 <uarte_nrfx_fifo_fill>:
{
    a9c0:	b5f8      	push	{r3, r4, r5, r6, r7, lr}
	struct uarte_nrfx_data *data = get_dev_data(dev);
    a9c2:	6906      	ldr	r6, [r0, #16]
	len = MIN(len, data->int_driven->tx_buff_size);
    a9c4:	68f3      	ldr	r3, [r6, #12]
    a9c6:	899c      	ldrh	r4, [r3, #12]
	return __atomic_compare_exchange_n(target, &old_value, new_value,
    a9c8:	f3bf 8f5b 	dmb	ish
    a9cc:	4294      	cmp	r4, r2
    a9ce:	bfa8      	it	ge
    a9d0:	4614      	movge	r4, r2
{
    a9d2:	4605      	mov	r5, r0
    a9d4:	3310      	adds	r3, #16
    a9d6:	2201      	movs	r2, #1
    a9d8:	e853 0f00 	ldrex	r0, [r3]
    a9dc:	2800      	cmp	r0, #0
    a9de:	d103      	bne.n	a9e8 <uarte_nrfx_fifo_fill+0x28>
    a9e0:	e843 2700 	strex	r7, r2, [r3]
    a9e4:	2f00      	cmp	r7, #0
    a9e6:	d1f7      	bne.n	a9d8 <uarte_nrfx_fifo_fill+0x18>
    a9e8:	f3bf 8f5b 	dmb	ish
    a9ec:	bf0c      	ite	eq
    a9ee:	4613      	moveq	r3, r2
    a9f0:	2300      	movne	r3, #0
	if (!atomic_cas(&data->int_driven->fifo_fill_lock, 0, 1)) {
    a9f2:	d01d      	beq.n	aa30 <uarte_nrfx_fifo_fill+0x70>
		return 0;
    a9f4:	461c      	mov	r4, r3
}
    a9f6:	4620      	mov	r0, r4
    a9f8:	bdf8      	pop	{r3, r4, r5, r6, r7, pc}
		data->int_driven->tx_buffer[i] = tx_data[i];
    a9fa:	68f2      	ldr	r2, [r6, #12]
    a9fc:	5cc8      	ldrb	r0, [r1, r3]
    a9fe:	6892      	ldr	r2, [r2, #8]
    aa00:	54d0      	strb	r0, [r2, r3]
	for (int i = 0; i < len; i++) {
    aa02:	3301      	adds	r3, #1
    aa04:	42a3      	cmp	r3, r4
    aa06:	dbf8      	blt.n	a9fa <uarte_nrfx_fifo_fill+0x3a>
	__asm__ volatile(
    aa08:	f04f 0320 	mov.w	r3, #32
    aa0c:	f3ef 8711 	mrs	r7, BASEPRI
    aa10:	f383 8812 	msr	BASEPRI_MAX, r3
    aa14:	f3bf 8f6f 	isb	sy
	if (!is_tx_ready(dev)) {
    aa18:	4628      	mov	r0, r5
    aa1a:	f7ff fe06 	bl	a62a <is_tx_ready>
    aa1e:	68f3      	ldr	r3, [r6, #12]
    aa20:	b940      	cbnz	r0, aa34 <uarte_nrfx_fifo_fill+0x74>
		data->int_driven->fifo_fill_lock = 0;
    aa22:	6118      	str	r0, [r3, #16]
		len = 0;
    aa24:	4604      	mov	r4, r0
	__asm__ volatile(
    aa26:	f387 8811 	msr	BASEPRI, r7
    aa2a:	f3bf 8f6f 	isb	sy
	return len;
    aa2e:	e7e2      	b.n	a9f6 <uarte_nrfx_fifo_fill+0x36>
	for (int i = 0; i < len; i++) {
    aa30:	2300      	movs	r3, #0
    aa32:	e7e7      	b.n	aa04 <uarte_nrfx_fifo_fill+0x44>
		tx_start(dev, data->int_driven->tx_buffer, len);
    aa34:	6899      	ldr	r1, [r3, #8]
    aa36:	4622      	mov	r2, r4
    aa38:	4628      	mov	r0, r5
    aa3a:	f7ff ff9b 	bl	a974 <tx_start>
    aa3e:	e7f2      	b.n	aa26 <uarte_nrfx_fifo_fill+0x66>

0000aa40 <sys_clock_idle_exit>:
{
}

void __weak sys_clock_idle_exit(void)
{
}
    aa40:	4770      	bx	lr

0000aa42 <k_sys_fatal_error_handler>:

extern void sys_arch_reboot(int type);

void k_sys_fatal_error_handler(unsigned int reason,
			       const z_arch_esf_t *esf)
{
    aa42:	b508      	push	{r3, lr}
	z_spm_ns_fatal_error_handler();
#endif

	if (IS_ENABLED(CONFIG_RESET_ON_FATAL_ERROR)) {
		LOG_ERR("Resetting system");
		sys_arch_reboot(0);
    aa44:	2000      	movs	r0, #0
    aa46:	f7f9 f8cb 	bl	3be0 <sys_arch_reboot>

0000aa4a <hw_cc3xx_init_internal>:

	/* Initialize the cc3xx HW with or without RNG support */
#if CONFIG_ENTROPY_CC3XX
	res = nrf_cc3xx_platform_init();
#else
	res = nrf_cc3xx_platform_init_no_rng();
    aa4a:	f7fe bf0d 	b.w	9868 <nrf_cc3xx_platform_init_no_rng>

0000aa4e <hw_cc3xx_init>:

	return res;
}

static int hw_cc3xx_init(const struct device *dev)
{
    aa4e:	b508      	push	{r3, lr}
	int res;

	/* Set the RTOS abort APIs */
	nrf_cc3xx_platform_abort_init();
    aa50:	f7f7 feec 	bl	282c <nrf_cc3xx_platform_abort_init>

	/* Set the RTOS mutex APIs */
	nrf_cc3xx_platform_mutex_init();
    aa54:	f7f7 ff9e 	bl	2994 <nrf_cc3xx_platform_mutex_init>

	/* Enable the hardware */
	res = hw_cc3xx_init_internal(dev);
	return res;
}
    aa58:	e8bd 4008 	ldmia.w	sp!, {r3, lr}
	res = nrf_cc3xx_platform_init_no_rng();
    aa5c:	f7fe bf04 	b.w	9868 <nrf_cc3xx_platform_init_no_rng>

0000aa60 <nrfx_isr>:
#include <nrfx.h>
#include <kernel.h>

void nrfx_isr(const void *irq_handler)
{
	((nrfx_irq_handler_t)irq_handler)();
    aa60:	4700      	bx	r0

0000aa62 <nrfx_busy_wait>:
	z_impl_k_busy_wait(usec_to_wait);
    aa62:	f000 b916 	b.w	ac92 <z_impl_k_busy_wait>

0000aa66 <nrf_gpio_pin_present_check>:
    switch (port)
    aa66:	0943      	lsrs	r3, r0, #5
    aa68:	d00b      	beq.n	aa82 <nrf_gpio_pin_present_check+0x1c>
    aa6a:	2b01      	cmp	r3, #1
    uint32_t mask = 0;
    aa6c:	f64f 73ff 	movw	r3, #65535	; 0xffff
    aa70:	bf18      	it	ne
    aa72:	2300      	movne	r3, #0
    pin_number &= 0x1F;
    aa74:	f000 001f 	and.w	r0, r0, #31
    return (mask & (1UL << pin_number)) ? true : false;
    aa78:	fa23 f000 	lsr.w	r0, r3, r0
}
    aa7c:	f000 0001 	and.w	r0, r0, #1
    aa80:	4770      	bx	lr
    switch (port)
    aa82:	f04f 33ff 	mov.w	r3, #4294967295
    aa86:	e7f5      	b.n	aa74 <nrf_gpio_pin_present_check+0xe>

0000aa88 <nrf_gpiote_in_event_get>:
#endif

NRF_STATIC_INLINE nrf_gpiote_event_t nrf_gpiote_in_event_get(uint8_t index)
{
    NRFX_ASSERT(index < GPIOTE_CH_NUM);
    return (nrf_gpiote_event_t)NRFX_OFFSETOF(NRF_GPIOTE_Type, EVENTS_IN[index]);
    aa88:	0080      	lsls	r0, r0, #2
}
    aa8a:	f500 7080 	add.w	r0, r0, #256	; 0x100
    aa8e:	4770      	bx	lr

0000aa90 <nrf_gpio_reconfigure>:
{
    aa90:	e92d 41f3 	stmdb	sp!, {r0, r1, r4, r5, r6, r7, r8, lr}
    aa94:	9001      	str	r0, [sp, #4]
    NRF_GPIO_Type * reg = nrf_gpio_pin_port_decode(&pin_number);
    aa96:	a801      	add	r0, sp, #4
{
    aa98:	460e      	mov	r6, r1
    aa9a:	e9dd 4708 	ldrd	r4, r7, [sp, #32]
    aa9e:	4690      	mov	r8, r2
    aaa0:	461d      	mov	r5, r3
    NRF_GPIO_Type * reg = nrf_gpio_pin_port_decode(&pin_number);
    aaa2:	f7fa ffb5 	bl	5a10 <nrf_gpio_pin_port_decode>
    uint32_t cnf = reg->PIN_CNF[pin_number];
    aaa6:	9b01      	ldr	r3, [sp, #4]
                         (p_input ? GPIO_PIN_CNF_INPUT_Msk : 0) |
    aaa8:	f1b8 0f00 	cmp.w	r8, #0
    aaac:	eb00 0083 	add.w	r0, r0, r3, lsl #2
    aab0:	bf14      	ite	ne
    aab2:	2302      	movne	r3, #2
    aab4:	2300      	moveq	r3, #0
    uint32_t to_update = (p_dir   ? GPIO_PIN_CNF_DIR_Msk   : 0) |
    aab6:	2e00      	cmp	r6, #0
    aab8:	bf18      	it	ne
    aaba:	f043 0301 	orrne.w	r3, r3, #1
                         (p_pull  ? GPIO_PIN_CNF_PULL_Msk  : 0) |
    aabe:	2d00      	cmp	r5, #0
    aac0:	bf14      	ite	ne
    aac2:	210c      	movne	r1, #12
    aac4:	2100      	moveq	r1, #0
                         (p_drive ? GPIO_PIN_CNF_DRIVE_Msk : 0) |
    aac6:	2c00      	cmp	r4, #0
                         (p_input ? GPIO_PIN_CNF_INPUT_Msk : 0) |
    aac8:	ea43 0301 	orr.w	r3, r3, r1
                         (p_drive ? GPIO_PIN_CNF_DRIVE_Msk : 0) |
    aacc:	bf14      	ite	ne
    aace:	f44f 61e0 	movne.w	r1, #1792	; 0x700
    aad2:	2100      	moveq	r1, #0
                         (p_sense ? GPIO_PIN_CNF_SENSE_Msk : 0);
    aad4:	2f00      	cmp	r7, #0
                         (p_pull  ? GPIO_PIN_CNF_PULL_Msk  : 0) |
    aad6:	ea43 0301 	orr.w	r3, r3, r1
    uint32_t cnf = reg->PIN_CNF[pin_number];
    aada:	f8d0 2700 	ldr.w	r2, [r0, #1792]	; 0x700
                         (p_sense ? GPIO_PIN_CNF_SENSE_Msk : 0);
    aade:	bf14      	ite	ne
    aae0:	f44f 3140 	movne.w	r1, #196608	; 0x30000
    aae4:	2100      	moveq	r1, #0
    uint32_t to_update = (p_dir   ? GPIO_PIN_CNF_DIR_Msk   : 0) |
    aae6:	430b      	orrs	r3, r1
    cnf &= ~to_update;
    aae8:	ea22 0303 	bic.w	r3, r2, r3
    cnf |= ((uint32_t)(p_dir   ? *p_dir   : 0) << GPIO_PIN_CNF_DIR_Pos)   |
    aaec:	b106      	cbz	r6, aaf0 <nrf_gpio_reconfigure+0x60>
    aaee:	7836      	ldrb	r6, [r6, #0]
           ((uint32_t)(p_input ? *p_input : 0) << GPIO_PIN_CNF_INPUT_Pos) |
    aaf0:	f1b8 0f00 	cmp.w	r8, #0
    aaf4:	d003      	beq.n	aafe <nrf_gpio_reconfigure+0x6e>
    aaf6:	f898 8000 	ldrb.w	r8, [r8]
    aafa:	ea4f 0848 	mov.w	r8, r8, lsl #1
    aafe:	431e      	orrs	r6, r3
           ((uint32_t)(p_pull  ? *p_pull  : 0) << GPIO_PIN_CNF_PULL_Pos)  |
    ab00:	b10d      	cbz	r5, ab06 <nrf_gpio_reconfigure+0x76>
    ab02:	782d      	ldrb	r5, [r5, #0]
    ab04:	00ad      	lsls	r5, r5, #2
    ab06:	ea46 0608 	orr.w	r6, r6, r8
           ((uint32_t)(p_drive ? *p_drive : 0) << GPIO_PIN_CNF_DRIVE_Pos) |
    ab0a:	b10c      	cbz	r4, ab10 <nrf_gpio_reconfigure+0x80>
    ab0c:	7822      	ldrb	r2, [r4, #0]
    ab0e:	0214      	lsls	r4, r2, #8
    ab10:	4335      	orrs	r5, r6
           ((uint32_t)(p_sense ? *p_sense : 0)<< GPIO_PIN_CNF_SENSE_Pos);
    ab12:	b10f      	cbz	r7, ab18 <nrf_gpio_reconfigure+0x88>
    ab14:	783f      	ldrb	r7, [r7, #0]
    ab16:	043f      	lsls	r7, r7, #16
    cnf |= ((uint32_t)(p_dir   ? *p_dir   : 0) << GPIO_PIN_CNF_DIR_Pos)   |
    ab18:	432c      	orrs	r4, r5
    ab1a:	433c      	orrs	r4, r7
    reg->PIN_CNF[pin_number] = cnf;
    ab1c:	f8c0 4700 	str.w	r4, [r0, #1792]	; 0x700
}
    ab20:	b002      	add	sp, #8
    ab22:	e8bd 81f0 	ldmia.w	sp!, {r4, r5, r6, r7, r8, pc}

0000ab26 <nrf_gpio_cfg_sense_set>:
{
    ab26:	b51f      	push	{r0, r1, r2, r3, r4, lr}
    nrf_gpio_reconfigure(pin_number, NULL, NULL, NULL, NULL, &sense_config);
    ab28:	f10d 030f 	add.w	r3, sp, #15
    ab2c:	9301      	str	r3, [sp, #4]
    ab2e:	2300      	movs	r3, #0
{
    ab30:	f88d 100f 	strb.w	r1, [sp, #15]
    nrf_gpio_reconfigure(pin_number, NULL, NULL, NULL, NULL, &sense_config);
    ab34:	9300      	str	r3, [sp, #0]
    ab36:	461a      	mov	r2, r3
    ab38:	4619      	mov	r1, r3
    ab3a:	f7ff ffa9 	bl	aa90 <nrf_gpio_reconfigure>
}
    ab3e:	b005      	add	sp, #20
    ab40:	f85d fb04 	ldr.w	pc, [sp], #4

0000ab44 <start_playback.isra.0>:
static uint32_t start_playback(nrfx_pwm_t const * p_instance,
    ab44:	b510      	push	{r4, lr}
    p_cb->state = NRFX_DRV_STATE_POWERED_ON;
    ab46:	2402      	movs	r4, #2
    ab48:	720c      	strb	r4, [r1, #8]
    p_cb->flags = flags;
    ab4a:	724a      	strb	r2, [r1, #9]
    if (p_cb->handler)
    ab4c:	6809      	ldr	r1, [r1, #0]
    ab4e:	b171      	cbz	r1, ab6e <start_playback.isra.0+0x2a>
            int_mask |= NRF_PWM_INT_SEQEND0_MASK;
    ab50:	f012 0f04 	tst.w	r2, #4
    ab54:	bf0c      	ite	eq
    ab56:	2182      	moveq	r1, #130	; 0x82
    ab58:	2192      	movne	r1, #146	; 0x92
        if (flags & NRFX_PWM_FLAG_SIGNAL_END_SEQ1)
    ab5a:	0714      	lsls	r4, r2, #28
            int_mask |= NRF_PWM_INT_SEQEND1_MASK;
    ab5c:	bf48      	it	mi
    ab5e:	f041 0120 	orrmi.w	r1, r1, #32
        if (flags & NRFX_PWM_FLAG_NO_EVT_FINISHED)
    ab62:	06d4      	lsls	r4, r2, #27
            int_mask &= ~NRF_PWM_INT_LOOPSDONE_MASK;
    ab64:	bf48      	it	mi
    ab66:	f021 0180 	bicmi.w	r1, r1, #128	; 0x80
    p_reg->INTEN = mask;
    ab6a:	f8c0 1300 	str.w	r1, [r0, #768]	; 0x300
    if (flags & NRFX_PWM_FLAG_START_VIA_TASK)
    ab6e:	0612      	lsls	r2, r2, #24
    *((volatile uint32_t *)((uint8_t *)p_reg + (uint32_t)event)) = 0x0UL;
    ab70:	f04f 0100 	mov.w	r1, #0
    ab74:	f8c0 1104 	str.w	r1, [r0, #260]	; 0x104
    *((volatile uint32_t *)((uint8_t *)p_reg + (uint32_t)task)) = 0x1UL;
    ab78:	bf58      	it	pl
    ab7a:	2201      	movpl	r2, #1
    ab7c:	f8d0 4104 	ldr.w	r4, [r0, #260]	; 0x104
    ab80:	bf56      	itet	pl
    ab82:	50c2      	strpl	r2, [r0, r3]
    return ((uint32_t)p_reg + (uint32_t)task);
    ab84:	18c0      	addmi	r0, r0, r3
    return 0;
    ab86:	4608      	movpl	r0, r1
}
    ab88:	bd10      	pop	{r4, pc}

0000ab8a <z_device_state_init>:
}
    ab8a:	4770      	bx	lr

0000ab8c <z_device_ready>:
{
	/*
	 * if an invalid device pointer is passed as argument, this call
	 * reports the `device` as not ready for usage.
	 */
	if (dev == NULL) {
    ab8c:	b138      	cbz	r0, ab9e <z_device_ready+0x12>
		return false;
	}

	return dev->state->initialized && (dev->state->init_res == 0U);
    ab8e:	68c3      	ldr	r3, [r0, #12]
    ab90:	8818      	ldrh	r0, [r3, #0]
    ab92:	f3c0 0008 	ubfx	r0, r0, #0, #9
    ab96:	f5a0 7380 	sub.w	r3, r0, #256	; 0x100
    ab9a:	4258      	negs	r0, r3
    ab9c:	4158      	adcs	r0, r3
}
    ab9e:	4770      	bx	lr

0000aba0 <z_pm_save_idle_exit>:
{
    aba0:	b508      	push	{r3, lr}
	pm_system_resume();
    aba2:	f7f8 fa53 	bl	304c <pm_system_resume>
}
    aba6:	e8bd 4008 	ldmia.w	sp!, {r3, lr}
	sys_clock_idle_exit();
    abaa:	f7ff bf49 	b.w	aa40 <sys_clock_idle_exit>

0000abae <k_mem_slab_init>:
{
    abae:	b530      	push	{r4, r5, lr}
	slab->num_used = 0U;
    abb0:	2400      	movs	r4, #0
    abb2:	61c4      	str	r4, [r0, #28]
	slab->lock = (struct k_spinlock) {};
    abb4:	6084      	str	r4, [r0, #8]
	CHECKIF(((slab->block_size | (uintptr_t)slab->buffer) &
    abb6:	ea41 0402 	orr.w	r4, r1, r2
    abba:	f014 0403 	ands.w	r4, r4, #3
	slab->block_size = block_size;
    abbe:	e9c0 3203 	strd	r3, r2, [r0, #12]
	slab->buffer = buffer;
    abc2:	6141      	str	r1, [r0, #20]
	CHECKIF(((slab->block_size | (uintptr_t)slab->buffer) &
    abc4:	d10c      	bne.n	abe0 <k_mem_slab_init+0x32>
	slab->free_list = NULL;
    abc6:	6184      	str	r4, [r0, #24]
	for (j = 0U; j < slab->num_blocks; j++) {
    abc8:	42a3      	cmp	r3, r4
    abca:	d103      	bne.n	abd4 <k_mem_slab_init+0x26>
    abcc:	e9c0 0000 	strd	r0, r0, [r0]
}
    abd0:	2000      	movs	r0, #0
}
    abd2:	bd30      	pop	{r4, r5, pc}
		*(char **)p = slab->free_list;
    abd4:	6985      	ldr	r5, [r0, #24]
    abd6:	600d      	str	r5, [r1, #0]
	for (j = 0U; j < slab->num_blocks; j++) {
    abd8:	3401      	adds	r4, #1
		slab->free_list = p;
    abda:	6181      	str	r1, [r0, #24]
		p += slab->block_size;
    abdc:	4411      	add	r1, r2
	for (j = 0U; j < slab->num_blocks; j++) {
    abde:	e7f3      	b.n	abc8 <k_mem_slab_init+0x1a>
		return -EINVAL;
    abe0:	f06f 0015 	mvn.w	r0, #21
	return rc;
    abe4:	e7f5      	b.n	abd2 <k_mem_slab_init+0x24>

0000abe6 <z_impl_k_mutex_init>:
{
    abe6:	4603      	mov	r3, r0
	mutex->owner = NULL;
    abe8:	2000      	movs	r0, #0
	mutex->lock_count = 0U;
    abea:	e9c3 0002 	strd	r0, r0, [r3, #8]
    abee:	e9c3 3300 	strd	r3, r3, [r3]
}
    abf2:	4770      	bx	lr

0000abf4 <z_handle_obj_poll_events>:
{
    abf4:	4603      	mov	r3, r0
	return list->head == list;
    abf6:	6800      	ldr	r0, [r0, #0]
	if (!sys_dlist_is_empty(list)) {
    abf8:	4283      	cmp	r3, r0
    abfa:	d008      	beq.n	ac0e <z_handle_obj_poll_events+0x1a>
	sys_dnode_t *const next = node->next;
    abfc:	e9d0 3200 	ldrd	r3, r2, [r0]
	prev->next = next;
    ac00:	6013      	str	r3, [r2, #0]
	next->prev = prev;
    ac02:	605a      	str	r2, [r3, #4]
	node->next = NULL;
    ac04:	2300      	movs	r3, #0
	node->prev = NULL;
    ac06:	e9c0 3300 	strd	r3, r3, [r0]
		(void) signal_poll_event(poll_event, state);
    ac0a:	f7fc ba03 	b.w	7014 <signal_poll_event>
}
    ac0e:	4770      	bx	lr

0000ac10 <z_reschedule_irqlock>:
	return arch_irq_unlocked(key) && !arch_is_in_isr();
    ac10:	4603      	mov	r3, r0
    ac12:	b920      	cbnz	r0, ac1e <z_reschedule_irqlock+0xe>
  __ASM volatile ("MRS %0, ipsr" : "=r" (result) );
    ac14:	f3ef 8205 	mrs	r2, IPSR
	if (resched(key)) {
    ac18:	b90a      	cbnz	r2, ac1e <z_reschedule_irqlock+0xe>
    ac1a:	f7f8 bc15 	b.w	3448 <arch_swap>
    ac1e:	f383 8811 	msr	BASEPRI, r3
    ac22:	f3bf 8f6f 	isb	sy
}
    ac26:	4770      	bx	lr

0000ac28 <z_reschedule_unlocked>:
	__asm__ volatile(
    ac28:	f04f 0320 	mov.w	r3, #32
    ac2c:	f3ef 8011 	mrs	r0, BASEPRI
    ac30:	f383 8812 	msr	BASEPRI_MAX, r3
    ac34:	f3bf 8f6f 	isb	sy
	(void) z_reschedule_irqlock(arch_irq_lock());
    ac38:	f7ff bfea 	b.w	ac10 <z_reschedule_irqlock>

0000ac3c <z_priq_dumb_best>:
{
    ac3c:	4603      	mov	r3, r0
	return list->head == list;
    ac3e:	6800      	ldr	r0, [r0, #0]
	return sys_dlist_is_empty(list) ? NULL : list->head;
    ac40:	4283      	cmp	r3, r0
    ac42:	d003      	beq.n	ac4c <z_priq_dumb_best+0x10>
	if (n != NULL) {
    ac44:	2800      	cmp	r0, #0
    ac46:	bf38      	it	cc
    ac48:	2000      	movcc	r0, #0
    ac4a:	4770      	bx	lr
	struct k_thread *thread = NULL;
    ac4c:	2000      	movs	r0, #0
}
    ac4e:	4770      	bx	lr

0000ac50 <z_impl_k_sem_init>:
	CHECKIF(limit == 0U || limit > K_SEM_MAX_LIMIT || initial_count > limit) {
    ac50:	b15a      	cbz	r2, ac6a <z_impl_k_sem_init+0x1a>
    ac52:	428a      	cmp	r2, r1
    ac54:	d309      	bcc.n	ac6a <z_impl_k_sem_init+0x1a>
	sys_dlist_init(&sem->poll_events);
    ac56:	f100 0310 	add.w	r3, r0, #16
	sem->limit = limit;
    ac5a:	e9c0 1202 	strd	r1, r2, [r0, #8]
	list->tail = (sys_dnode_t *)list;
    ac5e:	e9c0 0000 	strd	r0, r0, [r0]
    ac62:	e9c0 3304 	strd	r3, r3, [r0, #16]
	return 0;
    ac66:	2000      	movs	r0, #0
    ac68:	4770      	bx	lr
		return -EINVAL;
    ac6a:	f06f 0015 	mvn.w	r0, #21
}
    ac6e:	4770      	bx	lr

0000ac70 <k_is_in_isr>:
    ac70:	f3ef 8005 	mrs	r0, IPSR
}
    ac74:	3800      	subs	r0, #0
    ac76:	bf18      	it	ne
    ac78:	2001      	movne	r0, #1
    ac7a:	4770      	bx	lr

0000ac7c <z_impl_k_thread_name_set>:
}
    ac7c:	f06f 0057 	mvn.w	r0, #87	; 0x57
    ac80:	4770      	bx	lr

0000ac82 <z_impl_k_thread_start>:
	z_sched_start(thread);
    ac82:	f7fc be45 	b.w	7910 <z_sched_start>

0000ac86 <sys_clock_tick_get_32>:

uint32_t sys_clock_tick_get_32(void)
{
    ac86:	b508      	push	{r3, lr}
#ifdef CONFIG_TICKLESS_KERNEL
	return (uint32_t)sys_clock_tick_get();
    ac88:	f7fe f9ea 	bl	9060 <sys_clock_tick_get>
#else
	return (uint32_t)curr_tick;
#endif
}
    ac8c:	bd08      	pop	{r3, pc}

0000ac8e <z_impl_k_uptime_ticks>:

int64_t z_impl_k_uptime_ticks(void)
{
	return sys_clock_tick_get();
    ac8e:	f7fe b9e7 	b.w	9060 <sys_clock_tick_get>

0000ac92 <z_impl_k_busy_wait>:
#endif

void z_impl_k_busy_wait(uint32_t usec_to_wait)
{
	SYS_PORT_TRACING_FUNC_ENTER(k_thread, busy_wait, usec_to_wait);
	if (usec_to_wait == 0U) {
    ac92:	b108      	cbz	r0, ac98 <z_impl_k_busy_wait+0x6>
		if ((current_cycles - start_cycles) >= cycles_to_wait) {
			break;
		}
	}
#else
	arch_busy_wait(usec_to_wait);
    ac94:	f7f8 bfba 	b.w	3c0c <arch_busy_wait>
#endif /* CONFIG_ARCH_HAS_CUSTOM_BUSY_WAIT */
	SYS_PORT_TRACING_FUNC_EXIT(k_thread, busy_wait, usec_to_wait);
}
    ac98:	4770      	bx	lr

0000ac9a <k_timer_init>:
	timer->status = 0U;
    ac9a:	2300      	movs	r3, #0
	timer->stop_fn = stop_fn;
    ac9c:	e9c0 1208 	strd	r1, r2, [r0, #32]
	sys_dlist_init(&w->waitq);
    aca0:	f100 0218 	add.w	r2, r0, #24
    aca4:	e9c0 2206 	strd	r2, r2, [r0, #24]
	node->prev = NULL;
    aca8:	e9c0 3300 	strd	r3, r3, [r0]
	timer->status = 0U;
    acac:	6303      	str	r3, [r0, #48]	; 0x30
	timer->user_data = NULL;
    acae:	6343      	str	r3, [r0, #52]	; 0x34
}
    acb0:	4770      	bx	lr

0000acb2 <z_impl_k_timer_stop>:
}
#include <syscalls/k_timer_start_mrsh.c>
#endif

void z_impl_k_timer_stop(struct k_timer *timer)
{
    acb2:	b510      	push	{r4, lr}
    acb4:	4604      	mov	r4, r0
	SYS_PORT_TRACING_OBJ_FUNC(k_timer, stop, timer);

	int inactive = z_abort_timeout(&timer->timeout) != 0;
    acb6:	f7fe f821 	bl	8cfc <z_abort_timeout>

	if (inactive) {
    acba:	b9b0      	cbnz	r0, acea <z_impl_k_timer_stop+0x38>
		return;
	}

	if (timer->stop_fn != NULL) {
    acbc:	6a63      	ldr	r3, [r4, #36]	; 0x24
    acbe:	b10b      	cbz	r3, acc4 <z_impl_k_timer_stop+0x12>
		timer->stop_fn(timer);
    acc0:	4620      	mov	r0, r4
    acc2:	4798      	blx	r3
	}

	if (IS_ENABLED(CONFIG_MULTITHREADING)) {
		struct k_thread *pending_thread = z_unpend1_no_timeout(&timer->wait_q);
    acc4:	f104 0018 	add.w	r0, r4, #24
    acc8:	f7fd f93e 	bl	7f48 <z_unpend1_no_timeout>

		if (pending_thread != NULL) {
    accc:	b168      	cbz	r0, acea <z_impl_k_timer_stop+0x38>
			z_ready_thread(pending_thread);
    acce:	f7fc fdd7 	bl	7880 <z_ready_thread>
    acd2:	f04f 0320 	mov.w	r3, #32
    acd6:	f3ef 8011 	mrs	r0, BASEPRI
    acda:	f383 8812 	msr	BASEPRI_MAX, r3
    acde:	f3bf 8f6f 	isb	sy
			z_reschedule_unlocked();
		}
	}
}
    ace2:	e8bd 4010 	ldmia.w	sp!, {r4, lr}
    ace6:	f7ff bf93 	b.w	ac10 <z_reschedule_irqlock>
    acea:	bd10      	pop	{r4, pc}

0000acec <notify_queue_locked>:
	if (queue != NULL) {
    acec:	b120      	cbz	r0, acf8 <notify_queue_locked+0xc>
		rv = z_sched_wake(&queue->notifyq, 0, NULL);
    acee:	2200      	movs	r2, #0
    acf0:	4611      	mov	r1, r2
    acf2:	3088      	adds	r0, #136	; 0x88
    acf4:	f7fd bc24 	b.w	8540 <z_sched_wake>
}
    acf8:	4770      	bx	lr

0000acfa <k_heap_init>:
{
    acfa:	b410      	push	{r4}
    acfc:	f100 040c 	add.w	r4, r0, #12
	list->tail = (sys_dnode_t *)list;
    ad00:	e9c0 4403 	strd	r4, r4, [r0, #12]
}
    ad04:	bc10      	pop	{r4}
	sys_heap_init(&h->heap, mem, bytes);
    ad06:	f7f7 bccd 	b.w	26a4 <sys_heap_init>

0000ad0a <_OffsetAbsSyms>:

#include <gen_offset.h>

#include "offsets_aarch32.c"

GEN_ABS_SYM_END
    ad0a:	4770      	bx	lr

0000ad0c <z_arm_platform_init>:
	 */
#if defined(CONFIG_ARMV6_M_ARMV8_M_BASELINE)
	ldr r0, =SystemInit
	bx r0
#elif defined(CONFIG_ARMV7_M_ARMV8_M_MAINLINE)
	b SystemInit
    ad0c:	f7fb bc54 	b.w	65b8 <SystemInit>
